Component: ARM Compiler 5.06 update 5 (build 528) Tool: armlink [4d35e2]

==============================================================================

Section Cross References

    main.o(i._Z7GUITaskPv) refers to hal.o(.data) for touchgfx::HAL::instance
    main.o(i.main) refers to boardconfiguration.o(i._ZN8touchgfx7hw_initEv) for touchgfx::hw_init()
    main.o(i.main) refers to boardconfiguration.o(i._ZN8touchgfx13touchgfx_initEv) for touchgfx::touchgfx_init()
    main.o(i.main) refers to tasks.o(i.xTaskGenericCreate) for xTaskGenericCreate
    main.o(i.main) refers to tasks.o(i.vTaskStartScheduler) for vTaskStartScheduler
    main.o(i.main) refers to main.o(i._Z7GUITaskPv) for GUITask(void*)
    main.o(.ARM.exidx) refers to main.o(i._Z7GUITaskPv) for i._Z7GUITaskPv
    main.o(.ARM.exidx) refers to main.o(i.main) for i.main
    system_stm32f7xx.o(i.SystemCoreClockUpdate) refers to system_stm32f7xx.o(.data) for SystemCoreClock
    system_stm32f7xx.o(i.SystemCoreClockUpdate) refers to system_stm32f7xx.o(.constdata) for AHBPrescTable
    startup_stm32f746xx.o(STACK) refers (Special) to heapauxi.o(.text) for __use_two_region_memory
    startup_stm32f746xx.o(HEAP) refers (Special) to heapauxi.o(.text) for __use_two_region_memory
    startup_stm32f746xx.o(RESET) refers (Special) to heapauxi.o(.text) for __use_two_region_memory
    startup_stm32f746xx.o(RESET) refers to startup_stm32f746xx.o(STACK) for __initial_sp
    startup_stm32f746xx.o(RESET) refers to startup_stm32f746xx.o(.text) for Reset_Handler
    startup_stm32f746xx.o(RESET) refers to port.o(.emb_text) for SVC_Handler
    startup_stm32f746xx.o(RESET) refers to boardconfiguration.o(i.SysTick_Handler) for SysTick_Handler
    startup_stm32f746xx.o(RESET) refers to stm32f7hal.o(i.LTDC_IRQHandler) for LTDC_IRQHandler
    startup_stm32f746xx.o(RESET) refers to stm32f7hal.o(i.DMA2D_IRQHandler) for DMA2D_IRQHandler
    startup_stm32f746xx.o(.text) refers (Special) to heapauxi.o(.text) for __use_two_region_memory
    startup_stm32f746xx.o(.text) refers to system_stm32f7xx.o(i.SystemInit) for SystemInit
    startup_stm32f746xx.o(.text) refers to __main.o(!!!main) for __main
    startup_stm32f746xx.o(.text) refers to startup_stm32f746xx.o(HEAP) for Heap_Mem
    startup_stm32f746xx.o(.text) refers to startup_stm32f746xx.o(STACK) for Stack_Mem
    datetimesettingsscreenpresenter.o(i._ZN31dateTimeSettingsScreenPresenter10changeHourEi) refers to model.o(i._ZN5Model10changeHourEi) for Model::changeHour(int)
    datetimesettingsscreenpresenter.o(i._ZN31dateTimeSettingsScreenPresenter10changeYearEi) refers to model.o(i._ZN5Model10changeYearEi) for Model::changeYear(int)
    datetimesettingsscreenpresenter.o(i._ZN31dateTimeSettingsScreenPresenter11changeMonthEi) refers to model.o(i._ZN5Model11changeMonthEi) for Model::changeMonth(int)
    datetimesettingsscreenpresenter.o(i._ZN31dateTimeSettingsScreenPresenter6getDayEv) refers to model.o(i._ZN5Model6getDayEv) for Model::getDay()
    datetimesettingsscreenpresenter.o(i._ZN31dateTimeSettingsScreenPresenter6getMinEv) refers to model.o(i._ZN5Model6getMinEv) for Model::getMin()
    datetimesettingsscreenpresenter.o(i._ZN31dateTimeSettingsScreenPresenter7getHourEv) refers to model.o(i._ZN5Model7getHourEv) for Model::getHour()
    datetimesettingsscreenpresenter.o(i._ZN31dateTimeSettingsScreenPresenter7getYearEv) refers to model.o(i._ZN5Model7getYearEv) for Model::getYear()
    datetimesettingsscreenpresenter.o(i._ZN31dateTimeSettingsScreenPresenter8getMonthEv) refers to model.o(i._ZN5Model8getMonthEv) for Model::getMonth()
    datetimesettingsscreenpresenter.o(i._ZN31dateTimeSettingsScreenPresenter9changeDayEi) refers to model.o(i._ZN5Model9changeDayEi) for Model::changeDay(int)
    datetimesettingsscreenpresenter.o(i._ZN31dateTimeSettingsScreenPresenter9changeMinEi) refers to model.o(i._ZN5Model9changeMinEi) for Model::changeMin(int)
    datetimesettingsscreenpresenter.o(i._ZN31dateTimeSettingsScreenPresenterC1ER26dateTimeSettingsScreenView) refers to datetimesettingsscreenpresenter.o(.constdata__ZTVN8touchgfx9PresenterE) for vtable for touchgfx::Presenter
    datetimesettingsscreenpresenter.o(i._ZN31dateTimeSettingsScreenPresenterC1ER26dateTimeSettingsScreenView) refers to datetimesettingsscreenpresenter.o(.constdata__ZTV13ModelListener) for vtable for ModelListener
    datetimesettingsscreenpresenter.o(i._ZN31dateTimeSettingsScreenPresenterC1ER26dateTimeSettingsScreenView) refers to datetimesettingsscreenpresenter.o(.constdata__ZTV31dateTimeSettingsScreenPresenter) for vtable for dateTimeSettingsScreenPresenter
    datetimesettingsscreenpresenter.o(.ARM.exidx) refers to datetimesettingsscreenpresenter.o(i._ZN31dateTimeSettingsScreenPresenterC1ER26dateTimeSettingsScreenView) for i._ZN31dateTimeSettingsScreenPresenterC1ER26dateTimeSettingsScreenView
    datetimesettingsscreenpresenter.o(.ARM.exidx) refers to datetimesettingsscreenpresenter.o(i._ZN31dateTimeSettingsScreenPresenter8activateEv) for i._ZN31dateTimeSettingsScreenPresenter8activateEv
    datetimesettingsscreenpresenter.o(.ARM.exidx) refers to datetimesettingsscreenpresenter.o(i._ZN31dateTimeSettingsScreenPresenter10deactivateEv) for i._ZN31dateTimeSettingsScreenPresenter10deactivateEv
    datetimesettingsscreenpresenter.o(.ARM.exidx) refers to datetimesettingsscreenpresenter.o(i._ZN31dateTimeSettingsScreenPresenter10changeYearEi) for i._ZN31dateTimeSettingsScreenPresenter10changeYearEi
    datetimesettingsscreenpresenter.o(.ARM.exidx) refers to datetimesettingsscreenpresenter.o(i._ZN31dateTimeSettingsScreenPresenter11changeMonthEi) for i._ZN31dateTimeSettingsScreenPresenter11changeMonthEi
    datetimesettingsscreenpresenter.o(.ARM.exidx) refers to datetimesettingsscreenpresenter.o(i._ZN31dateTimeSettingsScreenPresenter9changeDayEi) for i._ZN31dateTimeSettingsScreenPresenter9changeDayEi
    datetimesettingsscreenpresenter.o(.ARM.exidx) refers to datetimesettingsscreenpresenter.o(i._ZN31dateTimeSettingsScreenPresenter10changeHourEi) for i._ZN31dateTimeSettingsScreenPresenter10changeHourEi
    datetimesettingsscreenpresenter.o(.ARM.exidx) refers to datetimesettingsscreenpresenter.o(i._ZN31dateTimeSettingsScreenPresenter9changeMinEi) for i._ZN31dateTimeSettingsScreenPresenter9changeMinEi
    datetimesettingsscreenpresenter.o(.ARM.exidx) refers to datetimesettingsscreenpresenter.o(i._ZN31dateTimeSettingsScreenPresenter7getYearEv) for i._ZN31dateTimeSettingsScreenPresenter7getYearEv
    datetimesettingsscreenpresenter.o(.ARM.exidx) refers to datetimesettingsscreenpresenter.o(i._ZN31dateTimeSettingsScreenPresenter8getMonthEv) for i._ZN31dateTimeSettingsScreenPresenter8getMonthEv
    datetimesettingsscreenpresenter.o(.ARM.exidx) refers to datetimesettingsscreenpresenter.o(i._ZN31dateTimeSettingsScreenPresenter6getDayEv) for i._ZN31dateTimeSettingsScreenPresenter6getDayEv
    datetimesettingsscreenpresenter.o(.ARM.exidx) refers to datetimesettingsscreenpresenter.o(i._ZN31dateTimeSettingsScreenPresenter7getHourEv) for i._ZN31dateTimeSettingsScreenPresenter7getHourEv
    datetimesettingsscreenpresenter.o(.ARM.exidx) refers to datetimesettingsscreenpresenter.o(i._ZN31dateTimeSettingsScreenPresenter6getMinEv) for i._ZN31dateTimeSettingsScreenPresenter6getMinEv
    datetimesettingsscreenview.o(i._ZN26dateTimeSettingsScreenView11setupScreenEv) refers to datetimesettingsscreenpresenter.o(i._ZN31dateTimeSettingsScreenPresenter7getYearEv) for dateTimeSettingsScreenPresenter::getYear()
    datetimesettingsscreenview.o(i._ZN26dateTimeSettingsScreenView11setupScreenEv) refers to datetimesettingsscreenview.o(i._ZN26dateTimeSettingsScreenView7setYearEi) for dateTimeSettingsScreenView::setYear(int)
    datetimesettingsscreenview.o(i._ZN26dateTimeSettingsScreenView11setupScreenEv) refers to datetimesettingsscreenpresenter.o(i._ZN31dateTimeSettingsScreenPresenter8getMonthEv) for dateTimeSettingsScreenPresenter::getMonth()
    datetimesettingsscreenview.o(i._ZN26dateTimeSettingsScreenView11setupScreenEv) refers to datetimesettingsscreenview.o(i._ZN26dateTimeSettingsScreenView8setMonthEi) for dateTimeSettingsScreenView::setMonth(int)
    datetimesettingsscreenview.o(i._ZN26dateTimeSettingsScreenView11setupScreenEv) refers to datetimesettingsscreenpresenter.o(i._ZN31dateTimeSettingsScreenPresenter6getDayEv) for dateTimeSettingsScreenPresenter::getDay()
    datetimesettingsscreenview.o(i._ZN26dateTimeSettingsScreenView11setupScreenEv) refers to datetimesettingsscreenview.o(i._ZN26dateTimeSettingsScreenView6setDayEi) for dateTimeSettingsScreenView::setDay(int)
    datetimesettingsscreenview.o(i._ZN26dateTimeSettingsScreenView11setupScreenEv) refers to datetimesettingsscreenpresenter.o(i._ZN31dateTimeSettingsScreenPresenter7getHourEv) for dateTimeSettingsScreenPresenter::getHour()
    datetimesettingsscreenview.o(i._ZN26dateTimeSettingsScreenView11setupScreenEv) refers to datetimesettingsscreenview.o(i._ZN26dateTimeSettingsScreenView7setHourEi) for dateTimeSettingsScreenView::setHour(int)
    datetimesettingsscreenview.o(i._ZN26dateTimeSettingsScreenView11setupScreenEv) refers to datetimesettingsscreenpresenter.o(i._ZN31dateTimeSettingsScreenPresenter6getMinEv) for dateTimeSettingsScreenPresenter::getMin()
    datetimesettingsscreenview.o(i._ZN26dateTimeSettingsScreenView11setupScreenEv) refers to datetimesettingsscreenview.o(i._ZN26dateTimeSettingsScreenView6setMinEi) for dateTimeSettingsScreenView::setMin(int)
    datetimesettingsscreenview.o(i._ZN26dateTimeSettingsScreenView16dayDecBtnClickedEv) refers to datetimesettingsscreenpresenter.o(i._ZN31dateTimeSettingsScreenPresenter6getDayEv) for dateTimeSettingsScreenPresenter::getDay()
    datetimesettingsscreenview.o(i._ZN26dateTimeSettingsScreenView16dayDecBtnClickedEv) refers to datetimesettingsscreenview.o(i._ZN26dateTimeSettingsScreenView6setDayEi) for dateTimeSettingsScreenView::setDay(int)
    datetimesettingsscreenview.o(i._ZN26dateTimeSettingsScreenView16dayDecBtnClickedEv) refers to datetimesettingsscreenpresenter.o(i._ZN31dateTimeSettingsScreenPresenter9changeDayEi) for dateTimeSettingsScreenPresenter::changeDay(int)
    datetimesettingsscreenview.o(i._ZN26dateTimeSettingsScreenView16dayIncBtnClickedEv) refers to datetimesettingsscreenpresenter.o(i._ZN31dateTimeSettingsScreenPresenter6getDayEv) for dateTimeSettingsScreenPresenter::getDay()
    datetimesettingsscreenview.o(i._ZN26dateTimeSettingsScreenView16dayIncBtnClickedEv) refers to datetimesettingsscreenview.o(i._ZN26dateTimeSettingsScreenView6setDayEi) for dateTimeSettingsScreenView::setDay(int)
    datetimesettingsscreenview.o(i._ZN26dateTimeSettingsScreenView16dayIncBtnClickedEv) refers to datetimesettingsscreenpresenter.o(i._ZN31dateTimeSettingsScreenPresenter9changeDayEi) for dateTimeSettingsScreenPresenter::changeDay(int)
    datetimesettingsscreenview.o(i._ZN26dateTimeSettingsScreenView16minDecBtnClickedEv) refers to datetimesettingsscreenpresenter.o(i._ZN31dateTimeSettingsScreenPresenter6getMinEv) for dateTimeSettingsScreenPresenter::getMin()
    datetimesettingsscreenview.o(i._ZN26dateTimeSettingsScreenView16minDecBtnClickedEv) refers to datetimesettingsscreenview.o(i._ZN26dateTimeSettingsScreenView6setMinEi) for dateTimeSettingsScreenView::setMin(int)
    datetimesettingsscreenview.o(i._ZN26dateTimeSettingsScreenView16minDecBtnClickedEv) refers to datetimesettingsscreenpresenter.o(i._ZN31dateTimeSettingsScreenPresenter9changeMinEi) for dateTimeSettingsScreenPresenter::changeMin(int)
    datetimesettingsscreenview.o(i._ZN26dateTimeSettingsScreenView16minIncBtnClickedEv) refers to datetimesettingsscreenpresenter.o(i._ZN31dateTimeSettingsScreenPresenter6getMinEv) for dateTimeSettingsScreenPresenter::getMin()
    datetimesettingsscreenview.o(i._ZN26dateTimeSettingsScreenView16minIncBtnClickedEv) refers to datetimesettingsscreenview.o(i._ZN26dateTimeSettingsScreenView6setMinEi) for dateTimeSettingsScreenView::setMin(int)
    datetimesettingsscreenview.o(i._ZN26dateTimeSettingsScreenView16minIncBtnClickedEv) refers to datetimesettingsscreenpresenter.o(i._ZN31dateTimeSettingsScreenPresenter9changeMinEi) for dateTimeSettingsScreenPresenter::changeMin(int)
    datetimesettingsscreenview.o(i._ZN26dateTimeSettingsScreenView17hourDecBtnClickedEv) refers to datetimesettingsscreenpresenter.o(i._ZN31dateTimeSettingsScreenPresenter7getHourEv) for dateTimeSettingsScreenPresenter::getHour()
    datetimesettingsscreenview.o(i._ZN26dateTimeSettingsScreenView17hourDecBtnClickedEv) refers to datetimesettingsscreenview.o(i._ZN26dateTimeSettingsScreenView7setHourEi) for dateTimeSettingsScreenView::setHour(int)
    datetimesettingsscreenview.o(i._ZN26dateTimeSettingsScreenView17hourDecBtnClickedEv) refers to datetimesettingsscreenpresenter.o(i._ZN31dateTimeSettingsScreenPresenter10changeHourEi) for dateTimeSettingsScreenPresenter::changeHour(int)
    datetimesettingsscreenview.o(i._ZN26dateTimeSettingsScreenView17hourIncBtnClickedEv) refers to datetimesettingsscreenpresenter.o(i._ZN31dateTimeSettingsScreenPresenter7getHourEv) for dateTimeSettingsScreenPresenter::getHour()
    datetimesettingsscreenview.o(i._ZN26dateTimeSettingsScreenView17hourIncBtnClickedEv) refers to datetimesettingsscreenview.o(i._ZN26dateTimeSettingsScreenView7setHourEi) for dateTimeSettingsScreenView::setHour(int)
    datetimesettingsscreenview.o(i._ZN26dateTimeSettingsScreenView17hourIncBtnClickedEv) refers to datetimesettingsscreenpresenter.o(i._ZN31dateTimeSettingsScreenPresenter10changeHourEi) for dateTimeSettingsScreenPresenter::changeHour(int)
    datetimesettingsscreenview.o(i._ZN26dateTimeSettingsScreenView17yearDecBtnClickedEv) refers to datetimesettingsscreenpresenter.o(i._ZN31dateTimeSettingsScreenPresenter7getYearEv) for dateTimeSettingsScreenPresenter::getYear()
    datetimesettingsscreenview.o(i._ZN26dateTimeSettingsScreenView17yearDecBtnClickedEv) refers to datetimesettingsscreenview.o(i._ZN26dateTimeSettingsScreenView7setYearEi) for dateTimeSettingsScreenView::setYear(int)
    datetimesettingsscreenview.o(i._ZN26dateTimeSettingsScreenView17yearDecBtnClickedEv) refers to datetimesettingsscreenpresenter.o(i._ZN31dateTimeSettingsScreenPresenter10changeYearEi) for dateTimeSettingsScreenPresenter::changeYear(int)
    datetimesettingsscreenview.o(i._ZN26dateTimeSettingsScreenView17yearIncBtnClickedEv) refers to datetimesettingsscreenpresenter.o(i._ZN31dateTimeSettingsScreenPresenter7getYearEv) for dateTimeSettingsScreenPresenter::getYear()
    datetimesettingsscreenview.o(i._ZN26dateTimeSettingsScreenView17yearIncBtnClickedEv) refers to datetimesettingsscreenview.o(i._ZN26dateTimeSettingsScreenView7setYearEi) for dateTimeSettingsScreenView::setYear(int)
    datetimesettingsscreenview.o(i._ZN26dateTimeSettingsScreenView17yearIncBtnClickedEv) refers to datetimesettingsscreenpresenter.o(i._ZN31dateTimeSettingsScreenPresenter10changeYearEi) for dateTimeSettingsScreenPresenter::changeYear(int)
    datetimesettingsscreenview.o(i._ZN26dateTimeSettingsScreenView18monthDecBtnClickedEv) refers to datetimesettingsscreenpresenter.o(i._ZN31dateTimeSettingsScreenPresenter8getMonthEv) for dateTimeSettingsScreenPresenter::getMonth()
    datetimesettingsscreenview.o(i._ZN26dateTimeSettingsScreenView18monthDecBtnClickedEv) refers to datetimesettingsscreenview.o(i._ZN26dateTimeSettingsScreenView8setMonthEi) for dateTimeSettingsScreenView::setMonth(int)
    datetimesettingsscreenview.o(i._ZN26dateTimeSettingsScreenView18monthDecBtnClickedEv) refers to datetimesettingsscreenpresenter.o(i._ZN31dateTimeSettingsScreenPresenter11changeMonthEi) for dateTimeSettingsScreenPresenter::changeMonth(int)
    datetimesettingsscreenview.o(i._ZN26dateTimeSettingsScreenView18monthIncBtnClickedEv) refers to datetimesettingsscreenpresenter.o(i._ZN31dateTimeSettingsScreenPresenter8getMonthEv) for dateTimeSettingsScreenPresenter::getMonth()
    datetimesettingsscreenview.o(i._ZN26dateTimeSettingsScreenView18monthIncBtnClickedEv) refers to datetimesettingsscreenview.o(i._ZN26dateTimeSettingsScreenView8setMonthEi) for dateTimeSettingsScreenView::setMonth(int)
    datetimesettingsscreenview.o(i._ZN26dateTimeSettingsScreenView18monthIncBtnClickedEv) refers to datetimesettingsscreenpresenter.o(i._ZN31dateTimeSettingsScreenPresenter11changeMonthEi) for dateTimeSettingsScreenPresenter::changeMonth(int)
    datetimesettingsscreenview.o(i._ZN26dateTimeSettingsScreenView6setDayEi) refers to unicode.o(i._ZN8touchgfx7Unicode8snprintfEPttPKcz) for touchgfx::Unicode::snprintf(unsigned short*, unsigned short, const char*, ...)
    datetimesettingsscreenview.o(i._ZN26dateTimeSettingsScreenView6setDayEi) refers to drawable.o(i._ZNK8touchgfx8Drawable10invalidateEv) for touchgfx::Drawable::invalidate() const
    datetimesettingsscreenview.o(i._ZN26dateTimeSettingsScreenView6setMinEi) refers to unicode.o(i._ZN8touchgfx7Unicode8snprintfEPttPKcz) for touchgfx::Unicode::snprintf(unsigned short*, unsigned short, const char*, ...)
    datetimesettingsscreenview.o(i._ZN26dateTimeSettingsScreenView6setMinEi) refers to drawable.o(i._ZNK8touchgfx8Drawable10invalidateEv) for touchgfx::Drawable::invalidate() const
    datetimesettingsscreenview.o(i._ZN26dateTimeSettingsScreenView7setHourEi) refers to unicode.o(i._ZN8touchgfx7Unicode8snprintfEPttPKcz) for touchgfx::Unicode::snprintf(unsigned short*, unsigned short, const char*, ...)
    datetimesettingsscreenview.o(i._ZN26dateTimeSettingsScreenView7setHourEi) refers to drawable.o(i._ZNK8touchgfx8Drawable10invalidateEv) for touchgfx::Drawable::invalidate() const
    datetimesettingsscreenview.o(i._ZN26dateTimeSettingsScreenView7setYearEi) refers to unicode.o(i._ZN8touchgfx7Unicode8snprintfEPttPKcz) for touchgfx::Unicode::snprintf(unsigned short*, unsigned short, const char*, ...)
    datetimesettingsscreenview.o(i._ZN26dateTimeSettingsScreenView7setYearEi) refers to drawable.o(i._ZNK8touchgfx8Drawable10invalidateEv) for touchgfx::Drawable::invalidate() const
    datetimesettingsscreenview.o(i._ZN26dateTimeSettingsScreenView8setMonthEi) refers to unicode.o(i._ZN8touchgfx7Unicode8snprintfEPttPKcz) for touchgfx::Unicode::snprintf(unsigned short*, unsigned short, const char*, ...)
    datetimesettingsscreenview.o(i._ZN26dateTimeSettingsScreenView8setMonthEi) refers to drawable.o(i._ZNK8touchgfx8Drawable10invalidateEv) for touchgfx::Drawable::invalidate() const
    datetimesettingsscreenview.o(i._ZN26dateTimeSettingsScreenViewC1Ev) refers to datetimesettingsscreenviewbase.o(i._ZN30dateTimeSettingsScreenViewBaseC1Ev) for dateTimeSettingsScreenViewBase::dateTimeSettingsScreenViewBase()
    datetimesettingsscreenview.o(i._ZN26dateTimeSettingsScreenViewC1Ev) refers to datetimesettingsscreenview.o(.constdata__ZTV26dateTimeSettingsScreenView) for vtable for dateTimeSettingsScreenView
    datetimesettingsscreenview.o(.ARM.exidx) refers to datetimesettingsscreenview.o(i._ZN26dateTimeSettingsScreenViewC1Ev) for i._ZN26dateTimeSettingsScreenViewC1Ev
    datetimesettingsscreenview.o(.ARM.exidx) refers to datetimesettingsscreenview.o(i._ZN26dateTimeSettingsScreenView6setMinEi) for i._ZN26dateTimeSettingsScreenView6setMinEi
    datetimesettingsscreenview.o(.ARM.exidx) refers to datetimesettingsscreenview.o(i._ZN26dateTimeSettingsScreenView7setHourEi) for i._ZN26dateTimeSettingsScreenView7setHourEi
    datetimesettingsscreenview.o(.ARM.exidx) refers to datetimesettingsscreenview.o(i._ZN26dateTimeSettingsScreenView6setDayEi) for i._ZN26dateTimeSettingsScreenView6setDayEi
    datetimesettingsscreenview.o(.ARM.exidx) refers to datetimesettingsscreenview.o(i._ZN26dateTimeSettingsScreenView8setMonthEi) for i._ZN26dateTimeSettingsScreenView8setMonthEi
    datetimesettingsscreenview.o(.ARM.exidx) refers to datetimesettingsscreenview.o(i._ZN26dateTimeSettingsScreenView7setYearEi) for i._ZN26dateTimeSettingsScreenView7setYearEi
    datetimesettingsscreenview.o(.ARM.exidx) refers to datetimesettingsscreenview.o(i._ZN26dateTimeSettingsScreenView11setupScreenEv) for i._ZN26dateTimeSettingsScreenView11setupScreenEv
    datetimesettingsscreenview.o(.ARM.exidx) refers to datetimesettingsscreenview.o(i._ZN26dateTimeSettingsScreenView14tearDownScreenEv) for i._ZN26dateTimeSettingsScreenView14tearDownScreenEv
    datetimesettingsscreenview.o(.ARM.exidx) refers to datetimesettingsscreenview.o(i._ZN26dateTimeSettingsScreenView17hourDecBtnClickedEv) for i._ZN26dateTimeSettingsScreenView17hourDecBtnClickedEv
    datetimesettingsscreenview.o(.ARM.exidx) refers to datetimesettingsscreenview.o(i._ZN26dateTimeSettingsScreenView17hourIncBtnClickedEv) for i._ZN26dateTimeSettingsScreenView17hourIncBtnClickedEv
    datetimesettingsscreenview.o(.ARM.exidx) refers to datetimesettingsscreenview.o(i._ZN26dateTimeSettingsScreenView16minDecBtnClickedEv) for i._ZN26dateTimeSettingsScreenView16minDecBtnClickedEv
    datetimesettingsscreenview.o(.ARM.exidx) refers to datetimesettingsscreenview.o(i._ZN26dateTimeSettingsScreenView16minIncBtnClickedEv) for i._ZN26dateTimeSettingsScreenView16minIncBtnClickedEv
    datetimesettingsscreenview.o(.ARM.exidx) refers to datetimesettingsscreenview.o(i._ZN26dateTimeSettingsScreenView17yearDecBtnClickedEv) for i._ZN26dateTimeSettingsScreenView17yearDecBtnClickedEv
    datetimesettingsscreenview.o(.ARM.exidx) refers to datetimesettingsscreenview.o(i._ZN26dateTimeSettingsScreenView17yearIncBtnClickedEv) for i._ZN26dateTimeSettingsScreenView17yearIncBtnClickedEv
    datetimesettingsscreenview.o(.ARM.exidx) refers to datetimesettingsscreenview.o(i._ZN26dateTimeSettingsScreenView18monthDecBtnClickedEv) for i._ZN26dateTimeSettingsScreenView18monthDecBtnClickedEv
    datetimesettingsscreenview.o(.ARM.exidx) refers to datetimesettingsscreenview.o(i._ZN26dateTimeSettingsScreenView18monthIncBtnClickedEv) for i._ZN26dateTimeSettingsScreenView18monthIncBtnClickedEv
    datetimesettingsscreenview.o(.ARM.exidx) refers to datetimesettingsscreenview.o(i._ZN26dateTimeSettingsScreenView16dayDecBtnClickedEv) for i._ZN26dateTimeSettingsScreenView16dayDecBtnClickedEv
    datetimesettingsscreenview.o(.ARM.exidx) refers to datetimesettingsscreenview.o(i._ZN26dateTimeSettingsScreenView16dayIncBtnClickedEv) for i._ZN26dateTimeSettingsScreenView16dayIncBtnClickedEv
    daynightsettingsscreenpresenter.o(i._ZN31dayNightSettingsScreenPresenter12getDayEndMinEv) refers to model.o(i._ZN5Model12getDayEndMinEv) for Model::getDayEndMin()
    daynightsettingsscreenpresenter.o(i._ZN31dayNightSettingsScreenPresenter13getDayEndHourEv) refers to model.o(i._ZN5Model13getDayEndHourEv) for Model::getDayEndHour()
    daynightsettingsscreenpresenter.o(i._ZN31dayNightSettingsScreenPresenter14getDayBeginMinEv) refers to model.o(i._ZN5Model14getDayBeginMinEv) for Model::getDayBeginMin()
    daynightsettingsscreenpresenter.o(i._ZN31dayNightSettingsScreenPresenter15changeDayEndMinEi) refers to model.o(i._ZN5Model15changeDayEndMinEi) for Model::changeDayEndMin(int)
    daynightsettingsscreenpresenter.o(i._ZN31dayNightSettingsScreenPresenter15getDayBeginHourEv) refers to model.o(i._ZN5Model15getDayBeginHourEv) for Model::getDayBeginHour()
    daynightsettingsscreenpresenter.o(i._ZN31dayNightSettingsScreenPresenter16changeDayEndHourEi) refers to model.o(i._ZN5Model16changeDayEndHourEi) for Model::changeDayEndHour(int)
    daynightsettingsscreenpresenter.o(i._ZN31dayNightSettingsScreenPresenter17changeDayBeginMinEi) refers to model.o(i._ZN5Model17changeDayBeginMinEi) for Model::changeDayBeginMin(int)
    daynightsettingsscreenpresenter.o(i._ZN31dayNightSettingsScreenPresenter18changeDayBeginHourEi) refers to model.o(i._ZN5Model18changeDayBeginHourEi) for Model::changeDayBeginHour(int)
    daynightsettingsscreenpresenter.o(i._ZN31dayNightSettingsScreenPresenterC1ER26dayNightSettingsScreenView) refers to datetimesettingsscreenpresenter.o(.constdata__ZTVN8touchgfx9PresenterE) for vtable for touchgfx::Presenter
    daynightsettingsscreenpresenter.o(i._ZN31dayNightSettingsScreenPresenterC1ER26dayNightSettingsScreenView) refers to datetimesettingsscreenpresenter.o(.constdata__ZTV13ModelListener) for vtable for ModelListener
    daynightsettingsscreenpresenter.o(i._ZN31dayNightSettingsScreenPresenterC1ER26dayNightSettingsScreenView) refers to daynightsettingsscreenpresenter.o(.constdata__ZTV31dayNightSettingsScreenPresenter) for vtable for dayNightSettingsScreenPresenter
    daynightsettingsscreenpresenter.o(.ARM.exidx) refers to daynightsettingsscreenpresenter.o(i._ZN31dayNightSettingsScreenPresenterC1ER26dayNightSettingsScreenView) for i._ZN31dayNightSettingsScreenPresenterC1ER26dayNightSettingsScreenView
    daynightsettingsscreenpresenter.o(.ARM.exidx) refers to daynightsettingsscreenpresenter.o(i._ZN31dayNightSettingsScreenPresenter8activateEv) for i._ZN31dayNightSettingsScreenPresenter8activateEv
    daynightsettingsscreenpresenter.o(.ARM.exidx) refers to daynightsettingsscreenpresenter.o(i._ZN31dayNightSettingsScreenPresenter10deactivateEv) for i._ZN31dayNightSettingsScreenPresenter10deactivateEv
    daynightsettingsscreenpresenter.o(.ARM.exidx) refers to daynightsettingsscreenpresenter.o(i._ZN31dayNightSettingsScreenPresenter18changeDayBeginHourEi) for i._ZN31dayNightSettingsScreenPresenter18changeDayBeginHourEi
    daynightsettingsscreenpresenter.o(.ARM.exidx) refers to daynightsettingsscreenpresenter.o(i._ZN31dayNightSettingsScreenPresenter17changeDayBeginMinEi) for i._ZN31dayNightSettingsScreenPresenter17changeDayBeginMinEi
    daynightsettingsscreenpresenter.o(.ARM.exidx) refers to daynightsettingsscreenpresenter.o(i._ZN31dayNightSettingsScreenPresenter16changeDayEndHourEi) for i._ZN31dayNightSettingsScreenPresenter16changeDayEndHourEi
    daynightsettingsscreenpresenter.o(.ARM.exidx) refers to daynightsettingsscreenpresenter.o(i._ZN31dayNightSettingsScreenPresenter15changeDayEndMinEi) for i._ZN31dayNightSettingsScreenPresenter15changeDayEndMinEi
    daynightsettingsscreenpresenter.o(.ARM.exidx) refers to daynightsettingsscreenpresenter.o(i._ZN31dayNightSettingsScreenPresenter15getDayBeginHourEv) for i._ZN31dayNightSettingsScreenPresenter15getDayBeginHourEv
    daynightsettingsscreenpresenter.o(.ARM.exidx) refers to daynightsettingsscreenpresenter.o(i._ZN31dayNightSettingsScreenPresenter14getDayBeginMinEv) for i._ZN31dayNightSettingsScreenPresenter14getDayBeginMinEv
    daynightsettingsscreenpresenter.o(.ARM.exidx) refers to daynightsettingsscreenpresenter.o(i._ZN31dayNightSettingsScreenPresenter13getDayEndHourEv) for i._ZN31dayNightSettingsScreenPresenter13getDayEndHourEv
    daynightsettingsscreenpresenter.o(.ARM.exidx) refers to daynightsettingsscreenpresenter.o(i._ZN31dayNightSettingsScreenPresenter12getDayEndMinEv) for i._ZN31dayNightSettingsScreenPresenter12getDayEndMinEv
    daynightsettingsscreenview.o(i._ZN26dayNightSettingsScreenView11setDayBeginEii) refers to unicode.o(i._ZN8touchgfx7Unicode8snprintfEPttPKcz) for touchgfx::Unicode::snprintf(unsigned short*, unsigned short, const char*, ...)
    daynightsettingsscreenview.o(i._ZN26dayNightSettingsScreenView11setDayBeginEii) refers to drawable.o(i._ZNK8touchgfx8Drawable10invalidateEv) for touchgfx::Drawable::invalidate() const
    daynightsettingsscreenview.o(i._ZN26dayNightSettingsScreenView11setupScreenEv) refers to daynightsettingsscreenpresenter.o(i._ZN31dayNightSettingsScreenPresenter14getDayBeginMinEv) for dayNightSettingsScreenPresenter::getDayBeginMin()
    daynightsettingsscreenview.o(i._ZN26dayNightSettingsScreenView11setupScreenEv) refers to daynightsettingsscreenpresenter.o(i._ZN31dayNightSettingsScreenPresenter15getDayBeginHourEv) for dayNightSettingsScreenPresenter::getDayBeginHour()
    daynightsettingsscreenview.o(i._ZN26dayNightSettingsScreenView11setupScreenEv) refers to daynightsettingsscreenview.o(i._ZN26dayNightSettingsScreenView11setDayBeginEii) for dayNightSettingsScreenView::setDayBegin(int, int)
    daynightsettingsscreenview.o(i._ZN26dayNightSettingsScreenView11setupScreenEv) refers to daynightsettingsscreenpresenter.o(i._ZN31dayNightSettingsScreenPresenter12getDayEndMinEv) for dayNightSettingsScreenPresenter::getDayEndMin()
    daynightsettingsscreenview.o(i._ZN26dayNightSettingsScreenView11setupScreenEv) refers to daynightsettingsscreenpresenter.o(i._ZN31dayNightSettingsScreenPresenter13getDayEndHourEv) for dayNightSettingsScreenPresenter::getDayEndHour()
    daynightsettingsscreenview.o(i._ZN26dayNightSettingsScreenView11setupScreenEv) refers to daynightsettingsscreenview.o(i._ZN26dayNightSettingsScreenView9setDayEndEii) for dayNightSettingsScreenView::setDayEnd(int, int)
    daynightsettingsscreenview.o(i._ZN26dayNightSettingsScreenView22dayEndMinDecBtnClickedEv) refers to daynightsettingsscreenpresenter.o(i._ZN31dayNightSettingsScreenPresenter12getDayEndMinEv) for dayNightSettingsScreenPresenter::getDayEndMin()
    daynightsettingsscreenview.o(i._ZN26dayNightSettingsScreenView22dayEndMinDecBtnClickedEv) refers to daynightsettingsscreenpresenter.o(i._ZN31dayNightSettingsScreenPresenter13getDayEndHourEv) for dayNightSettingsScreenPresenter::getDayEndHour()
    daynightsettingsscreenview.o(i._ZN26dayNightSettingsScreenView22dayEndMinDecBtnClickedEv) refers to daynightsettingsscreenview.o(i._ZN26dayNightSettingsScreenView9setDayEndEii) for dayNightSettingsScreenView::setDayEnd(int, int)
    daynightsettingsscreenview.o(i._ZN26dayNightSettingsScreenView22dayEndMinDecBtnClickedEv) refers to daynightsettingsscreenpresenter.o(i._ZN31dayNightSettingsScreenPresenter15changeDayEndMinEi) for dayNightSettingsScreenPresenter::changeDayEndMin(int)
    daynightsettingsscreenview.o(i._ZN26dayNightSettingsScreenView22dayEndMinIncBtnClickedEv) refers to daynightsettingsscreenpresenter.o(i._ZN31dayNightSettingsScreenPresenter12getDayEndMinEv) for dayNightSettingsScreenPresenter::getDayEndMin()
    daynightsettingsscreenview.o(i._ZN26dayNightSettingsScreenView22dayEndMinIncBtnClickedEv) refers to daynightsettingsscreenpresenter.o(i._ZN31dayNightSettingsScreenPresenter13getDayEndHourEv) for dayNightSettingsScreenPresenter::getDayEndHour()
    daynightsettingsscreenview.o(i._ZN26dayNightSettingsScreenView22dayEndMinIncBtnClickedEv) refers to daynightsettingsscreenview.o(i._ZN26dayNightSettingsScreenView9setDayEndEii) for dayNightSettingsScreenView::setDayEnd(int, int)
    daynightsettingsscreenview.o(i._ZN26dayNightSettingsScreenView22dayEndMinIncBtnClickedEv) refers to daynightsettingsscreenpresenter.o(i._ZN31dayNightSettingsScreenPresenter15changeDayEndMinEi) for dayNightSettingsScreenPresenter::changeDayEndMin(int)
    daynightsettingsscreenview.o(i._ZN26dayNightSettingsScreenView23dayEndHourDecBtnClickedEv) refers to daynightsettingsscreenpresenter.o(i._ZN31dayNightSettingsScreenPresenter13getDayEndHourEv) for dayNightSettingsScreenPresenter::getDayEndHour()
    daynightsettingsscreenview.o(i._ZN26dayNightSettingsScreenView23dayEndHourDecBtnClickedEv) refers to daynightsettingsscreenpresenter.o(i._ZN31dayNightSettingsScreenPresenter12getDayEndMinEv) for dayNightSettingsScreenPresenter::getDayEndMin()
    daynightsettingsscreenview.o(i._ZN26dayNightSettingsScreenView23dayEndHourDecBtnClickedEv) refers to daynightsettingsscreenview.o(i._ZN26dayNightSettingsScreenView9setDayEndEii) for dayNightSettingsScreenView::setDayEnd(int, int)
    daynightsettingsscreenview.o(i._ZN26dayNightSettingsScreenView23dayEndHourDecBtnClickedEv) refers to daynightsettingsscreenpresenter.o(i._ZN31dayNightSettingsScreenPresenter16changeDayEndHourEi) for dayNightSettingsScreenPresenter::changeDayEndHour(int)
    daynightsettingsscreenview.o(i._ZN26dayNightSettingsScreenView23dayEndHourIncBtnClickedEv) refers to daynightsettingsscreenpresenter.o(i._ZN31dayNightSettingsScreenPresenter13getDayEndHourEv) for dayNightSettingsScreenPresenter::getDayEndHour()
    daynightsettingsscreenview.o(i._ZN26dayNightSettingsScreenView23dayEndHourIncBtnClickedEv) refers to daynightsettingsscreenpresenter.o(i._ZN31dayNightSettingsScreenPresenter12getDayEndMinEv) for dayNightSettingsScreenPresenter::getDayEndMin()
    daynightsettingsscreenview.o(i._ZN26dayNightSettingsScreenView23dayEndHourIncBtnClickedEv) refers to daynightsettingsscreenview.o(i._ZN26dayNightSettingsScreenView9setDayEndEii) for dayNightSettingsScreenView::setDayEnd(int, int)
    daynightsettingsscreenview.o(i._ZN26dayNightSettingsScreenView23dayEndHourIncBtnClickedEv) refers to daynightsettingsscreenpresenter.o(i._ZN31dayNightSettingsScreenPresenter16changeDayEndHourEi) for dayNightSettingsScreenPresenter::changeDayEndHour(int)
    daynightsettingsscreenview.o(i._ZN26dayNightSettingsScreenView24dayBeginMinDecBtnClickedEv) refers to daynightsettingsscreenpresenter.o(i._ZN31dayNightSettingsScreenPresenter14getDayBeginMinEv) for dayNightSettingsScreenPresenter::getDayBeginMin()
    daynightsettingsscreenview.o(i._ZN26dayNightSettingsScreenView24dayBeginMinDecBtnClickedEv) refers to daynightsettingsscreenpresenter.o(i._ZN31dayNightSettingsScreenPresenter15getDayBeginHourEv) for dayNightSettingsScreenPresenter::getDayBeginHour()
    daynightsettingsscreenview.o(i._ZN26dayNightSettingsScreenView24dayBeginMinDecBtnClickedEv) refers to daynightsettingsscreenview.o(i._ZN26dayNightSettingsScreenView11setDayBeginEii) for dayNightSettingsScreenView::setDayBegin(int, int)
    daynightsettingsscreenview.o(i._ZN26dayNightSettingsScreenView24dayBeginMinDecBtnClickedEv) refers to daynightsettingsscreenpresenter.o(i._ZN31dayNightSettingsScreenPresenter17changeDayBeginMinEi) for dayNightSettingsScreenPresenter::changeDayBeginMin(int)
    daynightsettingsscreenview.o(i._ZN26dayNightSettingsScreenView24dayBeginMinIncBtnClickedEv) refers to daynightsettingsscreenpresenter.o(i._ZN31dayNightSettingsScreenPresenter14getDayBeginMinEv) for dayNightSettingsScreenPresenter::getDayBeginMin()
    daynightsettingsscreenview.o(i._ZN26dayNightSettingsScreenView24dayBeginMinIncBtnClickedEv) refers to daynightsettingsscreenpresenter.o(i._ZN31dayNightSettingsScreenPresenter15getDayBeginHourEv) for dayNightSettingsScreenPresenter::getDayBeginHour()
    daynightsettingsscreenview.o(i._ZN26dayNightSettingsScreenView24dayBeginMinIncBtnClickedEv) refers to daynightsettingsscreenview.o(i._ZN26dayNightSettingsScreenView11setDayBeginEii) for dayNightSettingsScreenView::setDayBegin(int, int)
    daynightsettingsscreenview.o(i._ZN26dayNightSettingsScreenView24dayBeginMinIncBtnClickedEv) refers to daynightsettingsscreenpresenter.o(i._ZN31dayNightSettingsScreenPresenter17changeDayBeginMinEi) for dayNightSettingsScreenPresenter::changeDayBeginMin(int)
    daynightsettingsscreenview.o(i._ZN26dayNightSettingsScreenView25dayBeginHourDecBtnClickedEv) refers to daynightsettingsscreenpresenter.o(i._ZN31dayNightSettingsScreenPresenter15getDayBeginHourEv) for dayNightSettingsScreenPresenter::getDayBeginHour()
    daynightsettingsscreenview.o(i._ZN26dayNightSettingsScreenView25dayBeginHourDecBtnClickedEv) refers to daynightsettingsscreenpresenter.o(i._ZN31dayNightSettingsScreenPresenter14getDayBeginMinEv) for dayNightSettingsScreenPresenter::getDayBeginMin()
    daynightsettingsscreenview.o(i._ZN26dayNightSettingsScreenView25dayBeginHourDecBtnClickedEv) refers to daynightsettingsscreenview.o(i._ZN26dayNightSettingsScreenView11setDayBeginEii) for dayNightSettingsScreenView::setDayBegin(int, int)
    daynightsettingsscreenview.o(i._ZN26dayNightSettingsScreenView25dayBeginHourDecBtnClickedEv) refers to daynightsettingsscreenpresenter.o(i._ZN31dayNightSettingsScreenPresenter18changeDayBeginHourEi) for dayNightSettingsScreenPresenter::changeDayBeginHour(int)
    daynightsettingsscreenview.o(i._ZN26dayNightSettingsScreenView25dayBeginHourIncBtnClickedEv) refers to daynightsettingsscreenpresenter.o(i._ZN31dayNightSettingsScreenPresenter15getDayBeginHourEv) for dayNightSettingsScreenPresenter::getDayBeginHour()
    daynightsettingsscreenview.o(i._ZN26dayNightSettingsScreenView25dayBeginHourIncBtnClickedEv) refers to daynightsettingsscreenpresenter.o(i._ZN31dayNightSettingsScreenPresenter14getDayBeginMinEv) for dayNightSettingsScreenPresenter::getDayBeginMin()
    daynightsettingsscreenview.o(i._ZN26dayNightSettingsScreenView25dayBeginHourIncBtnClickedEv) refers to daynightsettingsscreenview.o(i._ZN26dayNightSettingsScreenView11setDayBeginEii) for dayNightSettingsScreenView::setDayBegin(int, int)
    daynightsettingsscreenview.o(i._ZN26dayNightSettingsScreenView25dayBeginHourIncBtnClickedEv) refers to daynightsettingsscreenpresenter.o(i._ZN31dayNightSettingsScreenPresenter18changeDayBeginHourEi) for dayNightSettingsScreenPresenter::changeDayBeginHour(int)
    daynightsettingsscreenview.o(i._ZN26dayNightSettingsScreenView9setDayEndEii) refers to unicode.o(i._ZN8touchgfx7Unicode8snprintfEPttPKcz) for touchgfx::Unicode::snprintf(unsigned short*, unsigned short, const char*, ...)
    daynightsettingsscreenview.o(i._ZN26dayNightSettingsScreenView9setDayEndEii) refers to drawable.o(i._ZNK8touchgfx8Drawable10invalidateEv) for touchgfx::Drawable::invalidate() const
    daynightsettingsscreenview.o(i._ZN26dayNightSettingsScreenViewC1Ev) refers to daynightsettingsscreenviewbase.o(i._ZN30dayNightSettingsScreenViewBaseC1Ev) for dayNightSettingsScreenViewBase::dayNightSettingsScreenViewBase()
    daynightsettingsscreenview.o(i._ZN26dayNightSettingsScreenViewC1Ev) refers to daynightsettingsscreenview.o(.constdata__ZTV26dayNightSettingsScreenView) for vtable for dayNightSettingsScreenView
    daynightsettingsscreenview.o(.ARM.exidx) refers to daynightsettingsscreenview.o(i._ZN26dayNightSettingsScreenViewC1Ev) for i._ZN26dayNightSettingsScreenViewC1Ev
    daynightsettingsscreenview.o(.ARM.exidx) refers to daynightsettingsscreenview.o(i._ZN26dayNightSettingsScreenView9setDayEndEii) for i._ZN26dayNightSettingsScreenView9setDayEndEii
    daynightsettingsscreenview.o(.ARM.exidx) refers to daynightsettingsscreenview.o(i._ZN26dayNightSettingsScreenView11setDayBeginEii) for i._ZN26dayNightSettingsScreenView11setDayBeginEii
    daynightsettingsscreenview.o(.ARM.exidx) refers to daynightsettingsscreenview.o(i._ZN26dayNightSettingsScreenView11setupScreenEv) for i._ZN26dayNightSettingsScreenView11setupScreenEv
    daynightsettingsscreenview.o(.ARM.exidx) refers to daynightsettingsscreenview.o(i._ZN26dayNightSettingsScreenView14tearDownScreenEv) for i._ZN26dayNightSettingsScreenView14tearDownScreenEv
    daynightsettingsscreenview.o(.ARM.exidx) refers to daynightsettingsscreenview.o(i._ZN26dayNightSettingsScreenView25dayBeginHourDecBtnClickedEv) for i._ZN26dayNightSettingsScreenView25dayBeginHourDecBtnClickedEv
    daynightsettingsscreenview.o(.ARM.exidx) refers to daynightsettingsscreenview.o(i._ZN26dayNightSettingsScreenView25dayBeginHourIncBtnClickedEv) for i._ZN26dayNightSettingsScreenView25dayBeginHourIncBtnClickedEv
    daynightsettingsscreenview.o(.ARM.exidx) refers to daynightsettingsscreenview.o(i._ZN26dayNightSettingsScreenView24dayBeginMinDecBtnClickedEv) for i._ZN26dayNightSettingsScreenView24dayBeginMinDecBtnClickedEv
    daynightsettingsscreenview.o(.ARM.exidx) refers to daynightsettingsscreenview.o(i._ZN26dayNightSettingsScreenView24dayBeginMinIncBtnClickedEv) for i._ZN26dayNightSettingsScreenView24dayBeginMinIncBtnClickedEv
    daynightsettingsscreenview.o(.ARM.exidx) refers to daynightsettingsscreenview.o(i._ZN26dayNightSettingsScreenView23dayEndHourDecBtnClickedEv) for i._ZN26dayNightSettingsScreenView23dayEndHourDecBtnClickedEv
    daynightsettingsscreenview.o(.ARM.exidx) refers to daynightsettingsscreenview.o(i._ZN26dayNightSettingsScreenView23dayEndHourIncBtnClickedEv) for i._ZN26dayNightSettingsScreenView23dayEndHourIncBtnClickedEv
    daynightsettingsscreenview.o(.ARM.exidx) refers to daynightsettingsscreenview.o(i._ZN26dayNightSettingsScreenView22dayEndMinDecBtnClickedEv) for i._ZN26dayNightSettingsScreenView22dayEndMinDecBtnClickedEv
    daynightsettingsscreenview.o(.ARM.exidx) refers to daynightsettingsscreenview.o(i._ZN26dayNightSettingsScreenView22dayEndMinIncBtnClickedEv) for i._ZN26dayNightSettingsScreenView22dayEndMinIncBtnClickedEv
    frontendapplication.o(i._ZN19FrontendApplicationC1ER5ModelR12FrontendHeap) refers to frontendapplicationbase.o(i._ZN23FrontendApplicationBaseC1ER5ModelR12FrontendHeap) for FrontendApplicationBase::FrontendApplicationBase(Model&, FrontendHeap&)
    frontendapplication.o(i._ZN19FrontendApplicationC1ER5ModelR12FrontendHeap) refers to frontendapplication.o(.constdata__ZTV19FrontendApplication) for vtable for FrontendApplication
    frontendapplication.o(.ARM.exidx) refers to frontendapplication.o(i._ZN19FrontendApplicationC1ER5ModelR12FrontendHeap) for i._ZN19FrontendApplicationC1ER5ModelR12FrontendHeap
    mainscreenpresenter.o(i._ZN19mainScreenPresenter11dateChangedEiiiii) refers to mainscreenview.o(i._ZN14mainScreenView7setDateEiiiii) for mainScreenView::setDate(int, int, int, int, int)
    mainscreenpresenter.o(i._ZN19mainScreenPresenter11getHumidityEv) refers to model.o(i._ZN5Model11getHumidityEv) for Model::getHumidity()
    mainscreenpresenter.o(i._ZN19mainScreenPresenter14getHeatOpStateEv) refers to model.o(i._ZN5Model14getHeatOpStateEv) for Model::getHeatOpState()
    mainscreenpresenter.o(i._ZN19mainScreenPresenter14getHumiOpStateEv) refers to model.o(i._ZN5Model14getHumiOpStateEv) for Model::getHumiOpState()
    mainscreenpresenter.o(i._ZN19mainScreenPresenter14getTemperatureEv) refers to model.o(i._ZN5Model14getTemperatureEv) for Model::getTemperature()
    mainscreenpresenter.o(i._ZN19mainScreenPresenter15getLightOpStateEv) refers to model.o(i._ZN5Model15getLightOpStateEv) for Model::getLightOpState()
    mainscreenpresenter.o(i._ZN19mainScreenPresenter15humidityChangedEi) refers to mainscreenview.o(i._ZN14mainScreenView11setHumidityEi) for mainScreenView::setHumidity(int)
    mainscreenpresenter.o(i._ZN19mainScreenPresenter17changeHeatOpStateEb) refers to model.o(i._ZN5Model17changeHeatOpStateEb) for Model::changeHeatOpState(bool)
    mainscreenpresenter.o(i._ZN19mainScreenPresenter17changeHumiOpStateEb) refers to model.o(i._ZN5Model17changeHumiOpStateEb) for Model::changeHumiOpState(bool)
    mainscreenpresenter.o(i._ZN19mainScreenPresenter18changeLightOpStateEb) refers to model.o(i._ZN5Model18changeLightOpStateEb) for Model::changeLightOpState(bool)
    mainscreenpresenter.o(i._ZN19mainScreenPresenter18heatOpStateChangedEb) refers to mainscreenview.o(i._ZN14mainScreenView19setHeaterOpBtnStateEb) for mainScreenView::setHeaterOpBtnState(bool)
    mainscreenpresenter.o(i._ZN19mainScreenPresenter18humiOpStateChangedEb) refers to mainscreenview.o(i._ZN14mainScreenView17setHumiOpBtnStateEb) for mainScreenView::setHumiOpBtnState(bool)
    mainscreenpresenter.o(i._ZN19mainScreenPresenter18temperatureChangedEi) refers to mainscreenview.o(i._ZN14mainScreenView14setTemperatureEi) for mainScreenView::setTemperature(int)
    mainscreenpresenter.o(i._ZN19mainScreenPresenter19lightOpStateChangedEb) refers to mainscreenview.o(i._ZN14mainScreenView18setLightOpBtnStateEb) for mainScreenView::setLightOpBtnState(bool)
    mainscreenpresenter.o(i._ZN19mainScreenPresenter22getManualOverrideStateEv) refers to model.o(i._ZN5Model22getManualOverrideStateEv) for Model::getManualOverrideState()
    mainscreenpresenter.o(i._ZN19mainScreenPresenter25changeManualOverrideStateEb) refers to model.o(i._ZN5Model25changeManualOverrideStateEb) for Model::changeManualOverrideState(bool)
    mainscreenpresenter.o(i._ZN19mainScreenPresenter6getDayEv) refers to model.o(i._ZN5Model6getDayEv) for Model::getDay()
    mainscreenpresenter.o(i._ZN19mainScreenPresenter6getMinEv) refers to model.o(i._ZN5Model6getMinEv) for Model::getMin()
    mainscreenpresenter.o(i._ZN19mainScreenPresenter7getHourEv) refers to model.o(i._ZN5Model7getHourEv) for Model::getHour()
    mainscreenpresenter.o(i._ZN19mainScreenPresenter7getYearEv) refers to model.o(i._ZN5Model7getYearEv) for Model::getYear()
    mainscreenpresenter.o(i._ZN19mainScreenPresenter8getMonthEv) refers to model.o(i._ZN5Model8getMonthEv) for Model::getMonth()
    mainscreenpresenter.o(i._ZN19mainScreenPresenterC1ER14mainScreenView) refers to datetimesettingsscreenpresenter.o(.constdata__ZTVN8touchgfx9PresenterE) for vtable for touchgfx::Presenter
    mainscreenpresenter.o(i._ZN19mainScreenPresenterC1ER14mainScreenView) refers to datetimesettingsscreenpresenter.o(.constdata__ZTV13ModelListener) for vtable for ModelListener
    mainscreenpresenter.o(i._ZN19mainScreenPresenterC1ER14mainScreenView) refers to mainscreenpresenter.o(.constdata__ZTV19mainScreenPresenter) for vtable for mainScreenPresenter
    mainscreenpresenter.o(i._ZThn4_N19mainScreenPresenter11dateChangedEiiiii) refers to mainscreenview.o(i._ZN14mainScreenView7setDateEiiiii) for mainScreenView::setDate(int, int, int, int, int)
    mainscreenpresenter.o(i._ZThn4_N19mainScreenPresenter15humidityChangedEi) refers to mainscreenpresenter.o(i._ZN19mainScreenPresenter15humidityChangedEi) for mainScreenPresenter::humidityChanged(int)
    mainscreenpresenter.o(i._ZThn4_N19mainScreenPresenter18heatOpStateChangedEb) refers to mainscreenpresenter.o(i._ZN19mainScreenPresenter18heatOpStateChangedEb) for mainScreenPresenter::heatOpStateChanged(bool)
    mainscreenpresenter.o(i._ZThn4_N19mainScreenPresenter18humiOpStateChangedEb) refers to mainscreenpresenter.o(i._ZN19mainScreenPresenter18humiOpStateChangedEb) for mainScreenPresenter::humiOpStateChanged(bool)
    mainscreenpresenter.o(i._ZThn4_N19mainScreenPresenter18temperatureChangedEi) refers to mainscreenpresenter.o(i._ZN19mainScreenPresenter18temperatureChangedEi) for mainScreenPresenter::temperatureChanged(int)
    mainscreenpresenter.o(i._ZThn4_N19mainScreenPresenter19lightOpStateChangedEb) refers to mainscreenpresenter.o(i._ZN19mainScreenPresenter19lightOpStateChangedEb) for mainScreenPresenter::lightOpStateChanged(bool)
    mainscreenpresenter.o(.ARM.exidx) refers to mainscreenpresenter.o(i._ZN19mainScreenPresenterC1ER14mainScreenView) for i._ZN19mainScreenPresenterC1ER14mainScreenView
    mainscreenpresenter.o(.ARM.exidx) refers to mainscreenpresenter.o(i._ZN19mainScreenPresenter8activateEv) for i._ZN19mainScreenPresenter8activateEv
    mainscreenpresenter.o(.ARM.exidx) refers to mainscreenpresenter.o(i._ZN19mainScreenPresenter10deactivateEv) for i._ZN19mainScreenPresenter10deactivateEv
    mainscreenpresenter.o(.ARM.exidx) refers to mainscreenpresenter.o(i._ZN19mainScreenPresenter18temperatureChangedEi) for i._ZN19mainScreenPresenter18temperatureChangedEi
    mainscreenpresenter.o(.ARM.exidx) refers to mainscreenpresenter.o(i._ZThn4_N19mainScreenPresenter18temperatureChangedEi) for i._ZThn4_N19mainScreenPresenter18temperatureChangedEi
    mainscreenpresenter.o(.ARM.exidx) refers to mainscreenpresenter.o(i._ZN19mainScreenPresenter15humidityChangedEi) for i._ZN19mainScreenPresenter15humidityChangedEi
    mainscreenpresenter.o(.ARM.exidx) refers to mainscreenpresenter.o(i._ZThn4_N19mainScreenPresenter15humidityChangedEi) for i._ZThn4_N19mainScreenPresenter15humidityChangedEi
    mainscreenpresenter.o(.ARM.exidx) refers to mainscreenpresenter.o(i._ZN19mainScreenPresenter11dateChangedEiiiii) for i._ZN19mainScreenPresenter11dateChangedEiiiii
    mainscreenpresenter.o(.ARM.exidx) refers to mainscreenpresenter.o(i._ZThn4_N19mainScreenPresenter11dateChangedEiiiii) for i._ZThn4_N19mainScreenPresenter11dateChangedEiiiii
    mainscreenpresenter.o(.ARM.exidx) refers to mainscreenpresenter.o(i._ZN19mainScreenPresenter19lightOpStateChangedEb) for i._ZN19mainScreenPresenter19lightOpStateChangedEb
    mainscreenpresenter.o(.ARM.exidx) refers to mainscreenpresenter.o(i._ZThn4_N19mainScreenPresenter19lightOpStateChangedEb) for i._ZThn4_N19mainScreenPresenter19lightOpStateChangedEb
    mainscreenpresenter.o(.ARM.exidx) refers to mainscreenpresenter.o(i._ZN19mainScreenPresenter18humiOpStateChangedEb) for i._ZN19mainScreenPresenter18humiOpStateChangedEb
    mainscreenpresenter.o(.ARM.exidx) refers to mainscreenpresenter.o(i._ZThn4_N19mainScreenPresenter18humiOpStateChangedEb) for i._ZThn4_N19mainScreenPresenter18humiOpStateChangedEb
    mainscreenpresenter.o(.ARM.exidx) refers to mainscreenpresenter.o(i._ZN19mainScreenPresenter18heatOpStateChangedEb) for i._ZN19mainScreenPresenter18heatOpStateChangedEb
    mainscreenpresenter.o(.ARM.exidx) refers to mainscreenpresenter.o(i._ZThn4_N19mainScreenPresenter18heatOpStateChangedEb) for i._ZThn4_N19mainScreenPresenter18heatOpStateChangedEb
    mainscreenpresenter.o(.ARM.exidx) refers to mainscreenpresenter.o(i._ZN19mainScreenPresenter22getManualOverrideStateEv) for i._ZN19mainScreenPresenter22getManualOverrideStateEv
    mainscreenpresenter.o(.ARM.exidx) refers to mainscreenpresenter.o(i._ZN19mainScreenPresenter14getHumiOpStateEv) for i._ZN19mainScreenPresenter14getHumiOpStateEv
    mainscreenpresenter.o(.ARM.exidx) refers to mainscreenpresenter.o(i._ZN19mainScreenPresenter15getLightOpStateEv) for i._ZN19mainScreenPresenter15getLightOpStateEv
    mainscreenpresenter.o(.ARM.exidx) refers to mainscreenpresenter.o(i._ZN19mainScreenPresenter14getHeatOpStateEv) for i._ZN19mainScreenPresenter14getHeatOpStateEv
    mainscreenpresenter.o(.ARM.exidx) refers to mainscreenpresenter.o(i._ZN19mainScreenPresenter25changeManualOverrideStateEb) for i._ZN19mainScreenPresenter25changeManualOverrideStateEb
    mainscreenpresenter.o(.ARM.exidx) refers to mainscreenpresenter.o(i._ZN19mainScreenPresenter17changeHumiOpStateEb) for i._ZN19mainScreenPresenter17changeHumiOpStateEb
    mainscreenpresenter.o(.ARM.exidx) refers to mainscreenpresenter.o(i._ZN19mainScreenPresenter18changeLightOpStateEb) for i._ZN19mainScreenPresenter18changeLightOpStateEb
    mainscreenpresenter.o(.ARM.exidx) refers to mainscreenpresenter.o(i._ZN19mainScreenPresenter17changeHeatOpStateEb) for i._ZN19mainScreenPresenter17changeHeatOpStateEb
    mainscreenpresenter.o(.ARM.exidx) refers to mainscreenpresenter.o(i._ZN19mainScreenPresenter7getYearEv) for i._ZN19mainScreenPresenter7getYearEv
    mainscreenpresenter.o(.ARM.exidx) refers to mainscreenpresenter.o(i._ZN19mainScreenPresenter8getMonthEv) for i._ZN19mainScreenPresenter8getMonthEv
    mainscreenpresenter.o(.ARM.exidx) refers to mainscreenpresenter.o(i._ZN19mainScreenPresenter6getDayEv) for i._ZN19mainScreenPresenter6getDayEv
    mainscreenpresenter.o(.ARM.exidx) refers to mainscreenpresenter.o(i._ZN19mainScreenPresenter7getHourEv) for i._ZN19mainScreenPresenter7getHourEv
    mainscreenpresenter.o(.ARM.exidx) refers to mainscreenpresenter.o(i._ZN19mainScreenPresenter6getMinEv) for i._ZN19mainScreenPresenter6getMinEv
    mainscreenpresenter.o(.ARM.exidx) refers to mainscreenpresenter.o(i._ZN19mainScreenPresenter14getTemperatureEv) for i._ZN19mainScreenPresenter14getTemperatureEv
    mainscreenpresenter.o(.ARM.exidx) refers to mainscreenpresenter.o(i._ZN19mainScreenPresenter11getHumidityEv) for i._ZN19mainScreenPresenter11getHumidityEv
    mainscreenview.o(i._ZN14mainScreenView11setHumidityEi) refers to unicode.o(i._ZN8touchgfx7Unicode8snprintfEPttPKcz) for touchgfx::Unicode::snprintf(unsigned short*, unsigned short, const char*, ...)
    mainscreenview.o(i._ZN14mainScreenView11setHumidityEi) refers to drawable.o(i._ZNK8touchgfx8Drawable10invalidateEv) for touchgfx::Drawable::invalidate() const
    mainscreenview.o(i._ZN14mainScreenView11setupScreenEv) refers to mainscreenpresenter.o(i._ZN19mainScreenPresenter14getHumiOpStateEv) for mainScreenPresenter::getHumiOpState()
    mainscreenview.o(i._ZN14mainScreenView11setupScreenEv) refers to togglebutton.o(i._ZN8touchgfx12ToggleButton10forceStateEb) for touchgfx::ToggleButton::forceState(bool)
    mainscreenview.o(i._ZN14mainScreenView11setupScreenEv) refers to mainscreenpresenter.o(i._ZN19mainScreenPresenter15getLightOpStateEv) for mainScreenPresenter::getLightOpState()
    mainscreenview.o(i._ZN14mainScreenView11setupScreenEv) refers to mainscreenpresenter.o(i._ZN19mainScreenPresenter14getHeatOpStateEv) for mainScreenPresenter::getHeatOpState()
    mainscreenview.o(i._ZN14mainScreenView11setupScreenEv) refers to mainscreenpresenter.o(i._ZN19mainScreenPresenter22getManualOverrideStateEv) for mainScreenPresenter::getManualOverrideState()
    mainscreenview.o(i._ZN14mainScreenView11setupScreenEv) refers to mainscreenview.o(i._ZNK8touchgfx12ToggleButton8getStateEv) for touchgfx::ToggleButton::getState() const
    mainscreenview.o(i._ZN14mainScreenView11setupScreenEv) refers to mainscreenpresenter.o(i._ZN19mainScreenPresenter6getMinEv) for mainScreenPresenter::getMin()
    mainscreenview.o(i._ZN14mainScreenView11setupScreenEv) refers to mainscreenpresenter.o(i._ZN19mainScreenPresenter7getHourEv) for mainScreenPresenter::getHour()
    mainscreenview.o(i._ZN14mainScreenView11setupScreenEv) refers to mainscreenpresenter.o(i._ZN19mainScreenPresenter6getDayEv) for mainScreenPresenter::getDay()
    mainscreenview.o(i._ZN14mainScreenView11setupScreenEv) refers to mainscreenpresenter.o(i._ZN19mainScreenPresenter8getMonthEv) for mainScreenPresenter::getMonth()
    mainscreenview.o(i._ZN14mainScreenView11setupScreenEv) refers to mainscreenpresenter.o(i._ZN19mainScreenPresenter7getYearEv) for mainScreenPresenter::getYear()
    mainscreenview.o(i._ZN14mainScreenView11setupScreenEv) refers to mainscreenview.o(i._ZN14mainScreenView7setDateEiiiii) for mainScreenView::setDate(int, int, int, int, int)
    mainscreenview.o(i._ZN14mainScreenView11setupScreenEv) refers to mainscreenpresenter.o(i._ZN19mainScreenPresenter14getTemperatureEv) for mainScreenPresenter::getTemperature()
    mainscreenview.o(i._ZN14mainScreenView11setupScreenEv) refers to mainscreenview.o(i._ZN14mainScreenView14setTemperatureEi) for mainScreenView::setTemperature(int)
    mainscreenview.o(i._ZN14mainScreenView11setupScreenEv) refers to mainscreenpresenter.o(i._ZN19mainScreenPresenter11getHumidityEv) for mainScreenPresenter::getHumidity()
    mainscreenview.o(i._ZN14mainScreenView11setupScreenEv) refers to mainscreenview.o(i._ZN14mainScreenView11setHumidityEi) for mainScreenView::setHumidity(int)
    mainscreenview.o(i._ZN14mainScreenView14setTemperatureEi) refers to unicode.o(i._ZN8touchgfx7Unicode8snprintfEPttPKcz) for touchgfx::Unicode::snprintf(unsigned short*, unsigned short, const char*, ...)
    mainscreenview.o(i._ZN14mainScreenView14setTemperatureEi) refers to drawable.o(i._ZNK8touchgfx8Drawable10invalidateEv) for touchgfx::Drawable::invalidate() const
    mainscreenview.o(i._ZN14mainScreenView17lightOpBtnClickedEv) refers to mainscreenview.o(i._ZNK8touchgfx12ToggleButton8getStateEv) for touchgfx::ToggleButton::getState() const
    mainscreenview.o(i._ZN14mainScreenView17lightOpBtnClickedEv) refers to mainscreenpresenter.o(i._ZN19mainScreenPresenter18changeLightOpStateEb) for mainScreenPresenter::changeLightOpState(bool)
    mainscreenview.o(i._ZN14mainScreenView17setHumiOpBtnStateEb) refers to togglebutton.o(i._ZN8touchgfx12ToggleButton10forceStateEb) for touchgfx::ToggleButton::forceState(bool)
    mainscreenview.o(i._ZN14mainScreenView17setHumiOpBtnStateEb) refers to drawable.o(i._ZNK8touchgfx8Drawable10invalidateEv) for touchgfx::Drawable::invalidate() const
    mainscreenview.o(i._ZN14mainScreenView18heaterOpBtnClickedEv) refers to mainscreenview.o(i._ZNK8touchgfx12ToggleButton8getStateEv) for touchgfx::ToggleButton::getState() const
    mainscreenview.o(i._ZN14mainScreenView18heaterOpBtnClickedEv) refers to mainscreenpresenter.o(i._ZN19mainScreenPresenter17changeHeatOpStateEb) for mainScreenPresenter::changeHeatOpState(bool)
    mainscreenview.o(i._ZN14mainScreenView18setLightOpBtnStateEb) refers to togglebutton.o(i._ZN8touchgfx12ToggleButton10forceStateEb) for touchgfx::ToggleButton::forceState(bool)
    mainscreenview.o(i._ZN14mainScreenView18setLightOpBtnStateEb) refers to drawable.o(i._ZNK8touchgfx8Drawable10invalidateEv) for touchgfx::Drawable::invalidate() const
    mainscreenview.o(i._ZN14mainScreenView19mainPowerBtnClickedEv) refers to stm32f7xx_hal_gpio.o(i.HAL_GPIO_WritePin) for HAL_GPIO_WritePin
    mainscreenview.o(i._ZN14mainScreenView19setHeaterOpBtnStateEb) refers to togglebutton.o(i._ZN8touchgfx12ToggleButton10forceStateEb) for touchgfx::ToggleButton::forceState(bool)
    mainscreenview.o(i._ZN14mainScreenView19setHeaterOpBtnStateEb) refers to drawable.o(i._ZNK8touchgfx8Drawable10invalidateEv) for touchgfx::Drawable::invalidate() const
    mainscreenview.o(i._ZN14mainScreenView22humidifierOpBtnClickedEv) refers to mainscreenview.o(i._ZNK8touchgfx12ToggleButton8getStateEv) for touchgfx::ToggleButton::getState() const
    mainscreenview.o(i._ZN14mainScreenView22humidifierOpBtnClickedEv) refers to mainscreenpresenter.o(i._ZN19mainScreenPresenter17changeHumiOpStateEb) for mainScreenPresenter::changeHumiOpState(bool)
    mainscreenview.o(i._ZN14mainScreenView24manualOverrideBtnClickedEv) refers to mainscreenview.o(i._ZNK8touchgfx12ToggleButton8getStateEv) for touchgfx::ToggleButton::getState() const
    mainscreenview.o(i._ZN14mainScreenView24manualOverrideBtnClickedEv) refers to mainscreenview.o(i._ZN8touchgfx6Button8setAlphaEh) for touchgfx::Button::setAlpha(unsigned char)
    mainscreenview.o(i._ZN14mainScreenView24manualOverrideBtnClickedEv) refers to mainscreenview.o(i._ZN8touchgfx8Drawable12setTouchableEb) for touchgfx::Drawable::setTouchable(bool)
    mainscreenview.o(i._ZN14mainScreenView24manualOverrideBtnClickedEv) refers to mainscreenpresenter.o(i._ZN19mainScreenPresenter25changeManualOverrideStateEb) for mainScreenPresenter::changeManualOverrideState(bool)
    mainscreenview.o(i._ZN14mainScreenView24manualOverrideBtnClickedEv) refers to drawable.o(i._ZNK8touchgfx8Drawable10invalidateEv) for touchgfx::Drawable::invalidate() const
    mainscreenview.o(i._ZN14mainScreenView7setDateEiiiii) refers to unicode.o(i._ZN8touchgfx7Unicode8snprintfEPttPKcz) for touchgfx::Unicode::snprintf(unsigned short*, unsigned short, const char*, ...)
    mainscreenview.o(i._ZN14mainScreenView7setDateEiiiii) refers to drawable.o(i._ZNK8touchgfx8Drawable10invalidateEv) for touchgfx::Drawable::invalidate() const
    mainscreenview.o(i._ZN14mainScreenViewC1Ev) refers to mainscreenviewbase.o(i._ZN18mainScreenViewBaseC1Ev) for mainScreenViewBase::mainScreenViewBase()
    mainscreenview.o(i._ZN14mainScreenViewC1Ev) refers to mainscreenview.o(.constdata__ZTV14mainScreenView) for vtable for mainScreenView
    mainscreenview.o(.ARM.exidx) refers to mainscreenview.o(i._ZN14mainScreenViewC1Ev) for i._ZN14mainScreenViewC1Ev
    mainscreenview.o(.ARM.exidx) refers to mainscreenview.o(i._ZN14mainScreenView11setHumidityEi) for i._ZN14mainScreenView11setHumidityEi
    mainscreenview.o(.ARM.exidx) refers to mainscreenview.o(i._ZN14mainScreenView14setTemperatureEi) for i._ZN14mainScreenView14setTemperatureEi
    mainscreenview.o(.ARM.exidx) refers to mainscreenview.o(i._ZN14mainScreenView7setDateEiiiii) for i._ZN14mainScreenView7setDateEiiiii
    mainscreenview.o(.ARM.exidx) refers to mainscreenview.o(i._ZN14mainScreenView11setupScreenEv) for i._ZN14mainScreenView11setupScreenEv
    mainscreenview.o(.ARM.exidx) refers to mainscreenview.o(i._ZN14mainScreenView14tearDownScreenEv) for i._ZN14mainScreenView14tearDownScreenEv
    mainscreenview.o(.ARM.exidx) refers to mainscreenview.o(i._ZN14mainScreenView19setHeaterOpBtnStateEb) for i._ZN14mainScreenView19setHeaterOpBtnStateEb
    mainscreenview.o(.ARM.exidx) refers to mainscreenview.o(i._ZN14mainScreenView17setHumiOpBtnStateEb) for i._ZN14mainScreenView17setHumiOpBtnStateEb
    mainscreenview.o(.ARM.exidx) refers to mainscreenview.o(i._ZN14mainScreenView18setLightOpBtnStateEb) for i._ZN14mainScreenView18setLightOpBtnStateEb
    mainscreenview.o(.ARM.exidx) refers to mainscreenview.o(i._ZN14mainScreenView24manualOverrideBtnClickedEv) for i._ZN14mainScreenView24manualOverrideBtnClickedEv
    mainscreenview.o(.ARM.exidx) refers to mainscreenview.o(i._ZN14mainScreenView22humidifierOpBtnClickedEv) for i._ZN14mainScreenView22humidifierOpBtnClickedEv
    mainscreenview.o(.ARM.exidx) refers to mainscreenview.o(i._ZN14mainScreenView17lightOpBtnClickedEv) for i._ZN14mainScreenView17lightOpBtnClickedEv
    mainscreenview.o(.ARM.exidx) refers to mainscreenview.o(i._ZN14mainScreenView18heaterOpBtnClickedEv) for i._ZN14mainScreenView18heaterOpBtnClickedEv
    mainscreenview.o(.ARM.exidx) refers to mainscreenview.o(i._ZN14mainScreenView19mainPowerBtnClickedEv) for i._ZN14mainScreenView19mainPowerBtnClickedEv
    model.o(i._ZN5Model10changeHourEi) refers to stm32f7xx_hal_rtc.o(i.HAL_RTC_SetTime) for HAL_RTC_SetTime
    model.o(i._ZN5Model10changeHourEi) refers to rtc.o(.bss) for hrtc
    model.o(i._ZN5Model10changeYearEi) refers to stm32f7xx_hal_rtc.o(i.HAL_RTC_SetDate) for HAL_RTC_SetDate
    model.o(i._ZN5Model10changeYearEi) refers to rtc.o(.bss) for hrtc
    model.o(i._ZN5Model10humiActionEv) refers to sensor.o(i._ZN6sensor7getHumiEv) for sensor::getHumi()
    model.o(i._ZN5Model10humiActionEv) refers to clocktime.o(i._ZN9clockTime5isDayERS_S0_) for clockTime::isDay(clockTime&, clockTime&)
    model.o(i._ZN5Model10humiActionEv) refers to actuator.o(i._ZN8actuator8setStateEb) for actuator::setState(bool)
    model.o(i._ZN5Model10humiActionEv) refers to model.o(.bss) for humiAc
    model.o(i._ZN5Model10humiActionEv) refers to model.o(.data) for humiTrig
    model.o(i._ZN5Model10tempActionEv) refers to sensor.o(i._ZN6sensor7getTempEv) for sensor::getTemp()
    model.o(i._ZN5Model10tempActionEv) refers to clocktime.o(i._ZN9clockTime5isDayERS_S0_) for clockTime::isDay(clockTime&, clockTime&)
    model.o(i._ZN5Model10tempActionEv) refers to actuator.o(i._ZN8actuator8setStateEb) for actuator::setState(bool)
    model.o(i._ZN5Model10tempActionEv) refers to model.o(.bss) for lightAc
    model.o(i._ZN5Model10tempActionEv) refers to model.o(.data) for tempTrig
    model.o(i._ZN5Model11changeMonthEi) refers to stm32f7xx_hal_rtc.o(i.HAL_RTC_SetDate) for HAL_RTC_SetDate
    model.o(i._ZN5Model11changeMonthEi) refers to rtc.o(.bss) for hrtc
    model.o(i._ZN5Model12changeHumiOpEi) refers to actuator.o(i._ZN8actuator10disconnectEv) for actuator::disconnect()
    model.o(i._ZN5Model12changeHumiOpEi) refers to actuator.o(i._ZN8actuator11setOpSocketERK8opSocket) for actuator::setOpSocket(const opSocket&)
    model.o(i._ZN5Model12changeHumiOpEi) refers to model.o(.bss) for humiAc
    model.o(i._ZN5Model12changeHumiOpEi) refers to model.o(.data) for sockets
    model.o(i._ZN5Model12getDayEndMinEv) refers to clocktime.o(i._ZN9clockTime6getMinEv) for clockTime::getMin()
    model.o(i._ZN5Model13changeLightOpEi) refers to actuator.o(i._ZN8actuator10disconnectEv) for actuator::disconnect()
    model.o(i._ZN5Model13changeLightOpEi) refers to actuator.o(i._ZN8actuator11setOpSocketERK8opSocket) for actuator::setOpSocket(const opSocket&)
    model.o(i._ZN5Model13changeLightOpEi) refers to model.o(.bss) for lightAc
    model.o(i._ZN5Model13changeLightOpEi) refers to model.o(.data) for sockets
    model.o(i._ZN5Model13getDayEndHourEv) refers to clocktime.o(i._ZN9clockTime7getHourEv) for clockTime::getHour()
    model.o(i._ZN5Model14changeHeaterOpEi) refers to actuator.o(i._ZN8actuator10disconnectEv) for actuator::disconnect()
    model.o(i._ZN5Model14changeHeaterOpEi) refers to actuator.o(i._ZN8actuator11setOpSocketERK8opSocket) for actuator::setOpSocket(const opSocket&)
    model.o(i._ZN5Model14changeHeaterOpEi) refers to model.o(.bss) for heatAc
    model.o(i._ZN5Model14changeHeaterOpEi) refers to model.o(.data) for sockets
    model.o(i._ZN5Model14getDayBeginMinEv) refers to clocktime.o(i._ZN9clockTime6getMinEv) for clockTime::getMin()
    model.o(i._ZN5Model14getHeatOpStateEv) refers to actuator.o(i._ZN8actuator8getStateEv) for actuator::getState()
    model.o(i._ZN5Model14getHeatOpStateEv) refers to model.o(.bss) for heatAc
    model.o(i._ZN5Model14getHumiOpStateEv) refers to actuator.o(i._ZN8actuator8getStateEv) for actuator::getState()
    model.o(i._ZN5Model14getHumiOpStateEv) refers to model.o(.bss) for humiAc
    model.o(i._ZN5Model15changeDayEndMinEi) refers to model.o(i._ZN9clockTime6setMinEi) for clockTime::setMin(int)
    model.o(i._ZN5Model15getDayBeginHourEv) refers to clocktime.o(i._ZN9clockTime7getHourEv) for clockTime::getHour()
    model.o(i._ZN5Model15getLightOpStateEv) refers to actuator.o(i._ZN8actuator8getStateEv) for actuator::getState()
    model.o(i._ZN5Model15getLightOpStateEv) refers to model.o(.bss) for lightAc
    model.o(i._ZN5Model16changeDayEndHourEi) refers to model.o(i._ZN9clockTime7setHourEi) for clockTime::setHour(int)
    model.o(i._ZN5Model17changeDayBeginMinEi) refers to model.o(i._ZN9clockTime6setMinEi) for clockTime::setMin(int)
    model.o(i._ZN5Model17changeHeatOpStateEb) refers to actuator.o(i._ZN8actuator8setStateEb) for actuator::setState(bool)
    model.o(i._ZN5Model17changeHeatOpStateEb) refers to model.o(.bss) for heatAc
    model.o(i._ZN5Model17changeHumiOpStateEb) refers to actuator.o(i._ZN8actuator8setStateEb) for actuator::setState(bool)
    model.o(i._ZN5Model17changeHumiOpStateEb) refers to model.o(.bss) for humiAc
    model.o(i._ZN5Model18changeDayBeginHourEi) refers to model.o(i._ZN9clockTime7setHourEi) for clockTime::setHour(int)
    model.o(i._ZN5Model18changeLightOpStateEb) refers to actuator.o(i._ZN8actuator8setStateEb) for actuator::setState(bool)
    model.o(i._ZN5Model18changeLightOpStateEb) refers to model.o(.bss) for lightAc
    model.o(i._ZN5Model4tickEv) refers to stm32f7xx_hal_rtc.o(i.HAL_RTC_GetTime) for HAL_RTC_GetTime
    model.o(i._ZN5Model4tickEv) refers to stm32f7xx_hal_rtc.o(i.HAL_RTC_GetDate) for HAL_RTC_GetDate
    model.o(i._ZN5Model4tickEv) refers to model.o(i._ZN9clockTime6setMinEi) for clockTime::setMin(int)
    model.o(i._ZN5Model4tickEv) refers to model.o(i._ZN9clockTime7setHourEi) for clockTime::setHour(int)
    model.o(i._ZN5Model4tickEv) refers to sensor.o(i._ZN6sensor5resetEv) for sensor::reset()
    model.o(i._ZN5Model4tickEv) refers to sensor.o(i._ZN6sensor8trigTempEv) for sensor::trigTemp()
    model.o(i._ZN5Model4tickEv) refers to model.o(i._ZN5Model10tempActionEv) for Model::tempAction()
    model.o(i._ZN5Model4tickEv) refers to sensor.o(i._ZN6sensor8trigHumiEv) for sensor::trigHumi()
    model.o(i._ZN5Model4tickEv) refers to model.o(i._ZN5Model10humiActionEv) for Model::humiAction()
    model.o(i._ZN5Model4tickEv) refers to rtc.o(.bss) for hrtc
    model.o(i._ZN5Model4tickEv) refers to model.o(.data) for currSec
    model.o(i._ZN5Model9changeDayEi) refers to stm32f7xx_hal_rtc.o(i.HAL_RTC_SetDate) for HAL_RTC_SetDate
    model.o(i._ZN5Model9changeDayEi) refers to rtc.o(.bss) for hrtc
    model.o(i._ZN5Model9changeMinEi) refers to stm32f7xx_hal_rtc.o(i.HAL_RTC_SetTime) for HAL_RTC_SetTime
    model.o(i._ZN5Model9changeMinEi) refers to rtc.o(.bss) for hrtc
    model.o(i._ZN5ModelC1Ev) refers to model.o(i._ZN9clockTimeC1Eii) for clockTime::clockTime(int, int)
    model.o(i._ZN5ModelC1Ev) refers to sensor.o(i._ZN6sensorC1Ev) for sensor::sensor()
    model.o(i.__sti___9_Model_cpp_measTemp) refers to model.o(i._ZN8opSocketC1EP12GPIO_TypeDefj) for opSocket::opSocket(GPIO_TypeDef*, unsigned)
    model.o(i.__sti___9_Model_cpp_measTemp) refers to aeabi_atexit.o(.text) for __aeabi_atexit
    model.o(i.__sti___9_Model_cpp_measTemp) refers to model.o(i._ZN8actuatorC1ER8opSocketb) for actuator::actuator(opSocket&, bool)
    model.o(i.__sti___9_Model_cpp_measTemp) refers to model.o(.data) for socket1
    model.o(i.__sti___9_Model_cpp_measTemp) refers to model.o(i._ZN8opSocketD1Ev) for opSocket::~opSocket()
    model.o(i.__sti___9_Model_cpp_measTemp) refers to model.o(.bss) for lightAc
    model.o(i.__sti___9_Model_cpp_measTemp) refers to model.o(i._ZN8actuatorD1Ev) for actuator::~actuator()
    model.o(.ARM.exidx) refers to model.o(i._ZN5ModelC1Ev) for i._ZN5ModelC1Ev
    model.o(.ARM.exidx) refers to model.o(i._ZN5Model10humiActionEv) for i._ZN5Model10humiActionEv
    model.o(.ARM.exidx) refers to model.o(i._ZN5Model10tempActionEv) for i._ZN5Model10tempActionEv
    model.o(.ARM.exidx) refers to model.o(i._ZN5Model4tickEv) for i._ZN5Model4tickEv
    model.o(.ARM.exidx) refers to model.o(i._ZN5Model14getTemperatureEv) for i._ZN5Model14getTemperatureEv
    model.o(.ARM.exidx) refers to model.o(i._ZN5Model11getHumidityEv) for i._ZN5Model11getHumidityEv
    model.o(.ARM.exidx) refers to model.o(i._ZN5Model13setDayNomTempEi) for i._ZN5Model13setDayNomTempEi
    model.o(.ARM.exidx) refers to model.o(i._ZN5Model15setNightNomTempEi) for i._ZN5Model15setNightNomTempEi
    model.o(.ARM.exidx) refers to model.o(i._ZN5Model13setDayNomHumiEi) for i._ZN5Model13setDayNomHumiEi
    model.o(.ARM.exidx) refers to model.o(i._ZN5Model15setNightNomHumiEi) for i._ZN5Model15setNightNomHumiEi
    model.o(.ARM.exidx) refers to model.o(i._ZN5Model13getDayNomTempEv) for i._ZN5Model13getDayNomTempEv
    model.o(.ARM.exidx) refers to model.o(i._ZN5Model15getNightNomTempEv) for i._ZN5Model15getNightNomTempEv
    model.o(.ARM.exidx) refers to model.o(i._ZN5Model13getDayNomHumiEv) for i._ZN5Model13getDayNomHumiEv
    model.o(.ARM.exidx) refers to model.o(i._ZN5Model15getNightNomHumiEv) for i._ZN5Model15getNightNomHumiEv
    model.o(.ARM.exidx) refers to model.o(i._ZN5Model25changeManualOverrideStateEb) for i._ZN5Model25changeManualOverrideStateEb
    model.o(.ARM.exidx) refers to model.o(i._ZN5Model17changeHumiOpStateEb) for i._ZN5Model17changeHumiOpStateEb
    model.o(.ARM.exidx) refers to model.o(i._ZN5Model18changeLightOpStateEb) for i._ZN5Model18changeLightOpStateEb
    model.o(.ARM.exidx) refers to model.o(i._ZN5Model17changeHeatOpStateEb) for i._ZN5Model17changeHeatOpStateEb
    model.o(.ARM.exidx) refers to model.o(i._ZN5Model22getManualOverrideStateEv) for i._ZN5Model22getManualOverrideStateEv
    model.o(.ARM.exidx) refers to model.o(i._ZN5Model14getHumiOpStateEv) for i._ZN5Model14getHumiOpStateEv
    model.o(.ARM.exidx) refers to model.o(i._ZN5Model15getLightOpStateEv) for i._ZN5Model15getLightOpStateEv
    model.o(.ARM.exidx) refers to model.o(i._ZN5Model14getHeatOpStateEv) for i._ZN5Model14getHeatOpStateEv
    model.o(.ARM.exidx) refers to model.o(i._ZN5Model14changeHeaterOpEi) for i._ZN5Model14changeHeaterOpEi
    model.o(.ARM.exidx) refers to model.o(i._ZN5Model12changeHumiOpEi) for i._ZN5Model12changeHumiOpEi
    model.o(.ARM.exidx) refers to model.o(i._ZN5Model13changeLightOpEi) for i._ZN5Model13changeLightOpEi
    model.o(.ARM.exidx) refers to model.o(i._ZN5Model11getHeaterOpEv) for i._ZN5Model11getHeaterOpEv
    model.o(.ARM.exidx) refers to model.o(i._ZN5Model9getHumiOpEv) for i._ZN5Model9getHumiOpEv
    model.o(.ARM.exidx) refers to model.o(i._ZN5Model10getLightOpEv) for i._ZN5Model10getLightOpEv
    model.o(.ARM.exidx) refers to model.o(i._ZN5Model18changeDayBeginHourEi) for i._ZN5Model18changeDayBeginHourEi
    model.o(.ARM.exidx) refers to model.o(i._ZN5Model17changeDayBeginMinEi) for i._ZN5Model17changeDayBeginMinEi
    model.o(.ARM.exidx) refers to model.o(i._ZN5Model16changeDayEndHourEi) for i._ZN5Model16changeDayEndHourEi
    model.o(.ARM.exidx) refers to model.o(i._ZN5Model15changeDayEndMinEi) for i._ZN5Model15changeDayEndMinEi
    model.o(.ARM.exidx) refers to model.o(i._ZN5Model15getDayBeginHourEv) for i._ZN5Model15getDayBeginHourEv
    model.o(.ARM.exidx) refers to model.o(i._ZN5Model14getDayBeginMinEv) for i._ZN5Model14getDayBeginMinEv
    model.o(.ARM.exidx) refers to model.o(i._ZN5Model13getDayEndHourEv) for i._ZN5Model13getDayEndHourEv
    model.o(.ARM.exidx) refers to model.o(i._ZN5Model12getDayEndMinEv) for i._ZN5Model12getDayEndMinEv
    model.o(.ARM.exidx) refers to model.o(i._ZN5Model10changeYearEi) for i._ZN5Model10changeYearEi
    model.o(.ARM.exidx) refers to model.o(i._ZN5Model11changeMonthEi) for i._ZN5Model11changeMonthEi
    model.o(.ARM.exidx) refers to model.o(i._ZN5Model9changeDayEi) for i._ZN5Model9changeDayEi
    model.o(.ARM.exidx) refers to model.o(i._ZN5Model10changeHourEi) for i._ZN5Model10changeHourEi
    model.o(.ARM.exidx) refers to model.o(i._ZN5Model9changeMinEi) for i._ZN5Model9changeMinEi
    model.o(.ARM.exidx) refers to model.o(i._ZN5Model7getYearEv) for i._ZN5Model7getYearEv
    model.o(.ARM.exidx) refers to model.o(i._ZN5Model8getMonthEv) for i._ZN5Model8getMonthEv
    model.o(.ARM.exidx) refers to model.o(i._ZN5Model6getDayEv) for i._ZN5Model6getDayEv
    model.o(.ARM.exidx) refers to model.o(i._ZN5Model7getHourEv) for i._ZN5Model7getHourEv
    model.o(.ARM.exidx) refers to model.o(i._ZN5Model6getMinEv) for i._ZN5Model6getMinEv
    model.o(.ARM.exidx) refers to model.o(i.__sti___9_Model_cpp_measTemp) for i.__sti___9_Model_cpp_measTemp
    model.o(.init_array) refers to model.o(i.__sti___9_Model_cpp_measTemp) for __sti___9_Model_cpp_measTemp
    model.o(.init_array) refers to init_aeabi.o(.text) for __cpp_initialize__aeabi_
    opconfigsettingsscreenpresenter.o(i._ZN31opConfigSettingsScreenPresenter10getLightOpEv) refers to model.o(i._ZN5Model10getLightOpEv) for Model::getLightOp()
    opconfigsettingsscreenpresenter.o(i._ZN31opConfigSettingsScreenPresenter11getHeaterOpEv) refers to model.o(i._ZN5Model11getHeaterOpEv) for Model::getHeaterOp()
    opconfigsettingsscreenpresenter.o(i._ZN31opConfigSettingsScreenPresenter12changeHumiOpEi) refers to model.o(i._ZN5Model12changeHumiOpEi) for Model::changeHumiOp(int)
    opconfigsettingsscreenpresenter.o(i._ZN31opConfigSettingsScreenPresenter13changeLightOpEi) refers to model.o(i._ZN5Model13changeLightOpEi) for Model::changeLightOp(int)
    opconfigsettingsscreenpresenter.o(i._ZN31opConfigSettingsScreenPresenter14changeHeaterOpEi) refers to model.o(i._ZN5Model14changeHeaterOpEi) for Model::changeHeaterOp(int)
    opconfigsettingsscreenpresenter.o(i._ZN31opConfigSettingsScreenPresenter9getHumiOpEv) refers to model.o(i._ZN5Model9getHumiOpEv) for Model::getHumiOp()
    opconfigsettingsscreenpresenter.o(i._ZN31opConfigSettingsScreenPresenterC1ER26opConfigSettingsScreenView) refers to datetimesettingsscreenpresenter.o(.constdata__ZTVN8touchgfx9PresenterE) for vtable for touchgfx::Presenter
    opconfigsettingsscreenpresenter.o(i._ZN31opConfigSettingsScreenPresenterC1ER26opConfigSettingsScreenView) refers to datetimesettingsscreenpresenter.o(.constdata__ZTV13ModelListener) for vtable for ModelListener
    opconfigsettingsscreenpresenter.o(i._ZN31opConfigSettingsScreenPresenterC1ER26opConfigSettingsScreenView) refers to opconfigsettingsscreenpresenter.o(.constdata__ZTV31opConfigSettingsScreenPresenter) for vtable for opConfigSettingsScreenPresenter
    opconfigsettingsscreenpresenter.o(.ARM.exidx) refers to opconfigsettingsscreenpresenter.o(i._ZN31opConfigSettingsScreenPresenterC1ER26opConfigSettingsScreenView) for i._ZN31opConfigSettingsScreenPresenterC1ER26opConfigSettingsScreenView
    opconfigsettingsscreenpresenter.o(.ARM.exidx) refers to opconfigsettingsscreenpresenter.o(i._ZN31opConfigSettingsScreenPresenter8activateEv) for i._ZN31opConfigSettingsScreenPresenter8activateEv
    opconfigsettingsscreenpresenter.o(.ARM.exidx) refers to opconfigsettingsscreenpresenter.o(i._ZN31opConfigSettingsScreenPresenter10deactivateEv) for i._ZN31opConfigSettingsScreenPresenter10deactivateEv
    opconfigsettingsscreenpresenter.o(.ARM.exidx) refers to opconfigsettingsscreenpresenter.o(i._ZN31opConfigSettingsScreenPresenter14changeHeaterOpEi) for i._ZN31opConfigSettingsScreenPresenter14changeHeaterOpEi
    opconfigsettingsscreenpresenter.o(.ARM.exidx) refers to opconfigsettingsscreenpresenter.o(i._ZN31opConfigSettingsScreenPresenter12changeHumiOpEi) for i._ZN31opConfigSettingsScreenPresenter12changeHumiOpEi
    opconfigsettingsscreenpresenter.o(.ARM.exidx) refers to opconfigsettingsscreenpresenter.o(i._ZN31opConfigSettingsScreenPresenter13changeLightOpEi) for i._ZN31opConfigSettingsScreenPresenter13changeLightOpEi
    opconfigsettingsscreenpresenter.o(.ARM.exidx) refers to opconfigsettingsscreenpresenter.o(i._ZN31opConfigSettingsScreenPresenter11getHeaterOpEv) for i._ZN31opConfigSettingsScreenPresenter11getHeaterOpEv
    opconfigsettingsscreenpresenter.o(.ARM.exidx) refers to opconfigsettingsscreenpresenter.o(i._ZN31opConfigSettingsScreenPresenter9getHumiOpEv) for i._ZN31opConfigSettingsScreenPresenter9getHumiOpEv
    opconfigsettingsscreenpresenter.o(.ARM.exidx) refers to opconfigsettingsscreenpresenter.o(i._ZN31opConfigSettingsScreenPresenter10getLightOpEv) for i._ZN31opConfigSettingsScreenPresenter10getLightOpEv
    opconfigsettingsscreenview.o(i._ZN26opConfigSettingsScreenView11setupScreenEv) refers to togglebutton.o(i._ZN8touchgfx12ToggleButton10forceStateEb) for touchgfx::ToggleButton::forceState(bool)
    opconfigsettingsscreenview.o(i._ZN26opConfigSettingsScreenView11setupScreenEv) refers to opconfigsettingsscreenpresenter.o(i._ZN31opConfigSettingsScreenPresenter11getHeaterOpEv) for opConfigSettingsScreenPresenter::getHeaterOp()
    opconfigsettingsscreenview.o(i._ZN26opConfigSettingsScreenView11setupScreenEv) refers to opconfigsettingsscreenpresenter.o(i._ZN31opConfigSettingsScreenPresenter9getHumiOpEv) for opConfigSettingsScreenPresenter::getHumiOp()
    opconfigsettingsscreenview.o(i._ZN26opConfigSettingsScreenView11setupScreenEv) refers to opconfigsettingsscreenpresenter.o(i._ZN31opConfigSettingsScreenPresenter10getLightOpEv) for opConfigSettingsScreenPresenter::getLightOp()
    opconfigsettingsscreenview.o(i._ZN26opConfigSettingsScreenView17op1HumiBtnClickedEv) refers to mainscreenview.o(i._ZNK8touchgfx12ToggleButton8getStateEv) for touchgfx::ToggleButton::getState() const
    opconfigsettingsscreenview.o(i._ZN26opConfigSettingsScreenView17op1HumiBtnClickedEv) refers to opconfigsettingsscreenpresenter.o(i._ZN31opConfigSettingsScreenPresenter12changeHumiOpEi) for opConfigSettingsScreenPresenter::changeHumiOp(int)
    opconfigsettingsscreenview.o(i._ZN26opConfigSettingsScreenView17op1HumiBtnClickedEv) refers to togglebutton.o(i._ZN8touchgfx12ToggleButton10forceStateEb) for touchgfx::ToggleButton::forceState(bool)
    opconfigsettingsscreenview.o(i._ZN26opConfigSettingsScreenView17op2HumiBtnClickedEv) refers to mainscreenview.o(i._ZNK8touchgfx12ToggleButton8getStateEv) for touchgfx::ToggleButton::getState() const
    opconfigsettingsscreenview.o(i._ZN26opConfigSettingsScreenView17op2HumiBtnClickedEv) refers to opconfigsettingsscreenpresenter.o(i._ZN31opConfigSettingsScreenPresenter12changeHumiOpEi) for opConfigSettingsScreenPresenter::changeHumiOp(int)
    opconfigsettingsscreenview.o(i._ZN26opConfigSettingsScreenView17op2HumiBtnClickedEv) refers to togglebutton.o(i._ZN8touchgfx12ToggleButton10forceStateEb) for touchgfx::ToggleButton::forceState(bool)
    opconfigsettingsscreenview.o(i._ZN26opConfigSettingsScreenView17op3HumiBtnClickedEv) refers to mainscreenview.o(i._ZNK8touchgfx12ToggleButton8getStateEv) for touchgfx::ToggleButton::getState() const
    opconfigsettingsscreenview.o(i._ZN26opConfigSettingsScreenView17op3HumiBtnClickedEv) refers to opconfigsettingsscreenpresenter.o(i._ZN31opConfigSettingsScreenPresenter12changeHumiOpEi) for opConfigSettingsScreenPresenter::changeHumiOp(int)
    opconfigsettingsscreenview.o(i._ZN26opConfigSettingsScreenView17op3HumiBtnClickedEv) refers to togglebutton.o(i._ZN8touchgfx12ToggleButton10forceStateEb) for touchgfx::ToggleButton::forceState(bool)
    opconfigsettingsscreenview.o(i._ZN26opConfigSettingsScreenView18op1LightBtnClickedEv) refers to mainscreenview.o(i._ZNK8touchgfx12ToggleButton8getStateEv) for touchgfx::ToggleButton::getState() const
    opconfigsettingsscreenview.o(i._ZN26opConfigSettingsScreenView18op1LightBtnClickedEv) refers to opconfigsettingsscreenpresenter.o(i._ZN31opConfigSettingsScreenPresenter13changeLightOpEi) for opConfigSettingsScreenPresenter::changeLightOp(int)
    opconfigsettingsscreenview.o(i._ZN26opConfigSettingsScreenView18op1LightBtnClickedEv) refers to togglebutton.o(i._ZN8touchgfx12ToggleButton10forceStateEb) for touchgfx::ToggleButton::forceState(bool)
    opconfigsettingsscreenview.o(i._ZN26opConfigSettingsScreenView18op2LightBtnClickedEv) refers to mainscreenview.o(i._ZNK8touchgfx12ToggleButton8getStateEv) for touchgfx::ToggleButton::getState() const
    opconfigsettingsscreenview.o(i._ZN26opConfigSettingsScreenView18op2LightBtnClickedEv) refers to opconfigsettingsscreenpresenter.o(i._ZN31opConfigSettingsScreenPresenter13changeLightOpEi) for opConfigSettingsScreenPresenter::changeLightOp(int)
    opconfigsettingsscreenview.o(i._ZN26opConfigSettingsScreenView18op2LightBtnClickedEv) refers to togglebutton.o(i._ZN8touchgfx12ToggleButton10forceStateEb) for touchgfx::ToggleButton::forceState(bool)
    opconfigsettingsscreenview.o(i._ZN26opConfigSettingsScreenView18op3LightBtnClickedEv) refers to mainscreenview.o(i._ZNK8touchgfx12ToggleButton8getStateEv) for touchgfx::ToggleButton::getState() const
    opconfigsettingsscreenview.o(i._ZN26opConfigSettingsScreenView18op3LightBtnClickedEv) refers to opconfigsettingsscreenpresenter.o(i._ZN31opConfigSettingsScreenPresenter13changeLightOpEi) for opConfigSettingsScreenPresenter::changeLightOp(int)
    opconfigsettingsscreenview.o(i._ZN26opConfigSettingsScreenView18op3LightBtnClickedEv) refers to togglebutton.o(i._ZN8touchgfx12ToggleButton10forceStateEb) for touchgfx::ToggleButton::forceState(bool)
    opconfigsettingsscreenview.o(i._ZN26opConfigSettingsScreenView19op1HeaterBtnClickedEv) refers to mainscreenview.o(i._ZNK8touchgfx12ToggleButton8getStateEv) for touchgfx::ToggleButton::getState() const
    opconfigsettingsscreenview.o(i._ZN26opConfigSettingsScreenView19op1HeaterBtnClickedEv) refers to opconfigsettingsscreenpresenter.o(i._ZN31opConfigSettingsScreenPresenter14changeHeaterOpEi) for opConfigSettingsScreenPresenter::changeHeaterOp(int)
    opconfigsettingsscreenview.o(i._ZN26opConfigSettingsScreenView19op1HeaterBtnClickedEv) refers to togglebutton.o(i._ZN8touchgfx12ToggleButton10forceStateEb) for touchgfx::ToggleButton::forceState(bool)
    opconfigsettingsscreenview.o(i._ZN26opConfigSettingsScreenView19op2HeaterBtnClickedEv) refers to mainscreenview.o(i._ZNK8touchgfx12ToggleButton8getStateEv) for touchgfx::ToggleButton::getState() const
    opconfigsettingsscreenview.o(i._ZN26opConfigSettingsScreenView19op2HeaterBtnClickedEv) refers to opconfigsettingsscreenpresenter.o(i._ZN31opConfigSettingsScreenPresenter14changeHeaterOpEi) for opConfigSettingsScreenPresenter::changeHeaterOp(int)
    opconfigsettingsscreenview.o(i._ZN26opConfigSettingsScreenView19op2HeaterBtnClickedEv) refers to togglebutton.o(i._ZN8touchgfx12ToggleButton10forceStateEb) for touchgfx::ToggleButton::forceState(bool)
    opconfigsettingsscreenview.o(i._ZN26opConfigSettingsScreenView19op3HeaterBtnClickedEv) refers to mainscreenview.o(i._ZNK8touchgfx12ToggleButton8getStateEv) for touchgfx::ToggleButton::getState() const
    opconfigsettingsscreenview.o(i._ZN26opConfigSettingsScreenView19op3HeaterBtnClickedEv) refers to opconfigsettingsscreenpresenter.o(i._ZN31opConfigSettingsScreenPresenter14changeHeaterOpEi) for opConfigSettingsScreenPresenter::changeHeaterOp(int)
    opconfigsettingsscreenview.o(i._ZN26opConfigSettingsScreenView19op3HeaterBtnClickedEv) refers to togglebutton.o(i._ZN8touchgfx12ToggleButton10forceStateEb) for touchgfx::ToggleButton::forceState(bool)
    opconfigsettingsscreenview.o(i._ZN26opConfigSettingsScreenViewC1Ev) refers to opconfigsettingsscreenviewbase.o(i._ZN30opConfigSettingsScreenViewBaseC1Ev) for opConfigSettingsScreenViewBase::opConfigSettingsScreenViewBase()
    opconfigsettingsscreenview.o(i._ZN26opConfigSettingsScreenViewC1Ev) refers to opconfigsettingsscreenview.o(.constdata__ZTV26opConfigSettingsScreenView) for vtable for opConfigSettingsScreenView
    opconfigsettingsscreenview.o(.ARM.exidx) refers to opconfigsettingsscreenview.o(i._ZN26opConfigSettingsScreenViewC1Ev) for i._ZN26opConfigSettingsScreenViewC1Ev
    opconfigsettingsscreenview.o(.ARM.exidx) refers to opconfigsettingsscreenview.o(i._ZN26opConfigSettingsScreenView11setupScreenEv) for i._ZN26opConfigSettingsScreenView11setupScreenEv
    opconfigsettingsscreenview.o(.ARM.exidx) refers to opconfigsettingsscreenview.o(i._ZN26opConfigSettingsScreenView14tearDownScreenEv) for i._ZN26opConfigSettingsScreenView14tearDownScreenEv
    opconfigsettingsscreenview.o(.ARM.exidx) refers to opconfigsettingsscreenview.o(i._ZN26opConfigSettingsScreenView19op1HeaterBtnClickedEv) for i._ZN26opConfigSettingsScreenView19op1HeaterBtnClickedEv
    opconfigsettingsscreenview.o(.ARM.exidx) refers to opconfigsettingsscreenview.o(i._ZN26opConfigSettingsScreenView17op1HumiBtnClickedEv) for i._ZN26opConfigSettingsScreenView17op1HumiBtnClickedEv
    opconfigsettingsscreenview.o(.ARM.exidx) refers to opconfigsettingsscreenview.o(i._ZN26opConfigSettingsScreenView18op1LightBtnClickedEv) for i._ZN26opConfigSettingsScreenView18op1LightBtnClickedEv
    opconfigsettingsscreenview.o(.ARM.exidx) refers to opconfigsettingsscreenview.o(i._ZN26opConfigSettingsScreenView19op2HeaterBtnClickedEv) for i._ZN26opConfigSettingsScreenView19op2HeaterBtnClickedEv
    opconfigsettingsscreenview.o(.ARM.exidx) refers to opconfigsettingsscreenview.o(i._ZN26opConfigSettingsScreenView17op2HumiBtnClickedEv) for i._ZN26opConfigSettingsScreenView17op2HumiBtnClickedEv
    opconfigsettingsscreenview.o(.ARM.exidx) refers to opconfigsettingsscreenview.o(i._ZN26opConfigSettingsScreenView18op2LightBtnClickedEv) for i._ZN26opConfigSettingsScreenView18op2LightBtnClickedEv
    opconfigsettingsscreenview.o(.ARM.exidx) refers to opconfigsettingsscreenview.o(i._ZN26opConfigSettingsScreenView19op3HeaterBtnClickedEv) for i._ZN26opConfigSettingsScreenView19op3HeaterBtnClickedEv
    opconfigsettingsscreenview.o(.ARM.exidx) refers to opconfigsettingsscreenview.o(i._ZN26opConfigSettingsScreenView17op3HumiBtnClickedEv) for i._ZN26opConfigSettingsScreenView17op3HumiBtnClickedEv
    opconfigsettingsscreenview.o(.ARM.exidx) refers to opconfigsettingsscreenview.o(i._ZN26opConfigSettingsScreenView18op3LightBtnClickedEv) for i._ZN26opConfigSettingsScreenView18op3LightBtnClickedEv
    screen1presenter.o(i._ZN16Screen1PresenterC1ER11Screen1View) refers to datetimesettingsscreenpresenter.o(.constdata__ZTVN8touchgfx9PresenterE) for vtable for touchgfx::Presenter
    screen1presenter.o(i._ZN16Screen1PresenterC1ER11Screen1View) refers to datetimesettingsscreenpresenter.o(.constdata__ZTV13ModelListener) for vtable for ModelListener
    screen1presenter.o(i._ZN16Screen1PresenterC1ER11Screen1View) refers to screen1presenter.o(.constdata__ZTV16Screen1Presenter) for vtable for Screen1Presenter
    screen1presenter.o(.ARM.exidx) refers to screen1presenter.o(i._ZN16Screen1PresenterC1ER11Screen1View) for i._ZN16Screen1PresenterC1ER11Screen1View
    screen1presenter.o(.ARM.exidx) refers to screen1presenter.o(i._ZN16Screen1Presenter8activateEv) for i._ZN16Screen1Presenter8activateEv
    screen1presenter.o(.ARM.exidx) refers to screen1presenter.o(i._ZN16Screen1Presenter10deactivateEv) for i._ZN16Screen1Presenter10deactivateEv
    screen1view.o(i._ZN11Screen1View14homeBtnClickedEv) refers to stm32f7xx_hal_gpio.o(i.HAL_GPIO_WritePin) for HAL_GPIO_WritePin
    screen1view.o(i._ZN11Screen1ViewC1Ev) refers to screen1viewbase.o(i._ZN15Screen1ViewBaseC1Ev) for Screen1ViewBase::Screen1ViewBase()
    screen1view.o(i._ZN11Screen1ViewC1Ev) refers to screen1view.o(.constdata__ZTV11Screen1View) for vtable for Screen1View
    screen1view.o(.ARM.exidx) refers to screen1view.o(i._Z11clickActionv) for i._Z11clickActionv
    screen1view.o(.ARM.exidx) refers to screen1view.o(i._ZN11Screen1ViewC1Ev) for i._ZN11Screen1ViewC1Ev
    screen1view.o(.ARM.exidx) refers to screen1view.o(i._ZN11Screen1View11setupScreenEv) for i._ZN11Screen1View11setupScreenEv
    screen1view.o(.ARM.exidx) refers to screen1view.o(i._ZN11Screen1View14tearDownScreenEv) for i._ZN11Screen1View14tearDownScreenEv
    screen1view.o(.ARM.exidx) refers to screen1view.o(i._ZN11Screen1View14homeBtnClickedEv) for i._ZN11Screen1View14homeBtnClickedEv
    settingsscreenpresenter.o(i._ZN23settingsScreenPresenterC1ER18settingsScreenView) refers to datetimesettingsscreenpresenter.o(.constdata__ZTVN8touchgfx9PresenterE) for vtable for touchgfx::Presenter
    settingsscreenpresenter.o(i._ZN23settingsScreenPresenterC1ER18settingsScreenView) refers to datetimesettingsscreenpresenter.o(.constdata__ZTV13ModelListener) for vtable for ModelListener
    settingsscreenpresenter.o(i._ZN23settingsScreenPresenterC1ER18settingsScreenView) refers to settingsscreenpresenter.o(.constdata__ZTV23settingsScreenPresenter) for vtable for settingsScreenPresenter
    settingsscreenpresenter.o(.ARM.exidx) refers to settingsscreenpresenter.o(i._ZN23settingsScreenPresenterC1ER18settingsScreenView) for i._ZN23settingsScreenPresenterC1ER18settingsScreenView
    settingsscreenpresenter.o(.ARM.exidx) refers to settingsscreenpresenter.o(i._ZN23settingsScreenPresenter8activateEv) for i._ZN23settingsScreenPresenter8activateEv
    settingsscreenpresenter.o(.ARM.exidx) refers to settingsscreenpresenter.o(i._ZN23settingsScreenPresenter10deactivateEv) for i._ZN23settingsScreenPresenter10deactivateEv
    settingsscreenview.o(i._ZN18settingsScreenViewC1Ev) refers to settingsscreenviewbase.o(i._ZN22settingsScreenViewBaseC1Ev) for settingsScreenViewBase::settingsScreenViewBase()
    settingsscreenview.o(i._ZN18settingsScreenViewC1Ev) refers to settingsscreenview.o(.constdata__ZTV18settingsScreenView) for vtable for settingsScreenView
    settingsscreenview.o(.ARM.exidx) refers to settingsscreenview.o(i._ZN18settingsScreenViewC1Ev) for i._ZN18settingsScreenViewC1Ev
    settingsscreenview.o(.ARM.exidx) refers to settingsscreenview.o(i._ZN18settingsScreenView11setupScreenEv) for i._ZN18settingsScreenView11setupScreenEv
    settingsscreenview.o(.ARM.exidx) refers to settingsscreenview.o(i._ZN18settingsScreenView14tearDownScreenEv) for i._ZN18settingsScreenView14tearDownScreenEv
    temphumisettingsscreenpresenter.o(i._ZN31tempHumiSettingsScreenPresenter13getDayNomHumiEv) refers to model.o(i._ZN5Model13getDayNomHumiEv) for Model::getDayNomHumi()
    temphumisettingsscreenpresenter.o(i._ZN31tempHumiSettingsScreenPresenter13getDayNomTempEv) refers to model.o(i._ZN5Model13getDayNomTempEv) for Model::getDayNomTemp()
    temphumisettingsscreenpresenter.o(i._ZN31tempHumiSettingsScreenPresenter15getNightNomHumiEv) refers to model.o(i._ZN5Model15getNightNomHumiEv) for Model::getNightNomHumi()
    temphumisettingsscreenpresenter.o(i._ZN31tempHumiSettingsScreenPresenter15getNightNomTempEv) refers to model.o(i._ZN5Model15getNightNomTempEv) for Model::getNightNomTemp()
    temphumisettingsscreenpresenter.o(i._ZN31tempHumiSettingsScreenPresenter16changeDayNomHumiEi) refers to model.o(i._ZN5Model13setDayNomHumiEi) for Model::setDayNomHumi(int)
    temphumisettingsscreenpresenter.o(i._ZN31tempHumiSettingsScreenPresenter16changeDayNomTempEi) refers to model.o(i._ZN5Model13setDayNomTempEi) for Model::setDayNomTemp(int)
    temphumisettingsscreenpresenter.o(i._ZN31tempHumiSettingsScreenPresenter18changeNightNomHumiEi) refers to model.o(i._ZN5Model15setNightNomHumiEi) for Model::setNightNomHumi(int)
    temphumisettingsscreenpresenter.o(i._ZN31tempHumiSettingsScreenPresenter18changeNightNomTempEi) refers to model.o(i._ZN5Model15setNightNomTempEi) for Model::setNightNomTemp(int)
    temphumisettingsscreenpresenter.o(i._ZN31tempHumiSettingsScreenPresenterC1ER26tempHumiSettingsScreenView) refers to datetimesettingsscreenpresenter.o(.constdata__ZTVN8touchgfx9PresenterE) for vtable for touchgfx::Presenter
    temphumisettingsscreenpresenter.o(i._ZN31tempHumiSettingsScreenPresenterC1ER26tempHumiSettingsScreenView) refers to datetimesettingsscreenpresenter.o(.constdata__ZTV13ModelListener) for vtable for ModelListener
    temphumisettingsscreenpresenter.o(i._ZN31tempHumiSettingsScreenPresenterC1ER26tempHumiSettingsScreenView) refers to temphumisettingsscreenpresenter.o(.constdata__ZTV31tempHumiSettingsScreenPresenter) for vtable for tempHumiSettingsScreenPresenter
    temphumisettingsscreenpresenter.o(.ARM.exidx) refers to temphumisettingsscreenpresenter.o(i._ZN31tempHumiSettingsScreenPresenterC1ER26tempHumiSettingsScreenView) for i._ZN31tempHumiSettingsScreenPresenterC1ER26tempHumiSettingsScreenView
    temphumisettingsscreenpresenter.o(.ARM.exidx) refers to temphumisettingsscreenpresenter.o(i._ZN31tempHumiSettingsScreenPresenter8activateEv) for i._ZN31tempHumiSettingsScreenPresenter8activateEv
    temphumisettingsscreenpresenter.o(.ARM.exidx) refers to temphumisettingsscreenpresenter.o(i._ZN31tempHumiSettingsScreenPresenter10deactivateEv) for i._ZN31tempHumiSettingsScreenPresenter10deactivateEv
    temphumisettingsscreenpresenter.o(.ARM.exidx) refers to temphumisettingsscreenpresenter.o(i._ZN31tempHumiSettingsScreenPresenter16changeDayNomTempEi) for i._ZN31tempHumiSettingsScreenPresenter16changeDayNomTempEi
    temphumisettingsscreenpresenter.o(.ARM.exidx) refers to temphumisettingsscreenpresenter.o(i._ZN31tempHumiSettingsScreenPresenter18changeNightNomTempEi) for i._ZN31tempHumiSettingsScreenPresenter18changeNightNomTempEi
    temphumisettingsscreenpresenter.o(.ARM.exidx) refers to temphumisettingsscreenpresenter.o(i._ZN31tempHumiSettingsScreenPresenter16changeDayNomHumiEi) for i._ZN31tempHumiSettingsScreenPresenter16changeDayNomHumiEi
    temphumisettingsscreenpresenter.o(.ARM.exidx) refers to temphumisettingsscreenpresenter.o(i._ZN31tempHumiSettingsScreenPresenter18changeNightNomHumiEi) for i._ZN31tempHumiSettingsScreenPresenter18changeNightNomHumiEi
    temphumisettingsscreenpresenter.o(.ARM.exidx) refers to temphumisettingsscreenpresenter.o(i._ZN31tempHumiSettingsScreenPresenter13getDayNomTempEv) for i._ZN31tempHumiSettingsScreenPresenter13getDayNomTempEv
    temphumisettingsscreenpresenter.o(.ARM.exidx) refers to temphumisettingsscreenpresenter.o(i._ZN31tempHumiSettingsScreenPresenter15getNightNomTempEv) for i._ZN31tempHumiSettingsScreenPresenter15getNightNomTempEv
    temphumisettingsscreenpresenter.o(.ARM.exidx) refers to temphumisettingsscreenpresenter.o(i._ZN31tempHumiSettingsScreenPresenter13getDayNomHumiEv) for i._ZN31tempHumiSettingsScreenPresenter13getDayNomHumiEv
    temphumisettingsscreenpresenter.o(.ARM.exidx) refers to temphumisettingsscreenpresenter.o(i._ZN31tempHumiSettingsScreenPresenter15getNightNomHumiEv) for i._ZN31tempHumiSettingsScreenPresenter15getNightNomHumiEv
    temphumisettingsscreenview.o(i._ZN26tempHumiSettingsScreenView11setupScreenEv) refers to temphumisettingsscreenpresenter.o(i._ZN31tempHumiSettingsScreenPresenter13getDayNomTempEv) for tempHumiSettingsScreenPresenter::getDayNomTemp()
    temphumisettingsscreenview.o(i._ZN26tempHumiSettingsScreenView11setupScreenEv) refers to slider.o(i._ZN8touchgfx6Slider8setValueEi) for touchgfx::Slider::setValue(int)
    temphumisettingsscreenview.o(i._ZN26tempHumiSettingsScreenView11setupScreenEv) refers to temphumisettingsscreenpresenter.o(i._ZN31tempHumiSettingsScreenPresenter15getNightNomTempEv) for tempHumiSettingsScreenPresenter::getNightNomTemp()
    temphumisettingsscreenview.o(i._ZN26tempHumiSettingsScreenView11setupScreenEv) refers to temphumisettingsscreenpresenter.o(i._ZN31tempHumiSettingsScreenPresenter13getDayNomHumiEv) for tempHumiSettingsScreenPresenter::getDayNomHumi()
    temphumisettingsscreenview.o(i._ZN26tempHumiSettingsScreenView11setupScreenEv) refers to temphumisettingsscreenpresenter.o(i._ZN31tempHumiSettingsScreenPresenter15getNightNomHumiEv) for tempHumiSettingsScreenPresenter::getNightNomHumi()
    temphumisettingsscreenview.o(i._ZN26tempHumiSettingsScreenView13setDayHumiTxtEi) refers to unicode.o(i._ZN8touchgfx7Unicode8snprintfEPttPKcz) for touchgfx::Unicode::snprintf(unsigned short*, unsigned short, const char*, ...)
    temphumisettingsscreenview.o(i._ZN26tempHumiSettingsScreenView13setDayHumiTxtEi) refers to drawable.o(i._ZNK8touchgfx8Drawable10invalidateEv) for touchgfx::Drawable::invalidate() const
    temphumisettingsscreenview.o(i._ZN26tempHumiSettingsScreenView13setDayTempTxtEi) refers to unicode.o(i._ZN8touchgfx7Unicode8snprintfEPttPKcz) for touchgfx::Unicode::snprintf(unsigned short*, unsigned short, const char*, ...)
    temphumisettingsscreenview.o(i._ZN26tempHumiSettingsScreenView13setDayTempTxtEi) refers to drawable.o(i._ZNK8touchgfx8Drawable10invalidateEv) for touchgfx::Drawable::invalidate() const
    temphumisettingsscreenview.o(i._ZN26tempHumiSettingsScreenView15setNightHumiTxtEi) refers to unicode.o(i._ZN8touchgfx7Unicode8snprintfEPttPKcz) for touchgfx::Unicode::snprintf(unsigned short*, unsigned short, const char*, ...)
    temphumisettingsscreenview.o(i._ZN26tempHumiSettingsScreenView15setNightHumiTxtEi) refers to drawable.o(i._ZNK8touchgfx8Drawable10invalidateEv) for touchgfx::Drawable::invalidate() const
    temphumisettingsscreenview.o(i._ZN26tempHumiSettingsScreenView15setNightTempTxtEi) refers to unicode.o(i._ZN8touchgfx7Unicode8snprintfEPttPKcz) for touchgfx::Unicode::snprintf(unsigned short*, unsigned short, const char*, ...)
    temphumisettingsscreenview.o(i._ZN26tempHumiSettingsScreenView15setNightTempTxtEi) refers to drawable.o(i._ZNK8touchgfx8Drawable10invalidateEv) for touchgfx::Drawable::invalidate() const
    temphumisettingsscreenview.o(i._ZN26tempHumiSettingsScreenView25dayHumiSliderValueChangedEi) refers to temphumisettingsscreenview.o(i._ZN26tempHumiSettingsScreenView13setDayHumiTxtEi) for tempHumiSettingsScreenView::setDayHumiTxt(int)
    temphumisettingsscreenview.o(i._ZN26tempHumiSettingsScreenView25dayHumiSliderValueChangedEi) refers to temphumisettingsscreenpresenter.o(i._ZN31tempHumiSettingsScreenPresenter16changeDayNomHumiEi) for tempHumiSettingsScreenPresenter::changeDayNomHumi(int)
    temphumisettingsscreenview.o(i._ZN26tempHumiSettingsScreenView25dayTempSliderValueChangedEi) refers to temphumisettingsscreenview.o(i._ZN26tempHumiSettingsScreenView13setDayTempTxtEi) for tempHumiSettingsScreenView::setDayTempTxt(int)
    temphumisettingsscreenview.o(i._ZN26tempHumiSettingsScreenView25dayTempSliderValueChangedEi) refers to temphumisettingsscreenpresenter.o(i._ZN31tempHumiSettingsScreenPresenter16changeDayNomTempEi) for tempHumiSettingsScreenPresenter::changeDayNomTemp(int)
    temphumisettingsscreenview.o(i._ZN26tempHumiSettingsScreenView27nightHumiSliderValueChangedEi) refers to temphumisettingsscreenview.o(i._ZN26tempHumiSettingsScreenView15setNightHumiTxtEi) for tempHumiSettingsScreenView::setNightHumiTxt(int)
    temphumisettingsscreenview.o(i._ZN26tempHumiSettingsScreenView27nightHumiSliderValueChangedEi) refers to temphumisettingsscreenpresenter.o(i._ZN31tempHumiSettingsScreenPresenter18changeNightNomHumiEi) for tempHumiSettingsScreenPresenter::changeNightNomHumi(int)
    temphumisettingsscreenview.o(i._ZN26tempHumiSettingsScreenView27nightTempSliderValueChangedEi) refers to temphumisettingsscreenview.o(i._ZN26tempHumiSettingsScreenView15setNightTempTxtEi) for tempHumiSettingsScreenView::setNightTempTxt(int)
    temphumisettingsscreenview.o(i._ZN26tempHumiSettingsScreenView27nightTempSliderValueChangedEi) refers to temphumisettingsscreenpresenter.o(i._ZN31tempHumiSettingsScreenPresenter18changeNightNomTempEi) for tempHumiSettingsScreenPresenter::changeNightNomTemp(int)
    temphumisettingsscreenview.o(i._ZN26tempHumiSettingsScreenViewC1Ev) refers to temphumisettingsscreenviewbase.o(i._ZN30tempHumiSettingsScreenViewBaseC1Ev) for tempHumiSettingsScreenViewBase::tempHumiSettingsScreenViewBase()
    temphumisettingsscreenview.o(i._ZN26tempHumiSettingsScreenViewC1Ev) refers to temphumisettingsscreenview.o(.constdata__ZTV26tempHumiSettingsScreenView) for vtable for tempHumiSettingsScreenView
    temphumisettingsscreenview.o(.ARM.exidx) refers to temphumisettingsscreenview.o(i._ZN26tempHumiSettingsScreenViewC1Ev) for i._ZN26tempHumiSettingsScreenViewC1Ev
    temphumisettingsscreenview.o(.ARM.exidx) refers to temphumisettingsscreenview.o(i._ZN26tempHumiSettingsScreenView11setupScreenEv) for i._ZN26tempHumiSettingsScreenView11setupScreenEv
    temphumisettingsscreenview.o(.ARM.exidx) refers to temphumisettingsscreenview.o(i._ZN26tempHumiSettingsScreenView14tearDownScreenEv) for i._ZN26tempHumiSettingsScreenView14tearDownScreenEv
    temphumisettingsscreenview.o(.ARM.exidx) refers to temphumisettingsscreenview.o(i._ZN26tempHumiSettingsScreenView13setDayTempTxtEi) for i._ZN26tempHumiSettingsScreenView13setDayTempTxtEi
    temphumisettingsscreenview.o(.ARM.exidx) refers to temphumisettingsscreenview.o(i._ZN26tempHumiSettingsScreenView15setNightTempTxtEi) for i._ZN26tempHumiSettingsScreenView15setNightTempTxtEi
    temphumisettingsscreenview.o(.ARM.exidx) refers to temphumisettingsscreenview.o(i._ZN26tempHumiSettingsScreenView13setDayHumiTxtEi) for i._ZN26tempHumiSettingsScreenView13setDayHumiTxtEi
    temphumisettingsscreenview.o(.ARM.exidx) refers to temphumisettingsscreenview.o(i._ZN26tempHumiSettingsScreenView15setNightHumiTxtEi) for i._ZN26tempHumiSettingsScreenView15setNightHumiTxtEi
    temphumisettingsscreenview.o(.ARM.exidx) refers to temphumisettingsscreenview.o(i._ZN26tempHumiSettingsScreenView25dayTempSliderValueChangedEi) for i._ZN26tempHumiSettingsScreenView25dayTempSliderValueChangedEi
    temphumisettingsscreenview.o(.ARM.exidx) refers to temphumisettingsscreenview.o(i._ZN26tempHumiSettingsScreenView27nightTempSliderValueChangedEi) for i._ZN26tempHumiSettingsScreenView27nightTempSliderValueChangedEi
    temphumisettingsscreenview.o(.ARM.exidx) refers to temphumisettingsscreenview.o(i._ZN26tempHumiSettingsScreenView25dayHumiSliderValueChangedEi) for i._ZN26tempHumiSettingsScreenView25dayHumiSliderValueChangedEi
    temphumisettingsscreenview.o(.ARM.exidx) refers to temphumisettingsscreenview.o(i._ZN26tempHumiSettingsScreenView27nightHumiSliderValueChangedEi) for i._ZN26tempHumiSettingsScreenView27nightHumiSliderValueChangedEi
    datetimesettingsscreenviewbase.o(i._ZN30dateTimeSettingsScreenViewBase21buttonCallbackHandlerERKN8touchgfx14AbstractButtonE) refers to application.o(i._ZN8touchgfx11Application11getInstanceEv) for touchgfx::Application::getInstance()
    datetimesettingsscreenviewbase.o(i._ZN30dateTimeSettingsScreenViewBase21buttonCallbackHandlerERKN8touchgfx14AbstractButtonE) refers to frontendapplicationbase.o(i._ZN23FrontendApplicationBase43gotosettingsScreenScreenSlideTransitionWestEv) for FrontendApplicationBase::gotosettingsScreenScreenSlideTransitionWest()
    datetimesettingsscreenviewbase.o(i._ZN30dateTimeSettingsScreenViewBase21buttonCallbackHandlerERKN8touchgfx14AbstractButtonE) refers to frontendapplicationbase.o(i._ZN23FrontendApplicationBase39gotomainScreenScreenSlideTransitionWestEv) for FrontendApplicationBase::gotomainScreenScreenSlideTransitionWest()
    datetimesettingsscreenviewbase.o(i._ZN30dateTimeSettingsScreenViewBaseC1Ev) refers to screen.o(i._ZN8touchgfx6ScreenC1Ev) for touchgfx::Screen::Screen()
    datetimesettingsscreenviewbase.o(i._ZN30dateTimeSettingsScreenViewBaseC1Ev) refers to datetimesettingsscreenviewbase.o(i._ZN8touchgfx6BitmapC1Et) for touchgfx::Bitmap::Bitmap(unsigned short)
    datetimesettingsscreenviewbase.o(i._ZN30dateTimeSettingsScreenViewBaseC1Ev) refers to datetimesettingsscreenviewbase.o(i._ZN8touchgfx6WidgetC2Ev) for touchgfx::Widget::Widget__sub_object()
    datetimesettingsscreenviewbase.o(i._ZN30dateTimeSettingsScreenViewBaseC1Ev) refers to image.o(i._ZN8touchgfx5Image9setBitmapERKNS_6BitmapE) for touchgfx::Image::setBitmap(const touchgfx::Bitmap&)
    datetimesettingsscreenviewbase.o(i._ZN30dateTimeSettingsScreenViewBaseC1Ev) refers to datetimesettingsscreenviewbase.o(i._ZN8touchgfx9colortypeC1Ej) for touchgfx::colortype::colortype(unsigned)
    datetimesettingsscreenviewbase.o(i._ZN30dateTimeSettingsScreenViewBaseC1Ev) refers to buttonwithicon.o(i._ZN8touchgfx14ButtonWithIconC1Ev) for touchgfx::ButtonWithIcon::ButtonWithIcon()
    datetimesettingsscreenviewbase.o(i._ZN30dateTimeSettingsScreenViewBaseC1Ev) refers to datetimesettingsscreenviewbase.o(i._ZN8touchgfx8TextAreaC1Ev) for touchgfx::TextArea::TextArea()
    datetimesettingsscreenviewbase.o(i._ZN30dateTimeSettingsScreenViewBaseC1Ev) refers to datetimesettingsscreenviewbase.o(i._ZN8touchgfx23TextAreaWithOneWildcardC1Ev) for touchgfx::TextAreaWithOneWildcard::TextAreaWithOneWildcard()
    datetimesettingsscreenviewbase.o(i._ZN30dateTimeSettingsScreenViewBaseC1Ev) refers to datetimesettingsscreenviewbase.o(i._ZN8touchgfx8Drawable5setXYEss) for touchgfx::Drawable::setXY(short, short)
    datetimesettingsscreenviewbase.o(i._ZN30dateTimeSettingsScreenViewBaseC1Ev) refers to datetimesettingsscreenviewbase.o(i._ZN8touchgfx8Drawable11setPositionEssss) for touchgfx::Drawable::setPosition(short, short, short, short)
    datetimesettingsscreenviewbase.o(i._ZN30dateTimeSettingsScreenViewBaseC1Ev) refers to color.o(i._ZN8touchgfx5Color20getColorFrom24BitRGBEhhh) for touchgfx::Color::getColorFrom24BitRGB(unsigned char, unsigned char, unsigned char)
    datetimesettingsscreenviewbase.o(i._ZN30dateTimeSettingsScreenViewBaseC1Ev) refers to buttonwithicon.o(i._ZN8touchgfx14ButtonWithIcon10setBitmapsERKNS_6BitmapES3_S3_S3_) for touchgfx::ButtonWithIcon::setBitmaps(const touchgfx::Bitmap&, const touchgfx::Bitmap&, const touchgfx::Bitmap&, const touchgfx::Bitmap&)
    datetimesettingsscreenviewbase.o(i._ZN30dateTimeSettingsScreenViewBaseC1Ev) refers to datetimesettingsscreenviewbase.o(i._ZN8touchgfx14ButtonWithIcon9setIconXYEss) for touchgfx::ButtonWithIcon::setIconXY(short, short)
    datetimesettingsscreenviewbase.o(i._ZN30dateTimeSettingsScreenViewBaseC1Ev) refers to datetimesettingsscreenviewbase.o(i._ZN8touchgfx14AbstractButton9setActionERNS_15GenericCallbackIRKS0_vEE) for touchgfx::AbstractButton::setAction(touchgfx::GenericCallback<const touchgfx::AbstractButton&, void>&)
    datetimesettingsscreenviewbase.o(i._ZN30dateTimeSettingsScreenViewBaseC1Ev) refers to datetimesettingsscreenviewbase.o(.constdata__ZTVN8touchgfx4ViewI31dateTimeSettingsScreenPresenterEE) for vtable for touchgfx::View<dateTimeSettingsScreenPresenter>
    datetimesettingsscreenviewbase.o(i._ZN30dateTimeSettingsScreenViewBaseC1Ev) refers to datetimesettingsscreenview.o(.constdata__ZTV30dateTimeSettingsScreenViewBase) for vtable for dateTimeSettingsScreenViewBase
    datetimesettingsscreenviewbase.o(i._ZN30dateTimeSettingsScreenViewBaseC1Ev) refers to image.o(.constdata__ZTVN8touchgfx5ImageE) for vtable for touchgfx::Image
    datetimesettingsscreenviewbase.o(i._ZN30dateTimeSettingsScreenViewBaseC1Ev) refers to box.o(.constdata__ZTVN8touchgfx3BoxE) for vtable for touchgfx::Box
    datetimesettingsscreenviewbase.o(i._ZN30dateTimeSettingsScreenViewBaseC1Ev) refers to datetimesettingsscreenviewbase.o(.constdata) for <Data1>
    datetimesettingsscreenviewbase.o(i._ZN30dateTimeSettingsScreenViewBaseC1Ev) refers to datetimesettingsscreenviewbase.o(.constdata__ZTVN8touchgfx15GenericCallbackIRKNS_14AbstractButtonEvEE) for vtable for touchgfx::GenericCallback<const touchgfx::AbstractButton&, void>
    datetimesettingsscreenviewbase.o(i._ZN30dateTimeSettingsScreenViewBaseC1Ev) refers to datetimesettingsscreenviewbase.o(.constdata__ZTVN8touchgfx8CallbackI30dateTimeSettingsScreenViewBaseRKNS_14AbstractButtonEvEE) for vtable for touchgfx::Callback<dateTimeSettingsScreenViewBase, const touchgfx::AbstractButton&, void>
    datetimesettingsscreenviewbase.o(i._ZN30dateTimeSettingsScreenViewBaseC1Ev) refers to datetimesettingsscreenviewbase.o(i._ZN8touchgfx8TextArea8setColorENS_9colortypeE) for touchgfx::TextArea::setColor(touchgfx::colortype)
    datetimesettingsscreenviewbase.o(i._ZN30dateTimeSettingsScreenViewBaseC1Ev) refers to datetimesettingsscreenviewbase.o(i._ZN8touchgfx8TextArea14setLinespacingEt) for touchgfx::TextArea::setLinespacing(unsigned short)
    datetimesettingsscreenviewbase.o(i._ZN30dateTimeSettingsScreenViewBaseC1Ev) refers to datetimesettingsscreenviewbase.o(i._ZN8touchgfx9TypedTextC1Et) for touchgfx::TypedText::TypedText(unsigned short)
    datetimesettingsscreenviewbase.o(i._ZN30dateTimeSettingsScreenViewBaseC1Ev) refers to textarea.o(i._ZN8touchgfx8TextArea12setTypedTextENS_9TypedTextE) for touchgfx::TextArea::setTypedText(touchgfx::TypedText)
    datetimesettingsscreenviewbase.o(i._ZN30dateTimeSettingsScreenViewBaseC1Ev) refers to datetimesettingsscreenviewbase.o(i._ZN8touchgfx8TextArea8setAlphaEh) for touchgfx::TextArea::setAlpha(unsigned char)
    datetimesettingsscreenviewbase.o(i._ZN30dateTimeSettingsScreenViewBaseC1Ev) refers to datetimesettingsscreenviewbase.o(i._ZN8touchgfx23TextAreaWithOneWildcard11setWildcardEPKt) for touchgfx::TextAreaWithOneWildcard::setWildcard(const unsigned short*)
    datetimesettingsscreenviewbase.o(i._ZN30dateTimeSettingsScreenViewBaseC1Ev) refers to datetimesettingsscreenviewbase.o(i._ZN8touchgfx6Screen3addERNS_8DrawableE) for touchgfx::Screen::add(touchgfx::Drawable&)
    datetimesettingsscreenviewbase.o(.ARM.exidx) refers to datetimesettingsscreenviewbase.o(i._ZN30dateTimeSettingsScreenViewBaseC1Ev) for i._ZN30dateTimeSettingsScreenViewBaseC1Ev
    datetimesettingsscreenviewbase.o(.ARM.exidx) refers to datetimesettingsscreenviewbase.o(i._ZN30dateTimeSettingsScreenViewBase21buttonCallbackHandlerERKN8touchgfx14AbstractButtonE) for i._ZN30dateTimeSettingsScreenViewBase21buttonCallbackHandlerERKN8touchgfx14AbstractButtonE
    datetimesettingsscreenviewbase.o(.constdata) refers to datetimesettingsscreenviewbase.o(i._ZN30dateTimeSettingsScreenViewBase21buttonCallbackHandlerERKN8touchgfx14AbstractButtonE) for dateTimeSettingsScreenViewBase::buttonCallbackHandler(const touchgfx::AbstractButton&)
    daynightsettingsscreenviewbase.o(i._ZN30dayNightSettingsScreenViewBase21buttonCallbackHandlerERKN8touchgfx14AbstractButtonE) refers to application.o(i._ZN8touchgfx11Application11getInstanceEv) for touchgfx::Application::getInstance()
    daynightsettingsscreenviewbase.o(i._ZN30dayNightSettingsScreenViewBase21buttonCallbackHandlerERKN8touchgfx14AbstractButtonE) refers to frontendapplicationbase.o(i._ZN23FrontendApplicationBase43gotosettingsScreenScreenSlideTransitionWestEv) for FrontendApplicationBase::gotosettingsScreenScreenSlideTransitionWest()
    daynightsettingsscreenviewbase.o(i._ZN30dayNightSettingsScreenViewBase21buttonCallbackHandlerERKN8touchgfx14AbstractButtonE) refers to frontendapplicationbase.o(i._ZN23FrontendApplicationBase39gotomainScreenScreenSlideTransitionWestEv) for FrontendApplicationBase::gotomainScreenScreenSlideTransitionWest()
    daynightsettingsscreenviewbase.o(i._ZN30dayNightSettingsScreenViewBaseC1Ev) refers to screen.o(i._ZN8touchgfx6ScreenC1Ev) for touchgfx::Screen::Screen()
    daynightsettingsscreenviewbase.o(i._ZN30dayNightSettingsScreenViewBaseC1Ev) refers to datetimesettingsscreenviewbase.o(i._ZN8touchgfx6BitmapC1Et) for touchgfx::Bitmap::Bitmap(unsigned short)
    daynightsettingsscreenviewbase.o(i._ZN30dayNightSettingsScreenViewBaseC1Ev) refers to datetimesettingsscreenviewbase.o(i._ZN8touchgfx6WidgetC2Ev) for touchgfx::Widget::Widget__sub_object()
    daynightsettingsscreenviewbase.o(i._ZN30dayNightSettingsScreenViewBaseC1Ev) refers to image.o(i._ZN8touchgfx5Image9setBitmapERKNS_6BitmapE) for touchgfx::Image::setBitmap(const touchgfx::Bitmap&)
    daynightsettingsscreenviewbase.o(i._ZN30dayNightSettingsScreenViewBaseC1Ev) refers to buttonwithicon.o(i._ZN8touchgfx14ButtonWithIconC1Ev) for touchgfx::ButtonWithIcon::ButtonWithIcon()
    daynightsettingsscreenviewbase.o(i._ZN30dayNightSettingsScreenViewBaseC1Ev) refers to datetimesettingsscreenviewbase.o(i._ZN8touchgfx8TextAreaC1Ev) for touchgfx::TextArea::TextArea()
    daynightsettingsscreenviewbase.o(i._ZN30dayNightSettingsScreenViewBaseC1Ev) refers to datetimesettingsscreenviewbase.o(i._ZN8touchgfx23TextAreaWithOneWildcardC1Ev) for touchgfx::TextAreaWithOneWildcard::TextAreaWithOneWildcard()
    daynightsettingsscreenviewbase.o(i._ZN30dayNightSettingsScreenViewBaseC1Ev) refers to datetimesettingsscreenviewbase.o(i._ZN8touchgfx8Drawable5setXYEss) for touchgfx::Drawable::setXY(short, short)
    daynightsettingsscreenviewbase.o(i._ZN30dayNightSettingsScreenViewBaseC1Ev) refers to datetimesettingsscreenviewbase.o(i._ZN8touchgfx8Drawable11setPositionEssss) for touchgfx::Drawable::setPosition(short, short, short, short)
    daynightsettingsscreenviewbase.o(i._ZN30dayNightSettingsScreenViewBaseC1Ev) refers to buttonwithicon.o(i._ZN8touchgfx14ButtonWithIcon10setBitmapsERKNS_6BitmapES3_S3_S3_) for touchgfx::ButtonWithIcon::setBitmaps(const touchgfx::Bitmap&, const touchgfx::Bitmap&, const touchgfx::Bitmap&, const touchgfx::Bitmap&)
    daynightsettingsscreenviewbase.o(i._ZN30dayNightSettingsScreenViewBaseC1Ev) refers to datetimesettingsscreenviewbase.o(i._ZN8touchgfx14ButtonWithIcon9setIconXYEss) for touchgfx::ButtonWithIcon::setIconXY(short, short)
    daynightsettingsscreenviewbase.o(i._ZN30dayNightSettingsScreenViewBaseC1Ev) refers to datetimesettingsscreenviewbase.o(i._ZN8touchgfx14AbstractButton9setActionERNS_15GenericCallbackIRKS0_vEE) for touchgfx::AbstractButton::setAction(touchgfx::GenericCallback<const touchgfx::AbstractButton&, void>&)
    daynightsettingsscreenviewbase.o(i._ZN30dayNightSettingsScreenViewBaseC1Ev) refers to color.o(i._ZN8touchgfx5Color20getColorFrom24BitRGBEhhh) for touchgfx::Color::getColorFrom24BitRGB(unsigned char, unsigned char, unsigned char)
    daynightsettingsscreenviewbase.o(i._ZN30dayNightSettingsScreenViewBaseC1Ev) refers to datetimesettingsscreenviewbase.o(i._ZN8touchgfx8TextArea8setColorENS_9colortypeE) for touchgfx::TextArea::setColor(touchgfx::colortype)
    daynightsettingsscreenviewbase.o(i._ZN30dayNightSettingsScreenViewBaseC1Ev) refers to datetimesettingsscreenviewbase.o(i._ZN8touchgfx8TextArea14setLinespacingEt) for touchgfx::TextArea::setLinespacing(unsigned short)
    daynightsettingsscreenviewbase.o(i._ZN30dayNightSettingsScreenViewBaseC1Ev) refers to datetimesettingsscreenviewbase.o(i._ZN8touchgfx9TypedTextC1Et) for touchgfx::TypedText::TypedText(unsigned short)
    daynightsettingsscreenviewbase.o(i._ZN30dayNightSettingsScreenViewBaseC1Ev) refers to textarea.o(i._ZN8touchgfx8TextArea12setTypedTextENS_9TypedTextE) for touchgfx::TextArea::setTypedText(touchgfx::TypedText)
    daynightsettingsscreenviewbase.o(i._ZN30dayNightSettingsScreenViewBaseC1Ev) refers to datetimesettingsscreenviewbase.o(i._ZN8touchgfx8TextArea8setAlphaEh) for touchgfx::TextArea::setAlpha(unsigned char)
    daynightsettingsscreenviewbase.o(i._ZN30dayNightSettingsScreenViewBaseC1Ev) refers to daynightsettingsscreenviewbase.o(.constdata__ZTVN8touchgfx4ViewI31dayNightSettingsScreenPresenterEE) for vtable for touchgfx::View<dayNightSettingsScreenPresenter>
    daynightsettingsscreenviewbase.o(i._ZN30dayNightSettingsScreenViewBaseC1Ev) refers to daynightsettingsscreenview.o(.constdata__ZTV30dayNightSettingsScreenViewBase) for vtable for dayNightSettingsScreenViewBase
    daynightsettingsscreenviewbase.o(i._ZN30dayNightSettingsScreenViewBaseC1Ev) refers to image.o(.constdata__ZTVN8touchgfx5ImageE) for vtable for touchgfx::Image
    daynightsettingsscreenviewbase.o(i._ZN30dayNightSettingsScreenViewBaseC1Ev) refers to daynightsettingsscreenviewbase.o(.constdata) for <Data1>
    daynightsettingsscreenviewbase.o(i._ZN30dayNightSettingsScreenViewBaseC1Ev) refers to datetimesettingsscreenviewbase.o(.constdata__ZTVN8touchgfx15GenericCallbackIRKNS_14AbstractButtonEvEE) for vtable for touchgfx::GenericCallback<const touchgfx::AbstractButton&, void>
    daynightsettingsscreenviewbase.o(i._ZN30dayNightSettingsScreenViewBaseC1Ev) refers to daynightsettingsscreenviewbase.o(.constdata__ZTVN8touchgfx8CallbackI30dayNightSettingsScreenViewBaseRKNS_14AbstractButtonEvEE) for vtable for touchgfx::Callback<dayNightSettingsScreenViewBase, const touchgfx::AbstractButton&, void>
    daynightsettingsscreenviewbase.o(i._ZN30dayNightSettingsScreenViewBaseC1Ev) refers to datetimesettingsscreenviewbase.o(i._ZN8touchgfx23TextAreaWithOneWildcard11setWildcardEPKt) for touchgfx::TextAreaWithOneWildcard::setWildcard(const unsigned short*)
    daynightsettingsscreenviewbase.o(i._ZN30dayNightSettingsScreenViewBaseC1Ev) refers to datetimesettingsscreenviewbase.o(i._ZN8touchgfx6Screen3addERNS_8DrawableE) for touchgfx::Screen::add(touchgfx::Drawable&)
    daynightsettingsscreenviewbase.o(.ARM.exidx) refers to daynightsettingsscreenviewbase.o(i._ZN30dayNightSettingsScreenViewBaseC1Ev) for i._ZN30dayNightSettingsScreenViewBaseC1Ev
    daynightsettingsscreenviewbase.o(.ARM.exidx) refers to daynightsettingsscreenviewbase.o(i._ZN30dayNightSettingsScreenViewBase21buttonCallbackHandlerERKN8touchgfx14AbstractButtonE) for i._ZN30dayNightSettingsScreenViewBase21buttonCallbackHandlerERKN8touchgfx14AbstractButtonE
    daynightsettingsscreenviewbase.o(.constdata) refers to daynightsettingsscreenviewbase.o(i._ZN30dayNightSettingsScreenViewBase21buttonCallbackHandlerERKN8touchgfx14AbstractButtonE) for dayNightSettingsScreenViewBase::buttonCallbackHandler(const touchgfx::AbstractButton&)
    frontendapplicationbase.o(i._ZN23FrontendApplicationBase29gotoScreen1ScreenNoTransitionEv) refers to frontendapplicationbase.o(t._ZN8touchgfx8CallbackI23FrontendApplicationBasevvEC1EPS1_MS1_FvvE) for touchgfx::Callback<FrontendApplicationBase, void, void>::Callback(FrontendApplicationBase*, void(FrontendApplicationBase::*)())
    frontendapplicationbase.o(i._ZN23FrontendApplicationBase29gotoScreen1ScreenNoTransitionEv) refers to frontendapplicationbase.o(i._ZN8touchgfx8CallbackI23FrontendApplicationBasevvEaSERKS2_) for touchgfx::Callback<FrontendApplicationBase, void, void>::operator =(const touchgfx::Callback<FrontendApplicationBase, void, void>&)
    frontendapplicationbase.o(i._ZN23FrontendApplicationBase29gotoScreen1ScreenNoTransitionEv) refers to frontendapplicationbase.o(i._ZN8touchgfx8CallbackI23FrontendApplicationBasevvED1Ev) for touchgfx::Callback<FrontendApplicationBase, void, void>::~Callback()
    frontendapplicationbase.o(i._ZN23FrontendApplicationBase29gotoScreen1ScreenNoTransitionEv) refers to frontendapplicationbase.o(.constdata) for <Data9>
    frontendapplicationbase.o(i._ZN23FrontendApplicationBase32gotomainScreenScreenNoTransitionEv) refers to frontendapplicationbase.o(t._ZN8touchgfx8CallbackI23FrontendApplicationBasevvEC1EPS1_MS1_FvvE) for touchgfx::Callback<FrontendApplicationBase, void, void>::Callback(FrontendApplicationBase*, void(FrontendApplicationBase::*)())
    frontendapplicationbase.o(i._ZN23FrontendApplicationBase32gotomainScreenScreenNoTransitionEv) refers to frontendapplicationbase.o(i._ZN8touchgfx8CallbackI23FrontendApplicationBasevvEaSERKS2_) for touchgfx::Callback<FrontendApplicationBase, void, void>::operator =(const touchgfx::Callback<FrontendApplicationBase, void, void>&)
    frontendapplicationbase.o(i._ZN23FrontendApplicationBase32gotomainScreenScreenNoTransitionEv) refers to frontendapplicationbase.o(i._ZN8touchgfx8CallbackI23FrontendApplicationBasevvED1Ev) for touchgfx::Callback<FrontendApplicationBase, void, void>::~Callback()
    frontendapplicationbase.o(i._ZN23FrontendApplicationBase32gotomainScreenScreenNoTransitionEv) refers to frontendapplicationbase.o(.constdata) for <Data1>
    frontendapplicationbase.o(i._ZN23FrontendApplicationBase33gotoScreen1ScreenNoTransitionImplEv) refers to frontendapplicationbase.o(t._ZN8touchgfx14makeTransitionI11Screen1View16Screen1PresenterNS_12NoTransitionE5ModelEEPT0_PPNS_6ScreenEPPNS_9PresenterERNS_7MVPHeapEPPNS_10TransitionEPT2_) for T2* touchgfx::makeTransition<Screen1View, Screen1Presenter, touchgfx::NoTransition, Model>(touchgfx::Screen**, touchgfx::Presenter**, touchgfx::MVPHeap&, touchgfx::Transition**, T4*)
    frontendapplicationbase.o(i._ZN23FrontendApplicationBase33gotoScreen1ScreenNoTransitionImplEv) refers to application.o(.data) for touchgfx::Application::currentTransition
    frontendapplicationbase.o(i._ZN23FrontendApplicationBase36gotomainScreenScreenNoTransitionImplEv) refers to frontendapplicationbase.o(t._ZN8touchgfx14makeTransitionI14mainScreenView19mainScreenPresenterNS_12NoTransitionE5ModelEEPT0_PPNS_6ScreenEPPNS_9PresenterERNS_7MVPHeapEPPNS_10TransitionEPT2_) for T2* touchgfx::makeTransition<mainScreenView, mainScreenPresenter, touchgfx::NoTransition, Model>(touchgfx::Screen**, touchgfx::Presenter**, touchgfx::MVPHeap&, touchgfx::Transition**, T4*)
    frontendapplicationbase.o(i._ZN23FrontendApplicationBase36gotomainScreenScreenNoTransitionImplEv) refers to application.o(.data) for touchgfx::Application::currentTransition
    frontendapplicationbase.o(i._ZN23FrontendApplicationBase39gotomainScreenScreenSlideTransitionWestEv) refers to frontendapplicationbase.o(t._ZN8touchgfx8CallbackI23FrontendApplicationBasevvEC1EPS1_MS1_FvvE) for touchgfx::Callback<FrontendApplicationBase, void, void>::Callback(FrontendApplicationBase*, void(FrontendApplicationBase::*)())
    frontendapplicationbase.o(i._ZN23FrontendApplicationBase39gotomainScreenScreenSlideTransitionWestEv) refers to frontendapplicationbase.o(i._ZN8touchgfx8CallbackI23FrontendApplicationBasevvEaSERKS2_) for touchgfx::Callback<FrontendApplicationBase, void, void>::operator =(const touchgfx::Callback<FrontendApplicationBase, void, void>&)
    frontendapplicationbase.o(i._ZN23FrontendApplicationBase39gotomainScreenScreenSlideTransitionWestEv) refers to frontendapplicationbase.o(i._ZN8touchgfx8CallbackI23FrontendApplicationBasevvED1Ev) for touchgfx::Callback<FrontendApplicationBase, void, void>::~Callback()
    frontendapplicationbase.o(i._ZN23FrontendApplicationBase39gotomainScreenScreenSlideTransitionWestEv) refers to frontendapplicationbase.o(.constdata) for <Data2>
    frontendapplicationbase.o(i._ZN23FrontendApplicationBase43gotomainScreenScreenSlideTransitionWestImplEv) refers to frontendapplicationbase.o(t._ZN8touchgfx14makeTransitionI14mainScreenView19mainScreenPresenterNS_15SlideTransitionILNS_9DirectionE3EEE5ModelEEPT0_PPNS_6ScreenEPPNS_9PresenterERNS_7MVPHeapEPPNS_10TransitionEPT2_) for T2* touchgfx::makeTransition<mainScreenView, mainScreenPresenter, touchgfx::SlideTransition<(touchgfx::Direction)3>, Model>(touchgfx::Screen**, touchgfx::Presenter**, touchgfx::MVPHeap&, touchgfx::Transition**, T4*)
    frontendapplicationbase.o(i._ZN23FrontendApplicationBase43gotomainScreenScreenSlideTransitionWestImplEv) refers to application.o(.data) for touchgfx::Application::currentTransition
    frontendapplicationbase.o(i._ZN23FrontendApplicationBase43gotosettingsScreenScreenSlideTransitionEastEv) refers to frontendapplicationbase.o(t._ZN8touchgfx8CallbackI23FrontendApplicationBasevvEC1EPS1_MS1_FvvE) for touchgfx::Callback<FrontendApplicationBase, void, void>::Callback(FrontendApplicationBase*, void(FrontendApplicationBase::*)())
    frontendapplicationbase.o(i._ZN23FrontendApplicationBase43gotosettingsScreenScreenSlideTransitionEastEv) refers to frontendapplicationbase.o(i._ZN8touchgfx8CallbackI23FrontendApplicationBasevvEaSERKS2_) for touchgfx::Callback<FrontendApplicationBase, void, void>::operator =(const touchgfx::Callback<FrontendApplicationBase, void, void>&)
    frontendapplicationbase.o(i._ZN23FrontendApplicationBase43gotosettingsScreenScreenSlideTransitionEastEv) refers to frontendapplicationbase.o(i._ZN8touchgfx8CallbackI23FrontendApplicationBasevvED1Ev) for touchgfx::Callback<FrontendApplicationBase, void, void>::~Callback()
    frontendapplicationbase.o(i._ZN23FrontendApplicationBase43gotosettingsScreenScreenSlideTransitionEastEv) refers to frontendapplicationbase.o(.constdata) for <Data3>
    frontendapplicationbase.o(i._ZN23FrontendApplicationBase43gotosettingsScreenScreenSlideTransitionWestEv) refers to frontendapplicationbase.o(t._ZN8touchgfx8CallbackI23FrontendApplicationBasevvEC1EPS1_MS1_FvvE) for touchgfx::Callback<FrontendApplicationBase, void, void>::Callback(FrontendApplicationBase*, void(FrontendApplicationBase::*)())
    frontendapplicationbase.o(i._ZN23FrontendApplicationBase43gotosettingsScreenScreenSlideTransitionWestEv) refers to frontendapplicationbase.o(i._ZN8touchgfx8CallbackI23FrontendApplicationBasevvEaSERKS2_) for touchgfx::Callback<FrontendApplicationBase, void, void>::operator =(const touchgfx::Callback<FrontendApplicationBase, void, void>&)
    frontendapplicationbase.o(i._ZN23FrontendApplicationBase43gotosettingsScreenScreenSlideTransitionWestEv) refers to frontendapplicationbase.o(i._ZN8touchgfx8CallbackI23FrontendApplicationBasevvED1Ev) for touchgfx::Callback<FrontendApplicationBase, void, void>::~Callback()
    frontendapplicationbase.o(i._ZN23FrontendApplicationBase43gotosettingsScreenScreenSlideTransitionWestEv) refers to frontendapplicationbase.o(.constdata) for <Data4>
    frontendapplicationbase.o(i._ZN23FrontendApplicationBase47gotosettingsScreenScreenSlideTransitionEastImplEv) refers to frontendapplicationbase.o(t._ZN8touchgfx14makeTransitionI18settingsScreenView23settingsScreenPresenterNS_15SlideTransitionILNS_9DirectionE2EEE5ModelEEPT0_PPNS_6ScreenEPPNS_9PresenterERNS_7MVPHeapEPPNS_10TransitionEPT2_) for T2* touchgfx::makeTransition<settingsScreenView, settingsScreenPresenter, touchgfx::SlideTransition<(touchgfx::Direction)2>, Model>(touchgfx::Screen**, touchgfx::Presenter**, touchgfx::MVPHeap&, touchgfx::Transition**, T4*)
    frontendapplicationbase.o(i._ZN23FrontendApplicationBase47gotosettingsScreenScreenSlideTransitionEastImplEv) refers to application.o(.data) for touchgfx::Application::currentTransition
    frontendapplicationbase.o(i._ZN23FrontendApplicationBase47gotosettingsScreenScreenSlideTransitionWestImplEv) refers to frontendapplicationbase.o(t._ZN8touchgfx14makeTransitionI18settingsScreenView23settingsScreenPresenterNS_15SlideTransitionILNS_9DirectionE3EEE5ModelEEPT0_PPNS_6ScreenEPPNS_9PresenterERNS_7MVPHeapEPPNS_10TransitionEPT2_) for T2* touchgfx::makeTransition<settingsScreenView, settingsScreenPresenter, touchgfx::SlideTransition<(touchgfx::Direction)3>, Model>(touchgfx::Screen**, touchgfx::Presenter**, touchgfx::MVPHeap&, touchgfx::Transition**, T4*)
    frontendapplicationbase.o(i._ZN23FrontendApplicationBase47gotosettingsScreenScreenSlideTransitionWestImplEv) refers to application.o(.data) for touchgfx::Application::currentTransition
    frontendapplicationbase.o(i._ZN23FrontendApplicationBase51gotodateTimeSettingsScreenScreenSlideTransitionEastEv) refers to frontendapplicationbase.o(t._ZN8touchgfx8CallbackI23FrontendApplicationBasevvEC1EPS1_MS1_FvvE) for touchgfx::Callback<FrontendApplicationBase, void, void>::Callback(FrontendApplicationBase*, void(FrontendApplicationBase::*)())
    frontendapplicationbase.o(i._ZN23FrontendApplicationBase51gotodateTimeSettingsScreenScreenSlideTransitionEastEv) refers to frontendapplicationbase.o(i._ZN8touchgfx8CallbackI23FrontendApplicationBasevvEaSERKS2_) for touchgfx::Callback<FrontendApplicationBase, void, void>::operator =(const touchgfx::Callback<FrontendApplicationBase, void, void>&)
    frontendapplicationbase.o(i._ZN23FrontendApplicationBase51gotodateTimeSettingsScreenScreenSlideTransitionEastEv) refers to frontendapplicationbase.o(i._ZN8touchgfx8CallbackI23FrontendApplicationBasevvED1Ev) for touchgfx::Callback<FrontendApplicationBase, void, void>::~Callback()
    frontendapplicationbase.o(i._ZN23FrontendApplicationBase51gotodateTimeSettingsScreenScreenSlideTransitionEastEv) refers to frontendapplicationbase.o(.constdata) for <Data6>
    frontendapplicationbase.o(i._ZN23FrontendApplicationBase51gotodayNightSettingsScreenScreenSlideTransitionEastEv) refers to frontendapplicationbase.o(t._ZN8touchgfx8CallbackI23FrontendApplicationBasevvEC1EPS1_MS1_FvvE) for touchgfx::Callback<FrontendApplicationBase, void, void>::Callback(FrontendApplicationBase*, void(FrontendApplicationBase::*)())
    frontendapplicationbase.o(i._ZN23FrontendApplicationBase51gotodayNightSettingsScreenScreenSlideTransitionEastEv) refers to frontendapplicationbase.o(i._ZN8touchgfx8CallbackI23FrontendApplicationBasevvEaSERKS2_) for touchgfx::Callback<FrontendApplicationBase, void, void>::operator =(const touchgfx::Callback<FrontendApplicationBase, void, void>&)
    frontendapplicationbase.o(i._ZN23FrontendApplicationBase51gotodayNightSettingsScreenScreenSlideTransitionEastEv) refers to frontendapplicationbase.o(i._ZN8touchgfx8CallbackI23FrontendApplicationBasevvED1Ev) for touchgfx::Callback<FrontendApplicationBase, void, void>::~Callback()
    frontendapplicationbase.o(i._ZN23FrontendApplicationBase51gotodayNightSettingsScreenScreenSlideTransitionEastEv) refers to frontendapplicationbase.o(.constdata) for <Data7>
    frontendapplicationbase.o(i._ZN23FrontendApplicationBase51gotoopConfigSettingsScreenScreenSlideTransitionEastEv) refers to frontendapplicationbase.o(t._ZN8touchgfx8CallbackI23FrontendApplicationBasevvEC1EPS1_MS1_FvvE) for touchgfx::Callback<FrontendApplicationBase, void, void>::Callback(FrontendApplicationBase*, void(FrontendApplicationBase::*)())
    frontendapplicationbase.o(i._ZN23FrontendApplicationBase51gotoopConfigSettingsScreenScreenSlideTransitionEastEv) refers to frontendapplicationbase.o(i._ZN8touchgfx8CallbackI23FrontendApplicationBasevvEaSERKS2_) for touchgfx::Callback<FrontendApplicationBase, void, void>::operator =(const touchgfx::Callback<FrontendApplicationBase, void, void>&)
    frontendapplicationbase.o(i._ZN23FrontendApplicationBase51gotoopConfigSettingsScreenScreenSlideTransitionEastEv) refers to frontendapplicationbase.o(i._ZN8touchgfx8CallbackI23FrontendApplicationBasevvED1Ev) for touchgfx::Callback<FrontendApplicationBase, void, void>::~Callback()
    frontendapplicationbase.o(i._ZN23FrontendApplicationBase51gotoopConfigSettingsScreenScreenSlideTransitionEastEv) refers to frontendapplicationbase.o(.constdata) for <Data8>
    frontendapplicationbase.o(i._ZN23FrontendApplicationBase51gototempHumiSettingsScreenScreenSlideTransitionEastEv) refers to frontendapplicationbase.o(t._ZN8touchgfx8CallbackI23FrontendApplicationBasevvEC1EPS1_MS1_FvvE) for touchgfx::Callback<FrontendApplicationBase, void, void>::Callback(FrontendApplicationBase*, void(FrontendApplicationBase::*)())
    frontendapplicationbase.o(i._ZN23FrontendApplicationBase51gototempHumiSettingsScreenScreenSlideTransitionEastEv) refers to frontendapplicationbase.o(i._ZN8touchgfx8CallbackI23FrontendApplicationBasevvEaSERKS2_) for touchgfx::Callback<FrontendApplicationBase, void, void>::operator =(const touchgfx::Callback<FrontendApplicationBase, void, void>&)
    frontendapplicationbase.o(i._ZN23FrontendApplicationBase51gototempHumiSettingsScreenScreenSlideTransitionEastEv) refers to frontendapplicationbase.o(i._ZN8touchgfx8CallbackI23FrontendApplicationBasevvED1Ev) for touchgfx::Callback<FrontendApplicationBase, void, void>::~Callback()
    frontendapplicationbase.o(i._ZN23FrontendApplicationBase51gototempHumiSettingsScreenScreenSlideTransitionEastEv) refers to frontendapplicationbase.o(.constdata) for <Data5>
    frontendapplicationbase.o(i._ZN23FrontendApplicationBase55gotodateTimeSettingsScreenScreenSlideTransitionEastImplEv) refers to frontendapplicationbase.o(t._ZN8touchgfx14makeTransitionI26dateTimeSettingsScreenView31dateTimeSettingsScreenPresenterNS_15SlideTransitionILNS_9DirectionE2EEE5ModelEEPT0_PPNS_6ScreenEPPNS_9PresenterERNS_7MVPHeapEPPNS_10TransitionEPT2_) for T2* touchgfx::makeTransition<dateTimeSettingsScreenView, dateTimeSettingsScreenPresenter, touchgfx::SlideTransition<(touchgfx::Direction)2>, Model>(touchgfx::Screen**, touchgfx::Presenter**, touchgfx::MVPHeap&, touchgfx::Transition**, T4*)
    frontendapplicationbase.o(i._ZN23FrontendApplicationBase55gotodateTimeSettingsScreenScreenSlideTransitionEastImplEv) refers to application.o(.data) for touchgfx::Application::currentTransition
    frontendapplicationbase.o(i._ZN23FrontendApplicationBase55gotodayNightSettingsScreenScreenSlideTransitionEastImplEv) refers to frontendapplicationbase.o(t._ZN8touchgfx14makeTransitionI26dayNightSettingsScreenView31dayNightSettingsScreenPresenterNS_15SlideTransitionILNS_9DirectionE2EEE5ModelEEPT0_PPNS_6ScreenEPPNS_9PresenterERNS_7MVPHeapEPPNS_10TransitionEPT2_) for T2* touchgfx::makeTransition<dayNightSettingsScreenView, dayNightSettingsScreenPresenter, touchgfx::SlideTransition<(touchgfx::Direction)2>, Model>(touchgfx::Screen**, touchgfx::Presenter**, touchgfx::MVPHeap&, touchgfx::Transition**, T4*)
    frontendapplicationbase.o(i._ZN23FrontendApplicationBase55gotodayNightSettingsScreenScreenSlideTransitionEastImplEv) refers to application.o(.data) for touchgfx::Application::currentTransition
    frontendapplicationbase.o(i._ZN23FrontendApplicationBase55gotoopConfigSettingsScreenScreenSlideTransitionEastImplEv) refers to frontendapplicationbase.o(t._ZN8touchgfx14makeTransitionI26opConfigSettingsScreenView31opConfigSettingsScreenPresenterNS_15SlideTransitionILNS_9DirectionE2EEE5ModelEEPT0_PPNS_6ScreenEPPNS_9PresenterERNS_7MVPHeapEPPNS_10TransitionEPT2_) for T2* touchgfx::makeTransition<opConfigSettingsScreenView, opConfigSettingsScreenPresenter, touchgfx::SlideTransition<(touchgfx::Direction)2>, Model>(touchgfx::Screen**, touchgfx::Presenter**, touchgfx::MVPHeap&, touchgfx::Transition**, T4*)
    frontendapplicationbase.o(i._ZN23FrontendApplicationBase55gotoopConfigSettingsScreenScreenSlideTransitionEastImplEv) refers to application.o(.data) for touchgfx::Application::currentTransition
    frontendapplicationbase.o(i._ZN23FrontendApplicationBase55gototempHumiSettingsScreenScreenSlideTransitionEastImplEv) refers to frontendapplicationbase.o(t._ZN8touchgfx14makeTransitionI26tempHumiSettingsScreenView31tempHumiSettingsScreenPresenterNS_15SlideTransitionILNS_9DirectionE2EEE5ModelEEPT0_PPNS_6ScreenEPPNS_9PresenterERNS_7MVPHeapEPPNS_10TransitionEPT2_) for T2* touchgfx::makeTransition<tempHumiSettingsScreenView, tempHumiSettingsScreenPresenter, touchgfx::SlideTransition<(touchgfx::Direction)2>, Model>(touchgfx::Screen**, touchgfx::Presenter**, touchgfx::MVPHeap&, touchgfx::Transition**, T4*)
    frontendapplicationbase.o(i._ZN23FrontendApplicationBase55gototempHumiSettingsScreenScreenSlideTransitionEastImplEv) refers to application.o(.data) for touchgfx::Application::currentTransition
    frontendapplicationbase.o(i._ZN23FrontendApplicationBaseC1ER5ModelR12FrontendHeap) refers to application.o(i._ZN8touchgfx11ApplicationC1Ev) for touchgfx::Application::Application()
    frontendapplicationbase.o(i._ZN23FrontendApplicationBaseC1ER5ModelR12FrontendHeap) refers to frontendapplicationbase.o(i._ZN8touchgfx15GenericCallbackIvvEC2Ev) for touchgfx::GenericCallback<void, void>::GenericCallback__sub_object()
    frontendapplicationbase.o(i._ZN23FrontendApplicationBaseC1ER5ModelR12FrontendHeap) refers to frontendapplicationbase.o(.constdata__ZTVN8touchgfx14MVPApplicationE) for vtable for touchgfx::MVPApplication
    frontendapplicationbase.o(i._ZN23FrontendApplicationBaseC1ER5ModelR12FrontendHeap) refers to application.o(.data) for touchgfx::Application::instance
    frontendapplicationbase.o(i._ZN23FrontendApplicationBaseC1ER5ModelR12FrontendHeap) refers to frontendapplication.o(.constdata__ZTV23FrontendApplicationBase) for vtable for FrontendApplicationBase
    frontendapplicationbase.o(i._ZN23FrontendApplicationBaseC1ER5ModelR12FrontendHeap) refers to frontendapplicationbase.o(.constdata__ZTVN8touchgfx8CallbackI23FrontendApplicationBasevvEE) for vtable for touchgfx::Callback<FrontendApplicationBase, void, void>
    frontendapplicationbase.o(i._ZN23FrontendApplicationBaseC1ER5ModelR12FrontendHeap) refers to frontendapplicationbase.o(.constdata) for <Data14>
    frontendapplicationbase.o(i._ZN8touchgfx17prepareTransitionEPPNS_6ScreenEPPNS_9PresenterEPPNS_10TransitionE) refers to application.o(i._ZN8touchgfx11Application11getInstanceEv) for touchgfx::Application::getInstance()
    frontendapplicationbase.o(i._ZN8touchgfx17prepareTransitionEPPNS_6ScreenEPPNS_9PresenterEPPNS_10TransitionE) refers to application.o(i._ZN8touchgfx11Application20clearAllTimerWidgetsEv) for touchgfx::Application::clearAllTimerWidgets()
    frontendapplicationbase.o(i._ZN8touchgfx18finalizeTransitionEPNS_6ScreenEPNS_9PresenterEPNS_10TransitionE) refers to screen.o(i._ZN8touchgfx6Screen14bindTransitionERNS_10TransitionE) for touchgfx::Screen::bindTransition(touchgfx::Transition&)
    frontendapplicationbase.o(i._ZN8touchgfx18finalizeTransitionEPNS_6ScreenEPNS_9PresenterEPNS_10TransitionE) refers to application.o(i._ZN8touchgfx11Application11getInstanceEv) for touchgfx::Application::getInstance()
    frontendapplicationbase.o(.ARM.exidx) refers to frontendapplicationbase.o(i._ZN23FrontendApplicationBaseC1ER5ModelR12FrontendHeap) for i._ZN23FrontendApplicationBaseC1ER5ModelR12FrontendHeap
    frontendapplicationbase.o(.ARM.exidx) refers to frontendapplicationbase.o(i._ZN23FrontendApplicationBase32gotomainScreenScreenNoTransitionEv) for i._ZN23FrontendApplicationBase32gotomainScreenScreenNoTransitionEv
    frontendapplicationbase.o(.ARM.exidx) refers to frontendapplicationbase.o(i._ZN23FrontendApplicationBase39gotomainScreenScreenSlideTransitionWestEv) for i._ZN23FrontendApplicationBase39gotomainScreenScreenSlideTransitionWestEv
    frontendapplicationbase.o(.ARM.exidx) refers to frontendapplicationbase.o(i._ZN23FrontendApplicationBase43gotosettingsScreenScreenSlideTransitionEastEv) for i._ZN23FrontendApplicationBase43gotosettingsScreenScreenSlideTransitionEastEv
    frontendapplicationbase.o(.ARM.exidx) refers to frontendapplicationbase.o(i._ZN23FrontendApplicationBase43gotosettingsScreenScreenSlideTransitionWestEv) for i._ZN23FrontendApplicationBase43gotosettingsScreenScreenSlideTransitionWestEv
    frontendapplicationbase.o(.ARM.exidx) refers to frontendapplicationbase.o(i._ZN23FrontendApplicationBase51gototempHumiSettingsScreenScreenSlideTransitionEastEv) for i._ZN23FrontendApplicationBase51gototempHumiSettingsScreenScreenSlideTransitionEastEv
    frontendapplicationbase.o(.ARM.exidx) refers to frontendapplicationbase.o(i._ZN23FrontendApplicationBase51gotodateTimeSettingsScreenScreenSlideTransitionEastEv) for i._ZN23FrontendApplicationBase51gotodateTimeSettingsScreenScreenSlideTransitionEastEv
    frontendapplicationbase.o(.ARM.exidx) refers to frontendapplicationbase.o(i._ZN23FrontendApplicationBase51gotodayNightSettingsScreenScreenSlideTransitionEastEv) for i._ZN23FrontendApplicationBase51gotodayNightSettingsScreenScreenSlideTransitionEastEv
    frontendapplicationbase.o(.ARM.exidx) refers to frontendapplicationbase.o(i._ZN23FrontendApplicationBase51gotoopConfigSettingsScreenScreenSlideTransitionEastEv) for i._ZN23FrontendApplicationBase51gotoopConfigSettingsScreenScreenSlideTransitionEastEv
    frontendapplicationbase.o(.ARM.exidx) refers to frontendapplicationbase.o(i._ZN23FrontendApplicationBase29gotoScreen1ScreenNoTransitionEv) for i._ZN23FrontendApplicationBase29gotoScreen1ScreenNoTransitionEv
    frontendapplicationbase.o(.ARM.exidx) refers to frontendapplicationbase.o(i._ZN8touchgfx18finalizeTransitionEPNS_6ScreenEPNS_9PresenterEPNS_10TransitionE) for i._ZN8touchgfx18finalizeTransitionEPNS_6ScreenEPNS_9PresenterEPNS_10TransitionE
    frontendapplicationbase.o(.ARM.exidx) refers to frontendapplicationbase.o(i._ZN8touchgfx17prepareTransitionEPPNS_6ScreenEPPNS_9PresenterEPPNS_10TransitionE) for i._ZN8touchgfx17prepareTransitionEPPNS_6ScreenEPPNS_9PresenterEPPNS_10TransitionE
    frontendapplicationbase.o(.ARM.exidx) refers to frontendapplicationbase.o(i._ZN23FrontendApplicationBase36gotomainScreenScreenNoTransitionImplEv) for i._ZN23FrontendApplicationBase36gotomainScreenScreenNoTransitionImplEv
    frontendapplicationbase.o(.ARM.exidx) refers to frontendapplicationbase.o(i._ZN23FrontendApplicationBase43gotomainScreenScreenSlideTransitionWestImplEv) for i._ZN23FrontendApplicationBase43gotomainScreenScreenSlideTransitionWestImplEv
    frontendapplicationbase.o(.ARM.exidx) refers to frontendapplicationbase.o(i._ZN23FrontendApplicationBase47gotosettingsScreenScreenSlideTransitionEastImplEv) for i._ZN23FrontendApplicationBase47gotosettingsScreenScreenSlideTransitionEastImplEv
    frontendapplicationbase.o(.ARM.exidx) refers to frontendapplicationbase.o(i._ZN23FrontendApplicationBase47gotosettingsScreenScreenSlideTransitionWestImplEv) for i._ZN23FrontendApplicationBase47gotosettingsScreenScreenSlideTransitionWestImplEv
    frontendapplicationbase.o(.ARM.exidx) refers to frontendapplicationbase.o(i._ZN23FrontendApplicationBase55gototempHumiSettingsScreenScreenSlideTransitionEastImplEv) for i._ZN23FrontendApplicationBase55gototempHumiSettingsScreenScreenSlideTransitionEastImplEv
    frontendapplicationbase.o(.ARM.exidx) refers to frontendapplicationbase.o(i._ZN23FrontendApplicationBase55gotodateTimeSettingsScreenScreenSlideTransitionEastImplEv) for i._ZN23FrontendApplicationBase55gotodateTimeSettingsScreenScreenSlideTransitionEastImplEv
    frontendapplicationbase.o(.ARM.exidx) refers to frontendapplicationbase.o(i._ZN23FrontendApplicationBase55gotodayNightSettingsScreenScreenSlideTransitionEastImplEv) for i._ZN23FrontendApplicationBase55gotodayNightSettingsScreenScreenSlideTransitionEastImplEv
    frontendapplicationbase.o(.ARM.exidx) refers to frontendapplicationbase.o(i._ZN23FrontendApplicationBase55gotoopConfigSettingsScreenScreenSlideTransitionEastImplEv) for i._ZN23FrontendApplicationBase55gotoopConfigSettingsScreenScreenSlideTransitionEastImplEv
    frontendapplicationbase.o(.ARM.exidx) refers to frontendapplicationbase.o(i._ZN23FrontendApplicationBase33gotoScreen1ScreenNoTransitionImplEv) for i._ZN23FrontendApplicationBase33gotoScreen1ScreenNoTransitionImplEv
    frontendapplicationbase.o(.constdata) refers to frontendapplicationbase.o(i._ZN23FrontendApplicationBase36gotomainScreenScreenNoTransitionImplEv) for FrontendApplicationBase::gotomainScreenScreenNoTransitionImpl()
    frontendapplicationbase.o(.constdata) refers to frontendapplicationbase.o(i._ZN23FrontendApplicationBase43gotomainScreenScreenSlideTransitionWestImplEv) for FrontendApplicationBase::gotomainScreenScreenSlideTransitionWestImpl()
    frontendapplicationbase.o(.constdata) refers to frontendapplicationbase.o(i._ZN23FrontendApplicationBase47gotosettingsScreenScreenSlideTransitionEastImplEv) for FrontendApplicationBase::gotosettingsScreenScreenSlideTransitionEastImpl()
    frontendapplicationbase.o(.constdata) refers to frontendapplicationbase.o(i._ZN23FrontendApplicationBase47gotosettingsScreenScreenSlideTransitionWestImplEv) for FrontendApplicationBase::gotosettingsScreenScreenSlideTransitionWestImpl()
    frontendapplicationbase.o(.constdata) refers to frontendapplicationbase.o(i._ZN23FrontendApplicationBase55gototempHumiSettingsScreenScreenSlideTransitionEastImplEv) for FrontendApplicationBase::gototempHumiSettingsScreenScreenSlideTransitionEastImpl()
    frontendapplicationbase.o(.constdata) refers to frontendapplicationbase.o(i._ZN23FrontendApplicationBase55gotodateTimeSettingsScreenScreenSlideTransitionEastImplEv) for FrontendApplicationBase::gotodateTimeSettingsScreenScreenSlideTransitionEastImpl()
    frontendapplicationbase.o(.constdata) refers to frontendapplicationbase.o(i._ZN23FrontendApplicationBase55gotodayNightSettingsScreenScreenSlideTransitionEastImplEv) for FrontendApplicationBase::gotodayNightSettingsScreenScreenSlideTransitionEastImpl()
    frontendapplicationbase.o(.constdata) refers to frontendapplicationbase.o(i._ZN23FrontendApplicationBase55gotoopConfigSettingsScreenScreenSlideTransitionEastImplEv) for FrontendApplicationBase::gotoopConfigSettingsScreenScreenSlideTransitionEastImpl()
    frontendapplicationbase.o(.constdata) refers to frontendapplicationbase.o(i._ZN23FrontendApplicationBase33gotoScreen1ScreenNoTransitionImplEv) for FrontendApplicationBase::gotoScreen1ScreenNoTransitionImpl()
    mainscreenviewbase.o(i._ZN18mainScreenViewBase21buttonCallbackHandlerERKN8touchgfx14AbstractButtonE) refers to application.o(i._ZN8touchgfx11Application11getInstanceEv) for touchgfx::Application::getInstance()
    mainscreenviewbase.o(i._ZN18mainScreenViewBase21buttonCallbackHandlerERKN8touchgfx14AbstractButtonE) refers to frontendapplicationbase.o(i._ZN23FrontendApplicationBase43gotosettingsScreenScreenSlideTransitionEastEv) for FrontendApplicationBase::gotosettingsScreenScreenSlideTransitionEast()
    mainscreenviewbase.o(i._ZN18mainScreenViewBase21buttonCallbackHandlerERKN8touchgfx14AbstractButtonE) refers to frontendapplicationbase.o(i._ZN23FrontendApplicationBase29gotoScreen1ScreenNoTransitionEv) for FrontendApplicationBase::gotoScreen1ScreenNoTransition()
    mainscreenviewbase.o(i._ZN18mainScreenViewBaseC1Ev) refers to screen.o(i._ZN8touchgfx6ScreenC1Ev) for touchgfx::Screen::Screen()
    mainscreenviewbase.o(i._ZN18mainScreenViewBaseC1Ev) refers to datetimesettingsscreenviewbase.o(i._ZN8touchgfx6BitmapC1Et) for touchgfx::Bitmap::Bitmap(unsigned short)
    mainscreenviewbase.o(i._ZN18mainScreenViewBaseC1Ev) refers to datetimesettingsscreenviewbase.o(i._ZN8touchgfx6WidgetC2Ev) for touchgfx::Widget::Widget__sub_object()
    mainscreenviewbase.o(i._ZN18mainScreenViewBaseC1Ev) refers to image.o(i._ZN8touchgfx5Image9setBitmapERKNS_6BitmapE) for touchgfx::Image::setBitmap(const touchgfx::Bitmap&)
    mainscreenviewbase.o(i._ZN18mainScreenViewBaseC1Ev) refers to buttonwithicon.o(i._ZN8touchgfx14ButtonWithIconC1Ev) for touchgfx::ButtonWithIcon::ButtonWithIcon()
    mainscreenviewbase.o(i._ZN18mainScreenViewBaseC1Ev) refers to datetimesettingsscreenviewbase.o(i._ZN8touchgfx8TextAreaC1Ev) for touchgfx::TextArea::TextArea()
    mainscreenviewbase.o(i._ZN18mainScreenViewBaseC1Ev) refers to togglebutton.o(i._ZN8touchgfx12ToggleButtonC1Ev) for touchgfx::ToggleButton::ToggleButton()
    mainscreenviewbase.o(i._ZN18mainScreenViewBaseC1Ev) refers to datetimesettingsscreenviewbase.o(i._ZN8touchgfx23TextAreaWithOneWildcardC1Ev) for touchgfx::TextAreaWithOneWildcard::TextAreaWithOneWildcard()
    mainscreenviewbase.o(i._ZN18mainScreenViewBaseC1Ev) refers to datetimesettingsscreenviewbase.o(i._ZN8touchgfx8Drawable5setXYEss) for touchgfx::Drawable::setXY(short, short)
    mainscreenviewbase.o(i._ZN18mainScreenViewBaseC1Ev) refers to datetimesettingsscreenviewbase.o(i._ZN8touchgfx8Drawable11setPositionEssss) for touchgfx::Drawable::setPosition(short, short, short, short)
    mainscreenviewbase.o(i._ZN18mainScreenViewBaseC1Ev) refers to buttonwithicon.o(i._ZN8touchgfx14ButtonWithIcon10setBitmapsERKNS_6BitmapES3_S3_S3_) for touchgfx::ButtonWithIcon::setBitmaps(const touchgfx::Bitmap&, const touchgfx::Bitmap&, const touchgfx::Bitmap&, const touchgfx::Bitmap&)
    mainscreenviewbase.o(i._ZN18mainScreenViewBaseC1Ev) refers to datetimesettingsscreenviewbase.o(i._ZN8touchgfx14ButtonWithIcon9setIconXYEss) for touchgfx::ButtonWithIcon::setIconXY(short, short)
    mainscreenviewbase.o(i._ZN18mainScreenViewBaseC1Ev) refers to datetimesettingsscreenviewbase.o(i._ZN8touchgfx14AbstractButton9setActionERNS_15GenericCallbackIRKS0_vEE) for touchgfx::AbstractButton::setAction(touchgfx::GenericCallback<const touchgfx::AbstractButton&, void>&)
    mainscreenviewbase.o(i._ZN18mainScreenViewBaseC1Ev) refers to color.o(i._ZN8touchgfx5Color20getColorFrom24BitRGBEhhh) for touchgfx::Color::getColorFrom24BitRGB(unsigned char, unsigned char, unsigned char)
    mainscreenviewbase.o(i._ZN18mainScreenViewBaseC1Ev) refers to datetimesettingsscreenviewbase.o(i._ZN8touchgfx8TextArea8setColorENS_9colortypeE) for touchgfx::TextArea::setColor(touchgfx::colortype)
    mainscreenviewbase.o(i._ZN18mainScreenViewBaseC1Ev) refers to datetimesettingsscreenviewbase.o(i._ZN8touchgfx8TextArea14setLinespacingEt) for touchgfx::TextArea::setLinespacing(unsigned short)
    mainscreenviewbase.o(i._ZN18mainScreenViewBaseC1Ev) refers to datetimesettingsscreenviewbase.o(i._ZN8touchgfx9TypedTextC1Et) for touchgfx::TypedText::TypedText(unsigned short)
    mainscreenviewbase.o(i._ZN18mainScreenViewBaseC1Ev) refers to textarea.o(i._ZN8touchgfx8TextArea12setTypedTextENS_9TypedTextE) for touchgfx::TextArea::setTypedText(touchgfx::TypedText)
    mainscreenviewbase.o(i._ZN18mainScreenViewBaseC1Ev) refers to datetimesettingsscreenviewbase.o(i._ZN8touchgfx8TextArea8setAlphaEh) for touchgfx::TextArea::setAlpha(unsigned char)
    mainscreenviewbase.o(i._ZN18mainScreenViewBaseC1Ev) refers to mainscreenviewbase.o(i._ZN8touchgfx12ToggleButton10setBitmapsERKNS_6BitmapES3_) for touchgfx::ToggleButton::setBitmaps(const touchgfx::Bitmap&, const touchgfx::Bitmap&)
    mainscreenviewbase.o(i._ZN18mainScreenViewBaseC1Ev) refers to mainscreenviewbase.o(.constdata__ZTVN8touchgfx4ViewI19mainScreenPresenterEE) for vtable for touchgfx::View<mainScreenPresenter>
    mainscreenviewbase.o(i._ZN18mainScreenViewBaseC1Ev) refers to mainscreenview.o(.constdata__ZTV18mainScreenViewBase) for vtable for mainScreenViewBase
    mainscreenviewbase.o(i._ZN18mainScreenViewBaseC1Ev) refers to image.o(.constdata__ZTVN8touchgfx5ImageE) for vtable for touchgfx::Image
    mainscreenviewbase.o(i._ZN18mainScreenViewBaseC1Ev) refers to mainscreenviewbase.o(.constdata) for <Data1>
    mainscreenviewbase.o(i._ZN18mainScreenViewBaseC1Ev) refers to datetimesettingsscreenviewbase.o(.constdata__ZTVN8touchgfx15GenericCallbackIRKNS_14AbstractButtonEvEE) for vtable for touchgfx::GenericCallback<const touchgfx::AbstractButton&, void>
    mainscreenviewbase.o(i._ZN18mainScreenViewBaseC1Ev) refers to mainscreenviewbase.o(.constdata__ZTVN8touchgfx8CallbackI18mainScreenViewBaseRKNS_14AbstractButtonEvEE) for vtable for touchgfx::Callback<mainScreenViewBase, const touchgfx::AbstractButton&, void>
    mainscreenviewbase.o(i._ZN18mainScreenViewBaseC1Ev) refers to datetimesettingsscreenviewbase.o(i._ZN8touchgfx23TextAreaWithOneWildcard11setWildcardEPKt) for touchgfx::TextAreaWithOneWildcard::setWildcard(const unsigned short*)
    mainscreenviewbase.o(i._ZN18mainScreenViewBaseC1Ev) refers to datetimesettingsscreenviewbase.o(i._ZN8touchgfx6Screen3addERNS_8DrawableE) for touchgfx::Screen::add(touchgfx::Drawable&)
    mainscreenviewbase.o(.ARM.exidx) refers to mainscreenviewbase.o(i._ZN18mainScreenViewBaseC1Ev) for i._ZN18mainScreenViewBaseC1Ev
    mainscreenviewbase.o(.ARM.exidx) refers to mainscreenviewbase.o(i._ZN18mainScreenViewBase21buttonCallbackHandlerERKN8touchgfx14AbstractButtonE) for i._ZN18mainScreenViewBase21buttonCallbackHandlerERKN8touchgfx14AbstractButtonE
    mainscreenviewbase.o(.constdata) refers to mainscreenviewbase.o(i._ZN18mainScreenViewBase21buttonCallbackHandlerERKN8touchgfx14AbstractButtonE) for mainScreenViewBase::buttonCallbackHandler(const touchgfx::AbstractButton&)
    opconfigsettingsscreenviewbase.o(i._ZN30opConfigSettingsScreenViewBase21buttonCallbackHandlerERKN8touchgfx14AbstractButtonE) refers to application.o(i._ZN8touchgfx11Application11getInstanceEv) for touchgfx::Application::getInstance()
    opconfigsettingsscreenviewbase.o(i._ZN30opConfigSettingsScreenViewBase21buttonCallbackHandlerERKN8touchgfx14AbstractButtonE) refers to frontendapplicationbase.o(i._ZN23FrontendApplicationBase39gotomainScreenScreenSlideTransitionWestEv) for FrontendApplicationBase::gotomainScreenScreenSlideTransitionWest()
    opconfigsettingsscreenviewbase.o(i._ZN30opConfigSettingsScreenViewBase21buttonCallbackHandlerERKN8touchgfx14AbstractButtonE) refers to frontendapplicationbase.o(i._ZN23FrontendApplicationBase43gotosettingsScreenScreenSlideTransitionWestEv) for FrontendApplicationBase::gotosettingsScreenScreenSlideTransitionWest()
    opconfigsettingsscreenviewbase.o(i._ZN30opConfigSettingsScreenViewBaseC1Ev) refers to screen.o(i._ZN8touchgfx6ScreenC1Ev) for touchgfx::Screen::Screen()
    opconfigsettingsscreenviewbase.o(i._ZN30opConfigSettingsScreenViewBaseC1Ev) refers to datetimesettingsscreenviewbase.o(i._ZN8touchgfx6BitmapC1Et) for touchgfx::Bitmap::Bitmap(unsigned short)
    opconfigsettingsscreenviewbase.o(i._ZN30opConfigSettingsScreenViewBaseC1Ev) refers to datetimesettingsscreenviewbase.o(i._ZN8touchgfx6WidgetC2Ev) for touchgfx::Widget::Widget__sub_object()
    opconfigsettingsscreenviewbase.o(i._ZN30opConfigSettingsScreenViewBaseC1Ev) refers to image.o(i._ZN8touchgfx5Image9setBitmapERKNS_6BitmapE) for touchgfx::Image::setBitmap(const touchgfx::Bitmap&)
    opconfigsettingsscreenviewbase.o(i._ZN30opConfigSettingsScreenViewBaseC1Ev) refers to buttonwithicon.o(i._ZN8touchgfx14ButtonWithIconC1Ev) for touchgfx::ButtonWithIcon::ButtonWithIcon()
    opconfigsettingsscreenviewbase.o(i._ZN30opConfigSettingsScreenViewBaseC1Ev) refers to togglebutton.o(i._ZN8touchgfx12ToggleButtonC1Ev) for touchgfx::ToggleButton::ToggleButton()
    opconfigsettingsscreenviewbase.o(i._ZN30opConfigSettingsScreenViewBaseC1Ev) refers to datetimesettingsscreenviewbase.o(i._ZN8touchgfx8TextAreaC1Ev) for touchgfx::TextArea::TextArea()
    opconfigsettingsscreenviewbase.o(i._ZN30opConfigSettingsScreenViewBaseC1Ev) refers to datetimesettingsscreenviewbase.o(i._ZN8touchgfx8Drawable5setXYEss) for touchgfx::Drawable::setXY(short, short)
    opconfigsettingsscreenviewbase.o(i._ZN30opConfigSettingsScreenViewBaseC1Ev) refers to datetimesettingsscreenviewbase.o(i._ZN8touchgfx8Drawable11setPositionEssss) for touchgfx::Drawable::setPosition(short, short, short, short)
    opconfigsettingsscreenviewbase.o(i._ZN30opConfigSettingsScreenViewBaseC1Ev) refers to buttonwithicon.o(i._ZN8touchgfx14ButtonWithIcon10setBitmapsERKNS_6BitmapES3_S3_S3_) for touchgfx::ButtonWithIcon::setBitmaps(const touchgfx::Bitmap&, const touchgfx::Bitmap&, const touchgfx::Bitmap&, const touchgfx::Bitmap&)
    opconfigsettingsscreenviewbase.o(i._ZN30opConfigSettingsScreenViewBaseC1Ev) refers to datetimesettingsscreenviewbase.o(i._ZN8touchgfx14ButtonWithIcon9setIconXYEss) for touchgfx::ButtonWithIcon::setIconXY(short, short)
    opconfigsettingsscreenviewbase.o(i._ZN30opConfigSettingsScreenViewBaseC1Ev) refers to datetimesettingsscreenviewbase.o(i._ZN8touchgfx14AbstractButton9setActionERNS_15GenericCallbackIRKS0_vEE) for touchgfx::AbstractButton::setAction(touchgfx::GenericCallback<const touchgfx::AbstractButton&, void>&)
    opconfigsettingsscreenviewbase.o(i._ZN30opConfigSettingsScreenViewBaseC1Ev) refers to mainscreenviewbase.o(i._ZN8touchgfx12ToggleButton10setBitmapsERKNS_6BitmapES3_) for touchgfx::ToggleButton::setBitmaps(const touchgfx::Bitmap&, const touchgfx::Bitmap&)
    opconfigsettingsscreenviewbase.o(i._ZN30opConfigSettingsScreenViewBaseC1Ev) refers to opconfigsettingsscreenviewbase.o(.constdata__ZTVN8touchgfx4ViewI31opConfigSettingsScreenPresenterEE) for vtable for touchgfx::View<opConfigSettingsScreenPresenter>
    opconfigsettingsscreenviewbase.o(i._ZN30opConfigSettingsScreenViewBaseC1Ev) refers to opconfigsettingsscreenview.o(.constdata__ZTV30opConfigSettingsScreenViewBase) for vtable for opConfigSettingsScreenViewBase
    opconfigsettingsscreenviewbase.o(i._ZN30opConfigSettingsScreenViewBaseC1Ev) refers to image.o(.constdata__ZTVN8touchgfx5ImageE) for vtable for touchgfx::Image
    opconfigsettingsscreenviewbase.o(i._ZN30opConfigSettingsScreenViewBaseC1Ev) refers to opconfigsettingsscreenviewbase.o(.constdata) for <Data1>
    opconfigsettingsscreenviewbase.o(i._ZN30opConfigSettingsScreenViewBaseC1Ev) refers to datetimesettingsscreenviewbase.o(.constdata__ZTVN8touchgfx15GenericCallbackIRKNS_14AbstractButtonEvEE) for vtable for touchgfx::GenericCallback<const touchgfx::AbstractButton&, void>
    opconfigsettingsscreenviewbase.o(i._ZN30opConfigSettingsScreenViewBaseC1Ev) refers to opconfigsettingsscreenviewbase.o(.constdata__ZTVN8touchgfx8CallbackI30opConfigSettingsScreenViewBaseRKNS_14AbstractButtonEvEE) for vtable for touchgfx::Callback<opConfigSettingsScreenViewBase, const touchgfx::AbstractButton&, void>
    opconfigsettingsscreenviewbase.o(i._ZN30opConfigSettingsScreenViewBaseC1Ev) refers to color.o(i._ZN8touchgfx5Color20getColorFrom24BitRGBEhhh) for touchgfx::Color::getColorFrom24BitRGB(unsigned char, unsigned char, unsigned char)
    opconfigsettingsscreenviewbase.o(i._ZN30opConfigSettingsScreenViewBaseC1Ev) refers to datetimesettingsscreenviewbase.o(i._ZN8touchgfx8TextArea8setColorENS_9colortypeE) for touchgfx::TextArea::setColor(touchgfx::colortype)
    opconfigsettingsscreenviewbase.o(i._ZN30opConfigSettingsScreenViewBaseC1Ev) refers to datetimesettingsscreenviewbase.o(i._ZN8touchgfx8TextArea14setLinespacingEt) for touchgfx::TextArea::setLinespacing(unsigned short)
    opconfigsettingsscreenviewbase.o(i._ZN30opConfigSettingsScreenViewBaseC1Ev) refers to datetimesettingsscreenviewbase.o(i._ZN8touchgfx9TypedTextC1Et) for touchgfx::TypedText::TypedText(unsigned short)
    opconfigsettingsscreenviewbase.o(i._ZN30opConfigSettingsScreenViewBaseC1Ev) refers to textarea.o(i._ZN8touchgfx8TextArea12setTypedTextENS_9TypedTextE) for touchgfx::TextArea::setTypedText(touchgfx::TypedText)
    opconfigsettingsscreenviewbase.o(i._ZN30opConfigSettingsScreenViewBaseC1Ev) refers to datetimesettingsscreenviewbase.o(i._ZN8touchgfx8TextArea8setAlphaEh) for touchgfx::TextArea::setAlpha(unsigned char)
    opconfigsettingsscreenviewbase.o(i._ZN30opConfigSettingsScreenViewBaseC1Ev) refers to datetimesettingsscreenviewbase.o(i._ZN8touchgfx6Screen3addERNS_8DrawableE) for touchgfx::Screen::add(touchgfx::Drawable&)
    opconfigsettingsscreenviewbase.o(.ARM.exidx) refers to opconfigsettingsscreenviewbase.o(i._ZN30opConfigSettingsScreenViewBaseC1Ev) for i._ZN30opConfigSettingsScreenViewBaseC1Ev
    opconfigsettingsscreenviewbase.o(.ARM.exidx) refers to opconfigsettingsscreenviewbase.o(i._ZN30opConfigSettingsScreenViewBase21buttonCallbackHandlerERKN8touchgfx14AbstractButtonE) for i._ZN30opConfigSettingsScreenViewBase21buttonCallbackHandlerERKN8touchgfx14AbstractButtonE
    opconfigsettingsscreenviewbase.o(.constdata) refers to opconfigsettingsscreenviewbase.o(i._ZN30opConfigSettingsScreenViewBase21buttonCallbackHandlerERKN8touchgfx14AbstractButtonE) for opConfigSettingsScreenViewBase::buttonCallbackHandler(const touchgfx::AbstractButton&)
    screen1viewbase.o(i._ZN15Screen1ViewBase21buttonCallbackHandlerERKN8touchgfx14AbstractButtonE) refers to application.o(i._ZN8touchgfx11Application11getInstanceEv) for touchgfx::Application::getInstance()
    screen1viewbase.o(i._ZN15Screen1ViewBase21buttonCallbackHandlerERKN8touchgfx14AbstractButtonE) refers to frontendapplicationbase.o(i._ZN23FrontendApplicationBase32gotomainScreenScreenNoTransitionEv) for FrontendApplicationBase::gotomainScreenScreenNoTransition()
    screen1viewbase.o(i._ZN15Screen1ViewBaseC1Ev) refers to screen.o(i._ZN8touchgfx6ScreenC1Ev) for touchgfx::Screen::Screen()
    screen1viewbase.o(i._ZN15Screen1ViewBaseC1Ev) refers to screen1viewbase.o(i._ZN8touchgfx6ButtonC1Ev) for touchgfx::Button::Button()
    screen1viewbase.o(i._ZN15Screen1ViewBaseC1Ev) refers to datetimesettingsscreenviewbase.o(i._ZN8touchgfx8Drawable11setPositionEssss) for touchgfx::Drawable::setPosition(short, short, short, short)
    screen1viewbase.o(i._ZN15Screen1ViewBaseC1Ev) refers to datetimesettingsscreenviewbase.o(i._ZN8touchgfx6BitmapC1Et) for touchgfx::Bitmap::Bitmap(unsigned short)
    screen1viewbase.o(i._ZN15Screen1ViewBaseC1Ev) refers to button.o(i._ZN8touchgfx6Button10setBitmapsERKNS_6BitmapES3_) for touchgfx::Button::setBitmaps(const touchgfx::Bitmap&, const touchgfx::Bitmap&)
    screen1viewbase.o(i._ZN15Screen1ViewBaseC1Ev) refers to container.o(i._ZN8touchgfx9Container3addERNS_8DrawableE) for touchgfx::Container::add(touchgfx::Drawable&)
    screen1viewbase.o(i._ZN15Screen1ViewBaseC1Ev) refers to screen1viewbase.o(.constdata__ZTVN8touchgfx4ViewI16Screen1PresenterEE) for vtable for touchgfx::View<Screen1Presenter>
    screen1viewbase.o(i._ZN15Screen1ViewBaseC1Ev) refers to screen1view.o(.constdata__ZTV15Screen1ViewBase) for vtable for Screen1ViewBase
    screen1viewbase.o(i._ZN15Screen1ViewBaseC1Ev) refers to screen1viewbase.o(.constdata) for <Data1>
    screen1viewbase.o(i._ZN15Screen1ViewBaseC1Ev) refers to datetimesettingsscreenviewbase.o(.constdata__ZTVN8touchgfx15GenericCallbackIRKNS_14AbstractButtonEvEE) for vtable for touchgfx::GenericCallback<const touchgfx::AbstractButton&, void>
    screen1viewbase.o(i._ZN15Screen1ViewBaseC1Ev) refers to screen1viewbase.o(.constdata__ZTVN8touchgfx8CallbackI15Screen1ViewBaseRKNS_14AbstractButtonEvEE) for vtable for touchgfx::Callback<Screen1ViewBase, const touchgfx::AbstractButton&, void>
    screen1viewbase.o(.ARM.exidx) refers to screen1viewbase.o(i._ZN15Screen1ViewBaseC1Ev) for i._ZN15Screen1ViewBaseC1Ev
    screen1viewbase.o(.ARM.exidx) refers to screen1viewbase.o(i._ZN15Screen1ViewBase21buttonCallbackHandlerERKN8touchgfx14AbstractButtonE) for i._ZN15Screen1ViewBase21buttonCallbackHandlerERKN8touchgfx14AbstractButtonE
    screen1viewbase.o(.constdata) refers to screen1viewbase.o(i._ZN15Screen1ViewBase21buttonCallbackHandlerERKN8touchgfx14AbstractButtonE) for Screen1ViewBase::buttonCallbackHandler(const touchgfx::AbstractButton&)
    settingsscreenviewbase.o(i._ZN22settingsScreenViewBase21buttonCallbackHandlerERKN8touchgfx14AbstractButtonE) refers to settingsscreenviewbase.o(i._ZN22settingsScreenViewBase11applicationEv) for settingsScreenViewBase::application()
    settingsscreenviewbase.o(i._ZN22settingsScreenViewBase21buttonCallbackHandlerERKN8touchgfx14AbstractButtonE) refers to frontendapplicationbase.o(i._ZN23FrontendApplicationBase39gotomainScreenScreenSlideTransitionWestEv) for FrontendApplicationBase::gotomainScreenScreenSlideTransitionWest()
    settingsscreenviewbase.o(i._ZN22settingsScreenViewBase21buttonCallbackHandlerERKN8touchgfx14AbstractButtonE) refers to frontendapplicationbase.o(i._ZN23FrontendApplicationBase51gototempHumiSettingsScreenScreenSlideTransitionEastEv) for FrontendApplicationBase::gototempHumiSettingsScreenScreenSlideTransitionEast()
    settingsscreenviewbase.o(i._ZN22settingsScreenViewBase21buttonCallbackHandlerERKN8touchgfx14AbstractButtonE) refers to frontendapplicationbase.o(i._ZN23FrontendApplicationBase51gotoopConfigSettingsScreenScreenSlideTransitionEastEv) for FrontendApplicationBase::gotoopConfigSettingsScreenScreenSlideTransitionEast()
    settingsscreenviewbase.o(i._ZN22settingsScreenViewBase21buttonCallbackHandlerERKN8touchgfx14AbstractButtonE) refers to frontendapplicationbase.o(i._ZN23FrontendApplicationBase51gotodateTimeSettingsScreenScreenSlideTransitionEastEv) for FrontendApplicationBase::gotodateTimeSettingsScreenScreenSlideTransitionEast()
    settingsscreenviewbase.o(i._ZN22settingsScreenViewBase21buttonCallbackHandlerERKN8touchgfx14AbstractButtonE) refers to frontendapplicationbase.o(i._ZN23FrontendApplicationBase51gotodayNightSettingsScreenScreenSlideTransitionEastEv) for FrontendApplicationBase::gotodayNightSettingsScreenScreenSlideTransitionEast()
    settingsscreenviewbase.o(i._ZN22settingsScreenViewBaseC1Ev) refers to screen.o(i._ZN8touchgfx6ScreenC1Ev) for touchgfx::Screen::Screen()
    settingsscreenviewbase.o(i._ZN22settingsScreenViewBaseC1Ev) refers to datetimesettingsscreenviewbase.o(i._ZN8touchgfx6BitmapC1Et) for touchgfx::Bitmap::Bitmap(unsigned short)
    settingsscreenviewbase.o(i._ZN22settingsScreenViewBaseC1Ev) refers to datetimesettingsscreenviewbase.o(i._ZN8touchgfx8DrawableC2Ev) for touchgfx::Drawable::Drawable__sub_object()
    settingsscreenviewbase.o(i._ZN22settingsScreenViewBaseC1Ev) refers to image.o(i._ZN8touchgfx5Image9setBitmapERKNS_6BitmapE) for touchgfx::Image::setBitmap(const touchgfx::Bitmap&)
    settingsscreenviewbase.o(i._ZN22settingsScreenViewBaseC1Ev) refers to buttonwithicon.o(i._ZN8touchgfx14ButtonWithIconC1Ev) for touchgfx::ButtonWithIcon::ButtonWithIcon()
    settingsscreenviewbase.o(i._ZN22settingsScreenViewBaseC1Ev) refers to buttonwithlabel.o(i._ZN8touchgfx15ButtonWithLabelC1Ev) for touchgfx::ButtonWithLabel::ButtonWithLabel()
    settingsscreenviewbase.o(i._ZN22settingsScreenViewBaseC1Ev) refers to datetimesettingsscreenviewbase.o(i._ZN8touchgfx8Drawable5setXYEss) for touchgfx::Drawable::setXY(short, short)
    settingsscreenviewbase.o(i._ZN22settingsScreenViewBaseC1Ev) refers to datetimesettingsscreenviewbase.o(i._ZN8touchgfx8Drawable11setPositionEssss) for touchgfx::Drawable::setPosition(short, short, short, short)
    settingsscreenviewbase.o(i._ZN22settingsScreenViewBaseC1Ev) refers to buttonwithicon.o(i._ZN8touchgfx14ButtonWithIcon10setBitmapsERKNS_6BitmapES3_S3_S3_) for touchgfx::ButtonWithIcon::setBitmaps(const touchgfx::Bitmap&, const touchgfx::Bitmap&, const touchgfx::Bitmap&, const touchgfx::Bitmap&)
    settingsscreenviewbase.o(i._ZN22settingsScreenViewBaseC1Ev) refers to datetimesettingsscreenviewbase.o(i._ZN8touchgfx14AbstractButton9setActionERNS_15GenericCallbackIRKS0_vEE) for touchgfx::AbstractButton::setAction(touchgfx::GenericCallback<const touchgfx::AbstractButton&, void>&)
    settingsscreenviewbase.o(i._ZN22settingsScreenViewBaseC1Ev) refers to button.o(i._ZN8touchgfx6Button10setBitmapsERKNS_6BitmapES3_) for touchgfx::Button::setBitmaps(const touchgfx::Bitmap&, const touchgfx::Bitmap&)
    settingsscreenviewbase.o(i._ZN22settingsScreenViewBaseC1Ev) refers to datetimesettingsscreenviewbase.o(i._ZN8touchgfx9TypedTextC1Et) for touchgfx::TypedText::TypedText(unsigned short)
    settingsscreenviewbase.o(i._ZN22settingsScreenViewBaseC1Ev) refers to settingsscreenviewbase.o(i._ZN8touchgfx15ButtonWithLabel12setLabelTextENS_9TypedTextE) for touchgfx::ButtonWithLabel::setLabelText(touchgfx::TypedText)
    settingsscreenviewbase.o(i._ZN22settingsScreenViewBaseC1Ev) refers to color.o(i._ZN8touchgfx5Color20getColorFrom24BitRGBEhhh) for touchgfx::Color::getColorFrom24BitRGB(unsigned char, unsigned char, unsigned char)
    settingsscreenviewbase.o(i._ZN22settingsScreenViewBaseC1Ev) refers to settingsscreenviewbase.o(i._ZN8touchgfx15ButtonWithLabel13setLabelColorENS_9colortypeEb) for touchgfx::ButtonWithLabel::setLabelColor(touchgfx::colortype, bool)
    settingsscreenviewbase.o(i._ZN22settingsScreenViewBaseC1Ev) refers to settingsscreenviewbase.o(i._ZN8touchgfx15ButtonWithLabel20setLabelColorPressedENS_9colortypeEb) for touchgfx::ButtonWithLabel::setLabelColorPressed(touchgfx::colortype, bool)
    settingsscreenviewbase.o(i._ZN22settingsScreenViewBaseC1Ev) refers to datetimesettingsscreenviewbase.o(i._ZN8touchgfx6Screen3addERNS_8DrawableE) for touchgfx::Screen::add(touchgfx::Drawable&)
    settingsscreenviewbase.o(i._ZN22settingsScreenViewBaseC1Ev) refers to settingsscreenviewbase.o(.constdata__ZTVN8touchgfx4ViewI23settingsScreenPresenterEE) for vtable for touchgfx::View<settingsScreenPresenter>
    settingsscreenviewbase.o(i._ZN22settingsScreenViewBaseC1Ev) refers to settingsscreenview.o(.constdata__ZTV22settingsScreenViewBase) for vtable for settingsScreenViewBase
    settingsscreenviewbase.o(i._ZN22settingsScreenViewBaseC1Ev) refers to datetimesettingsscreenviewbase.o(.constdata__ZTVN8touchgfx6WidgetE) for vtable for touchgfx::Widget
    settingsscreenviewbase.o(i._ZN22settingsScreenViewBaseC1Ev) refers to image.o(.constdata__ZTVN8touchgfx5ImageE) for vtable for touchgfx::Image
    settingsscreenviewbase.o(i._ZN22settingsScreenViewBaseC1Ev) refers to settingsscreenviewbase.o(.constdata) for <Data1>
    settingsscreenviewbase.o(i._ZN22settingsScreenViewBaseC1Ev) refers to datetimesettingsscreenviewbase.o(.constdata__ZTVN8touchgfx15GenericCallbackIRKNS_14AbstractButtonEvEE) for vtable for touchgfx::GenericCallback<const touchgfx::AbstractButton&, void>
    settingsscreenviewbase.o(i._ZN22settingsScreenViewBaseC1Ev) refers to settingsscreenviewbase.o(.constdata__ZTVN8touchgfx8CallbackI22settingsScreenViewBaseRKNS_14AbstractButtonEvEE) for vtable for touchgfx::Callback<settingsScreenViewBase, const touchgfx::AbstractButton&, void>
    settingsscreenviewbase.o(.ARM.exidx) refers to settingsscreenviewbase.o(i._ZN22settingsScreenViewBaseC1Ev) for i._ZN22settingsScreenViewBaseC1Ev
    settingsscreenviewbase.o(.ARM.exidx) refers to settingsscreenviewbase.o(i._ZN22settingsScreenViewBase21buttonCallbackHandlerERKN8touchgfx14AbstractButtonE) for i._ZN22settingsScreenViewBase21buttonCallbackHandlerERKN8touchgfx14AbstractButtonE
    settingsscreenviewbase.o(.constdata) refers to settingsscreenviewbase.o(i._ZN22settingsScreenViewBase21buttonCallbackHandlerERKN8touchgfx14AbstractButtonE) for settingsScreenViewBase::buttonCallbackHandler(const touchgfx::AbstractButton&)
    temphumisettingsscreenviewbase.o(i._ZN30tempHumiSettingsScreenViewBase21buttonCallbackHandlerERKN8touchgfx14AbstractButtonE) refers to application.o(i._ZN8touchgfx11Application11getInstanceEv) for touchgfx::Application::getInstance()
    temphumisettingsscreenviewbase.o(i._ZN30tempHumiSettingsScreenViewBase21buttonCallbackHandlerERKN8touchgfx14AbstractButtonE) refers to frontendapplicationbase.o(i._ZN23FrontendApplicationBase43gotosettingsScreenScreenSlideTransitionWestEv) for FrontendApplicationBase::gotosettingsScreenScreenSlideTransitionWest()
    temphumisettingsscreenviewbase.o(i._ZN30tempHumiSettingsScreenViewBase21buttonCallbackHandlerERKN8touchgfx14AbstractButtonE) refers to frontendapplicationbase.o(i._ZN23FrontendApplicationBase39gotomainScreenScreenSlideTransitionWestEv) for FrontendApplicationBase::gotomainScreenScreenSlideTransitionWest()
    temphumisettingsscreenviewbase.o(i._ZN30tempHumiSettingsScreenViewBaseC1Ev) refers to screen.o(i._ZN8touchgfx6ScreenC1Ev) for touchgfx::Screen::Screen()
    temphumisettingsscreenviewbase.o(i._ZN30tempHumiSettingsScreenViewBaseC1Ev) refers to datetimesettingsscreenviewbase.o(i._ZN8touchgfx6BitmapC1Et) for touchgfx::Bitmap::Bitmap(unsigned short)
    temphumisettingsscreenviewbase.o(i._ZN30tempHumiSettingsScreenViewBaseC1Ev) refers to datetimesettingsscreenviewbase.o(i._ZN8touchgfx6WidgetC2Ev) for touchgfx::Widget::Widget__sub_object()
    temphumisettingsscreenviewbase.o(i._ZN30tempHumiSettingsScreenViewBaseC1Ev) refers to image.o(i._ZN8touchgfx5Image9setBitmapERKNS_6BitmapE) for touchgfx::Image::setBitmap(const touchgfx::Bitmap&)
    temphumisettingsscreenviewbase.o(i._ZN30tempHumiSettingsScreenViewBaseC1Ev) refers to buttonwithicon.o(i._ZN8touchgfx14ButtonWithIconC1Ev) for touchgfx::ButtonWithIcon::ButtonWithIcon()
    temphumisettingsscreenviewbase.o(i._ZN30tempHumiSettingsScreenViewBaseC1Ev) refers to slider.o(i._ZN8touchgfx6SliderC1Ev) for touchgfx::Slider::Slider()
    temphumisettingsscreenviewbase.o(i._ZN30tempHumiSettingsScreenViewBaseC1Ev) refers to datetimesettingsscreenviewbase.o(i._ZN8touchgfx8TextAreaC1Ev) for touchgfx::TextArea::TextArea()
    temphumisettingsscreenviewbase.o(i._ZN30tempHumiSettingsScreenViewBaseC1Ev) refers to temphumisettingsscreenviewbase.o(i._ZN8touchgfx3BoxC1Ev) for touchgfx::Box::Box()
    temphumisettingsscreenviewbase.o(i._ZN30tempHumiSettingsScreenViewBaseC1Ev) refers to datetimesettingsscreenviewbase.o(i._ZN8touchgfx23TextAreaWithOneWildcardC1Ev) for touchgfx::TextAreaWithOneWildcard::TextAreaWithOneWildcard()
    temphumisettingsscreenviewbase.o(i._ZN30tempHumiSettingsScreenViewBaseC1Ev) refers to datetimesettingsscreenviewbase.o(i._ZN8touchgfx8Drawable5setXYEss) for touchgfx::Drawable::setXY(short, short)
    temphumisettingsscreenviewbase.o(i._ZN30tempHumiSettingsScreenViewBaseC1Ev) refers to datetimesettingsscreenviewbase.o(i._ZN8touchgfx8Drawable11setPositionEssss) for touchgfx::Drawable::setPosition(short, short, short, short)
    temphumisettingsscreenviewbase.o(i._ZN30tempHumiSettingsScreenViewBaseC1Ev) refers to buttonwithicon.o(i._ZN8touchgfx14ButtonWithIcon10setBitmapsERKNS_6BitmapES3_S3_S3_) for touchgfx::ButtonWithIcon::setBitmaps(const touchgfx::Bitmap&, const touchgfx::Bitmap&, const touchgfx::Bitmap&, const touchgfx::Bitmap&)
    temphumisettingsscreenviewbase.o(i._ZN30tempHumiSettingsScreenViewBaseC1Ev) refers to datetimesettingsscreenviewbase.o(i._ZN8touchgfx14ButtonWithIcon9setIconXYEss) for touchgfx::ButtonWithIcon::setIconXY(short, short)
    temphumisettingsscreenviewbase.o(i._ZN30tempHumiSettingsScreenViewBaseC1Ev) refers to datetimesettingsscreenviewbase.o(i._ZN8touchgfx14AbstractButton9setActionERNS_15GenericCallbackIRKS0_vEE) for touchgfx::AbstractButton::setAction(touchgfx::GenericCallback<const touchgfx::AbstractButton&, void>&)
    temphumisettingsscreenviewbase.o(i._ZN30tempHumiSettingsScreenViewBaseC1Ev) refers to slider.o(i._ZN8touchgfx6Slider10setBitmapsERKNS_6BitmapES3_S3_) for touchgfx::Slider::setBitmaps(const touchgfx::Bitmap&, const touchgfx::Bitmap&, const touchgfx::Bitmap&)
    temphumisettingsscreenviewbase.o(i._ZN30tempHumiSettingsScreenViewBaseC1Ev) refers to temphumisettingsscreenviewbase.o(i._ZN8touchgfx6Slider19setNewValueCallbackERNS_15GenericCallbackIRKS0_iEE) for touchgfx::Slider::setNewValueCallback(touchgfx::GenericCallback<const touchgfx::Slider&, int>&)
    temphumisettingsscreenviewbase.o(i._ZN30tempHumiSettingsScreenViewBaseC1Ev) refers to slider.o(i._ZN8touchgfx6Slider19setupVerticalSliderEttttt) for touchgfx::Slider::setupVerticalSlider(unsigned short, unsigned short, unsigned short, unsigned short, unsigned short)
    temphumisettingsscreenviewbase.o(i._ZN30tempHumiSettingsScreenViewBaseC1Ev) refers to slider.o(i._ZN8touchgfx6Slider13setValueRangeEii) for touchgfx::Slider::setValueRange(int, int)
    temphumisettingsscreenviewbase.o(i._ZN30tempHumiSettingsScreenViewBaseC1Ev) refers to slider.o(i._ZN8touchgfx6Slider8setValueEi) for touchgfx::Slider::setValue(int)
    temphumisettingsscreenviewbase.o(i._ZN30tempHumiSettingsScreenViewBaseC1Ev) refers to temphumisettingsscreenviewbase.o(.constdata__ZTVN8touchgfx4ViewI31tempHumiSettingsScreenPresenterEE) for vtable for touchgfx::View<tempHumiSettingsScreenPresenter>
    temphumisettingsscreenviewbase.o(i._ZN30tempHumiSettingsScreenViewBaseC1Ev) refers to temphumisettingsscreenview.o(.constdata__ZTV30tempHumiSettingsScreenViewBase) for vtable for tempHumiSettingsScreenViewBase
    temphumisettingsscreenviewbase.o(i._ZN30tempHumiSettingsScreenViewBaseC1Ev) refers to image.o(.constdata__ZTVN8touchgfx5ImageE) for vtable for touchgfx::Image
    temphumisettingsscreenviewbase.o(i._ZN30tempHumiSettingsScreenViewBaseC1Ev) refers to temphumisettingsscreenviewbase.o(.constdata) for <Data1>
    temphumisettingsscreenviewbase.o(i._ZN30tempHumiSettingsScreenViewBaseC1Ev) refers to datetimesettingsscreenviewbase.o(.constdata__ZTVN8touchgfx15GenericCallbackIRKNS_14AbstractButtonEvEE) for vtable for touchgfx::GenericCallback<const touchgfx::AbstractButton&, void>
    temphumisettingsscreenviewbase.o(i._ZN30tempHumiSettingsScreenViewBaseC1Ev) refers to temphumisettingsscreenviewbase.o(.constdata__ZTVN8touchgfx8CallbackI30tempHumiSettingsScreenViewBaseRKNS_14AbstractButtonEvEE) for vtable for touchgfx::Callback<tempHumiSettingsScreenViewBase, const touchgfx::AbstractButton&, void>
    temphumisettingsscreenviewbase.o(i._ZN30tempHumiSettingsScreenViewBaseC1Ev) refers to temphumisettingsscreenviewbase.o(.constdata__ZTVN8touchgfx15GenericCallbackIRKNS_6SliderEiEE) for vtable for touchgfx::GenericCallback<const touchgfx::Slider&, int>
    temphumisettingsscreenviewbase.o(i._ZN30tempHumiSettingsScreenViewBaseC1Ev) refers to temphumisettingsscreenviewbase.o(.constdata__ZTVN8touchgfx8CallbackI30tempHumiSettingsScreenViewBaseRKNS_6SliderEiEE) for vtable for touchgfx::Callback<tempHumiSettingsScreenViewBase, const touchgfx::Slider&, int>
    temphumisettingsscreenviewbase.o(i._ZN30tempHumiSettingsScreenViewBaseC1Ev) refers to color.o(i._ZN8touchgfx5Color20getColorFrom24BitRGBEhhh) for touchgfx::Color::getColorFrom24BitRGB(unsigned char, unsigned char, unsigned char)
    temphumisettingsscreenviewbase.o(i._ZN30tempHumiSettingsScreenViewBaseC1Ev) refers to datetimesettingsscreenviewbase.o(i._ZN8touchgfx8TextArea8setColorENS_9colortypeE) for touchgfx::TextArea::setColor(touchgfx::colortype)
    temphumisettingsscreenviewbase.o(i._ZN30tempHumiSettingsScreenViewBaseC1Ev) refers to datetimesettingsscreenviewbase.o(i._ZN8touchgfx8TextArea14setLinespacingEt) for touchgfx::TextArea::setLinespacing(unsigned short)
    temphumisettingsscreenviewbase.o(i._ZN30tempHumiSettingsScreenViewBaseC1Ev) refers to datetimesettingsscreenviewbase.o(i._ZN8touchgfx9TypedTextC1Et) for touchgfx::TypedText::TypedText(unsigned short)
    temphumisettingsscreenviewbase.o(i._ZN30tempHumiSettingsScreenViewBaseC1Ev) refers to textarea.o(i._ZN8touchgfx8TextArea12setTypedTextENS_9TypedTextE) for touchgfx::TextArea::setTypedText(touchgfx::TypedText)
    temphumisettingsscreenviewbase.o(i._ZN30tempHumiSettingsScreenViewBaseC1Ev) refers to datetimesettingsscreenviewbase.o(i._ZN8touchgfx8TextArea8setAlphaEh) for touchgfx::TextArea::setAlpha(unsigned char)
    temphumisettingsscreenviewbase.o(i._ZN30tempHumiSettingsScreenViewBaseC1Ev) refers to temphumisettingsscreenviewbase.o(i._ZN8touchgfx3Box8setColorENS_9colortypeE) for touchgfx::Box::setColor(touchgfx::colortype)
    temphumisettingsscreenviewbase.o(i._ZN30tempHumiSettingsScreenViewBaseC1Ev) refers to temphumisettingsscreenviewbase.o(i._ZN8touchgfx3Box8setAlphaEh) for touchgfx::Box::setAlpha(unsigned char)
    temphumisettingsscreenviewbase.o(i._ZN30tempHumiSettingsScreenViewBaseC1Ev) refers to datetimesettingsscreenviewbase.o(i._ZN8touchgfx23TextAreaWithOneWildcard11setWildcardEPKt) for touchgfx::TextAreaWithOneWildcard::setWildcard(const unsigned short*)
    temphumisettingsscreenviewbase.o(i._ZN30tempHumiSettingsScreenViewBaseC1Ev) refers to datetimesettingsscreenviewbase.o(i._ZN8touchgfx6Screen3addERNS_8DrawableE) for touchgfx::Screen::add(touchgfx::Drawable&)
    temphumisettingsscreenviewbase.o(.ARM.exidx) refers to temphumisettingsscreenviewbase.o(i._ZN30tempHumiSettingsScreenViewBaseC1Ev) for i._ZN30tempHumiSettingsScreenViewBaseC1Ev
    temphumisettingsscreenviewbase.o(.ARM.exidx) refers to temphumisettingsscreenviewbase.o(i._ZN30tempHumiSettingsScreenViewBase21buttonCallbackHandlerERKN8touchgfx14AbstractButtonE) for i._ZN30tempHumiSettingsScreenViewBase21buttonCallbackHandlerERKN8touchgfx14AbstractButtonE
    temphumisettingsscreenviewbase.o(.ARM.exidx) refers to temphumisettingsscreenviewbase.o(i._ZN30tempHumiSettingsScreenViewBase33sliderValueChangedCallbackHandlerERKN8touchgfx6SliderEi) for i._ZN30tempHumiSettingsScreenViewBase33sliderValueChangedCallbackHandlerERKN8touchgfx6SliderEi
    temphumisettingsscreenviewbase.o(.constdata) refers to temphumisettingsscreenviewbase.o(i._ZN30tempHumiSettingsScreenViewBase21buttonCallbackHandlerERKN8touchgfx14AbstractButtonE) for tempHumiSettingsScreenViewBase::buttonCallbackHandler(const touchgfx::AbstractButton&)
    temphumisettingsscreenviewbase.o(.constdata) refers to temphumisettingsscreenviewbase.o(i._ZN30tempHumiSettingsScreenViewBase33sliderValueChangedCallbackHandlerERKN8touchgfx6SliderEi) for tempHumiSettingsScreenViewBase::sliderValueChangedCallbackHandler(const touchgfx::Slider&, int)
    applicationfontprovider.o(i._ZN23ApplicationFontProvider7getFontEt) refers to fontgetters.o(i._Z23getFont_verdana_17_8bppv) for getFont_verdana_17_8bpp()
    applicationfontprovider.o(i._ZN23ApplicationFontProvider7getFontEt) refers to fontgetters.o(i._Z23getFont_segoeui_67_4bppv) for getFont_segoeui_67_4bpp()
    applicationfontprovider.o(i._ZN23ApplicationFontProvider7getFontEt) refers to fontgetters.o(i._Z23getFont_verdana_12_4bppv) for getFont_verdana_12_4bpp()
    applicationfontprovider.o(i._ZN23ApplicationFontProvider7getFontEt) refers to fontgetters.o(i._Z23getFont_verdana_34_4bppv) for getFont_verdana_34_4bpp()
    applicationfontprovider.o(i._ZN23ApplicationFontProvider7getFontEt) refers to fontgetters.o(i._Z23getFont_verdana_46_4bppv) for getFont_verdana_46_4bpp()
    applicationfontprovider.o(i._ZN23ApplicationFontProvider7getFontEt) refers to fontgetters.o(i._Z23getFont_segoeui_40_8bppv) for getFont_segoeui_40_8bpp()
    applicationfontprovider.o(i._ZN23ApplicationFontProvider7getFontEt) refers to fontgetters.o(i._Z23getFont_segoeui_18_8bppv) for getFont_segoeui_18_8bpp()
    applicationfontprovider.o(i._ZN23ApplicationFontProvider7getFontEt) refers to fontgetters.o(i._Z23getFont_segoeui_28_8bppv) for getFont_segoeui_28_8bpp()
    applicationfontprovider.o(i._ZN23ApplicationFontProvider7getFontEt) refers to fontgetters.o(i._Z23getFont_segoeui_17_8bppv) for getFont_segoeui_17_8bpp()
    applicationfontprovider.o(.ARM.exidx) refers to applicationfontprovider.o(i._ZN23ApplicationFontProvider7getFontEt) for i._ZN23ApplicationFontProvider7getFontEt
    bitmapdatabase.o(i._ZN14BitmapDatabase11getInstanceEv) refers to bitmapdatabase.o(.constdata) for bitmap_database
    bitmapdatabase.o(.ARM.exidx) refers to bitmapdatabase.o(i._ZN14BitmapDatabase11getInstanceEv) for i._ZN14BitmapDatabase11getInstanceEv
    bitmapdatabase.o(.ARM.exidx) refers to bitmapdatabase.o(i._ZN14BitmapDatabase15getInstanceSizeEv) for i._ZN14BitmapDatabase15getInstanceSizeEv
    bitmapdatabase.o(.constdata) refers to dark_buttons_round_edge_icon_button.o(ExtFlashSection) for _Dark_Buttons_Round_Edge_icon_button
    bitmapdatabase.o(.constdata) refers to dark_buttons_round_edge_icon_button_pressed.o(ExtFlashSection) for _Dark_Buttons_Round_Edge_icon_button_pressed
    bitmapdatabase.o(.constdata) refers to dark_buttons_round_edge_large.o(ExtFlashSection) for _Dark_Buttons_Round_Edge_large
    bitmapdatabase.o(.constdata) refers to dark_buttons_round_edge_large_pressed.o(ExtFlashSection) for _Dark_Buttons_Round_Edge_large_pressed
    bitmapdatabase.o(.constdata) refers to dark_icons_back_arrow_32.o(ExtFlashSection) for _Dark_Icons_Back_arrow_32
    bitmapdatabase.o(.constdata) refers to dark_icons_down_arrow_32.o(ExtFlashSection) for _Dark_Icons_Down_arrow_32
    bitmapdatabase.o(.constdata) refers to dark_icons_home_32.o(ExtFlashSection) for _Dark_Icons_Home_32
    bitmapdatabase.o(.constdata) refers to dark_icons_info_32.o(ExtFlashSection) for _Dark_Icons_Info_32
    bitmapdatabase.o(.constdata) refers to dark_icons_power_32.o(ExtFlashSection) for _Dark_Icons_Power_32
    bitmapdatabase.o(.constdata) refers to dark_icons_settings_32.o(ExtFlashSection) for _Dark_Icons_Settings_32
    bitmapdatabase.o(.constdata) refers to dark_icons_up_arrow_32.o(ExtFlashSection) for _Dark_Icons_Up_arrow_32
    bitmapdatabase.o(.constdata) refers to dark_slider_vertical_small_indicators_slider3_vertical_round_nob.o(ExtFlashSection) for _Dark_Slider_Vertical_Small_Indicators_Slider3_Vertical_Round_nob
    bitmapdatabase.o(.constdata) refers to dark_slider_vertical_small_slider3_vertical_round_back.o(ExtFlashSection) for _Dark_Slider_Vertical_Small_Slider3_Vertical_Round_back
    bitmapdatabase.o(.constdata) refers to dark_slider_vertical_small_slider3_vertical_round_fill.o(ExtFlashSection) for _Dark_Slider_Vertical_Small_Slider3_Vertical_Round_fill
    bitmapdatabase.o(.constdata) refers to dark_togglebars_toggle_round_small_button_off.o(ExtFlashSection) for _Dark_Togglebars_Toggle_round_small_button_Off
    bitmapdatabase.o(.constdata) refers to dark_togglebars_toggle_round_small_button_on.o(ExtFlashSection) for _Dark_Togglebars_Toggle_round_small_button_On
    bitmapdatabase.o(.constdata) refers to dark_togglebars_toggle_small_button_off.o(ExtFlashSection) for _Dark_Togglebars_Toggle_small_button_Off
    bitmapdatabase.o(.constdata) refers to dark_togglebars_toggle_small_button_on.o(ExtFlashSection) for _Dark_Togglebars_Toggle_small_button_On
    bitmapdatabase.o(.constdata) refers to background.o(ExtFlashSection) for _background
    fontgetters.o(i._Z23getFont_segoeui_17_8bppv) refers to cxa_guard_acquire.o(i.__cxa_guard_acquire) for __cxa_guard_acquire
    fontgetters.o(i._Z23getFont_segoeui_17_8bppv) refers to internalflashfont.o(i._ZN8touchgfx17InternalFlashFontC1EPKNS_9GlyphNodeEtthhhhPKhPKNS_11KerningNodeEtt) for touchgfx::InternalFlashFont::InternalFlashFont(const touchgfx::GlyphNode*, unsigned short, unsigned short, unsigned char, unsigned char, unsigned char, unsigned char, const unsigned char*, const touchgfx::KerningNode*, unsigned short, unsigned short)
    fontgetters.o(i._Z23getFont_segoeui_17_8bppv) refers to aeabi_atexit.o(.text) for __aeabi_atexit
    fontgetters.o(i._Z23getFont_segoeui_17_8bppv) refers to fontgetters.o(.data) for _ZGV_ZZ23getFont_segoeui_17_8bppvE15segoeui_17_8bpp
    fontgetters.o(i._Z23getFont_segoeui_17_8bppv) refers to kerning_segoeui_17_8bpp.o(FontFlashSection) for kerning_segoeui_17_8bpp
    fontgetters.o(i._Z23getFont_segoeui_17_8bppv) refers to font_segoeui_17_8bpp.o(FontFlashSection) for unicodes_segoeui_17_8bpp
    fontgetters.o(i._Z23getFont_segoeui_17_8bppv) refers to table_segoeui_17_8bpp.o(FontFlashSection) for glyphs_segoeui_17_8bpp
    fontgetters.o(i._Z23getFont_segoeui_17_8bppv) refers to fontgetters.o(.bss) for getFont_segoeui_17_8bpp()::segoeui_17_8bpp
    fontgetters.o(i._Z23getFont_segoeui_17_8bppv) refers to fontgetters.o(i._ZN8touchgfx17InternalFlashFontD1Ev) for touchgfx::InternalFlashFont::~InternalFlashFont()
    fontgetters.o(i._Z23getFont_segoeui_18_8bppv) refers to cxa_guard_acquire.o(i.__cxa_guard_acquire) for __cxa_guard_acquire
    fontgetters.o(i._Z23getFont_segoeui_18_8bppv) refers to internalflashfont.o(i._ZN8touchgfx17InternalFlashFontC1EPKNS_9GlyphNodeEtthhhhPKhPKNS_11KerningNodeEtt) for touchgfx::InternalFlashFont::InternalFlashFont(const touchgfx::GlyphNode*, unsigned short, unsigned short, unsigned char, unsigned char, unsigned char, unsigned char, const unsigned char*, const touchgfx::KerningNode*, unsigned short, unsigned short)
    fontgetters.o(i._Z23getFont_segoeui_18_8bppv) refers to aeabi_atexit.o(.text) for __aeabi_atexit
    fontgetters.o(i._Z23getFont_segoeui_18_8bppv) refers to fontgetters.o(.data) for _ZGV_ZZ23getFont_segoeui_18_8bppvE15segoeui_18_8bpp
    fontgetters.o(i._Z23getFont_segoeui_18_8bppv) refers to kerning_segoeui_18_8bpp.o(FontFlashSection) for kerning_segoeui_18_8bpp
    fontgetters.o(i._Z23getFont_segoeui_18_8bppv) refers to font_segoeui_18_8bpp.o(FontFlashSection) for unicodes_segoeui_18_8bpp
    fontgetters.o(i._Z23getFont_segoeui_18_8bppv) refers to table_segoeui_18_8bpp.o(FontFlashSection) for glyphs_segoeui_18_8bpp
    fontgetters.o(i._Z23getFont_segoeui_18_8bppv) refers to fontgetters.o(.bss) for getFont_segoeui_18_8bpp()::segoeui_18_8bpp
    fontgetters.o(i._Z23getFont_segoeui_18_8bppv) refers to fontgetters.o(i._ZN8touchgfx17InternalFlashFontD1Ev) for touchgfx::InternalFlashFont::~InternalFlashFont()
    fontgetters.o(i._Z23getFont_segoeui_28_8bppv) refers to cxa_guard_acquire.o(i.__cxa_guard_acquire) for __cxa_guard_acquire
    fontgetters.o(i._Z23getFont_segoeui_28_8bppv) refers to internalflashfont.o(i._ZN8touchgfx17InternalFlashFontC1EPKNS_9GlyphNodeEtthhhhPKhPKNS_11KerningNodeEtt) for touchgfx::InternalFlashFont::InternalFlashFont(const touchgfx::GlyphNode*, unsigned short, unsigned short, unsigned char, unsigned char, unsigned char, unsigned char, const unsigned char*, const touchgfx::KerningNode*, unsigned short, unsigned short)
    fontgetters.o(i._Z23getFont_segoeui_28_8bppv) refers to aeabi_atexit.o(.text) for __aeabi_atexit
    fontgetters.o(i._Z23getFont_segoeui_28_8bppv) refers to fontgetters.o(.data) for _ZGV_ZZ23getFont_segoeui_28_8bppvE15segoeui_28_8bpp
    fontgetters.o(i._Z23getFont_segoeui_28_8bppv) refers to kerning_segoeui_28_8bpp.o(FontFlashSection) for kerning_segoeui_28_8bpp
    fontgetters.o(i._Z23getFont_segoeui_28_8bppv) refers to font_segoeui_28_8bpp.o(FontFlashSection) for unicodes_segoeui_28_8bpp
    fontgetters.o(i._Z23getFont_segoeui_28_8bppv) refers to table_segoeui_28_8bpp.o(FontFlashSection) for glyphs_segoeui_28_8bpp
    fontgetters.o(i._Z23getFont_segoeui_28_8bppv) refers to fontgetters.o(.bss) for getFont_segoeui_28_8bpp()::segoeui_28_8bpp
    fontgetters.o(i._Z23getFont_segoeui_28_8bppv) refers to fontgetters.o(i._ZN8touchgfx17InternalFlashFontD1Ev) for touchgfx::InternalFlashFont::~InternalFlashFont()
    fontgetters.o(i._Z23getFont_segoeui_40_8bppv) refers to cxa_guard_acquire.o(i.__cxa_guard_acquire) for __cxa_guard_acquire
    fontgetters.o(i._Z23getFont_segoeui_40_8bppv) refers to internalflashfont.o(i._ZN8touchgfx17InternalFlashFontC1EPKNS_9GlyphNodeEtthhhhPKhPKNS_11KerningNodeEtt) for touchgfx::InternalFlashFont::InternalFlashFont(const touchgfx::GlyphNode*, unsigned short, unsigned short, unsigned char, unsigned char, unsigned char, unsigned char, const unsigned char*, const touchgfx::KerningNode*, unsigned short, unsigned short)
    fontgetters.o(i._Z23getFont_segoeui_40_8bppv) refers to aeabi_atexit.o(.text) for __aeabi_atexit
    fontgetters.o(i._Z23getFont_segoeui_40_8bppv) refers to fontgetters.o(.data) for _ZGV_ZZ23getFont_segoeui_40_8bppvE15segoeui_40_8bpp
    fontgetters.o(i._Z23getFont_segoeui_40_8bppv) refers to kerning_segoeui_40_8bpp.o(FontFlashSection) for kerning_segoeui_40_8bpp
    fontgetters.o(i._Z23getFont_segoeui_40_8bppv) refers to font_segoeui_40_8bpp.o(FontFlashSection) for unicodes_segoeui_40_8bpp
    fontgetters.o(i._Z23getFont_segoeui_40_8bppv) refers to table_segoeui_40_8bpp.o(FontFlashSection) for glyphs_segoeui_40_8bpp
    fontgetters.o(i._Z23getFont_segoeui_40_8bppv) refers to fontgetters.o(.bss) for getFont_segoeui_40_8bpp()::segoeui_40_8bpp
    fontgetters.o(i._Z23getFont_segoeui_40_8bppv) refers to fontgetters.o(i._ZN8touchgfx17InternalFlashFontD1Ev) for touchgfx::InternalFlashFont::~InternalFlashFont()
    fontgetters.o(i._Z23getFont_segoeui_67_4bppv) refers to cxa_guard_acquire.o(i.__cxa_guard_acquire) for __cxa_guard_acquire
    fontgetters.o(i._Z23getFont_segoeui_67_4bppv) refers to internalflashfont.o(i._ZN8touchgfx17InternalFlashFontC1EPKNS_9GlyphNodeEtthhhhPKhPKNS_11KerningNodeEtt) for touchgfx::InternalFlashFont::InternalFlashFont(const touchgfx::GlyphNode*, unsigned short, unsigned short, unsigned char, unsigned char, unsigned char, unsigned char, const unsigned char*, const touchgfx::KerningNode*, unsigned short, unsigned short)
    fontgetters.o(i._Z23getFont_segoeui_67_4bppv) refers to aeabi_atexit.o(.text) for __aeabi_atexit
    fontgetters.o(i._Z23getFont_segoeui_67_4bppv) refers to fontgetters.o(.data) for _ZGV_ZZ23getFont_segoeui_67_4bppvE15segoeui_67_4bpp
    fontgetters.o(i._Z23getFont_segoeui_67_4bppv) refers to kerning_segoeui_67_4bpp.o(FontFlashSection) for kerning_segoeui_67_4bpp
    fontgetters.o(i._Z23getFont_segoeui_67_4bppv) refers to font_segoeui_67_4bpp.o(FontFlashSection) for unicodes_segoeui_67_4bpp
    fontgetters.o(i._Z23getFont_segoeui_67_4bppv) refers to table_segoeui_67_4bpp.o(FontFlashSection) for glyphs_segoeui_67_4bpp
    fontgetters.o(i._Z23getFont_segoeui_67_4bppv) refers to fontgetters.o(.bss) for getFont_segoeui_67_4bpp()::segoeui_67_4bpp
    fontgetters.o(i._Z23getFont_segoeui_67_4bppv) refers to fontgetters.o(i._ZN8touchgfx17InternalFlashFontD1Ev) for touchgfx::InternalFlashFont::~InternalFlashFont()
    fontgetters.o(i._Z23getFont_verdana_12_4bppv) refers to cxa_guard_acquire.o(i.__cxa_guard_acquire) for __cxa_guard_acquire
    fontgetters.o(i._Z23getFont_verdana_12_4bppv) refers to internalflashfont.o(i._ZN8touchgfx17InternalFlashFontC1EPKNS_9GlyphNodeEtthhhhPKhPKNS_11KerningNodeEtt) for touchgfx::InternalFlashFont::InternalFlashFont(const touchgfx::GlyphNode*, unsigned short, unsigned short, unsigned char, unsigned char, unsigned char, unsigned char, const unsigned char*, const touchgfx::KerningNode*, unsigned short, unsigned short)
    fontgetters.o(i._Z23getFont_verdana_12_4bppv) refers to aeabi_atexit.o(.text) for __aeabi_atexit
    fontgetters.o(i._Z23getFont_verdana_12_4bppv) refers to fontgetters.o(.data) for _ZGV_ZZ23getFont_verdana_12_4bppvE15verdana_12_4bpp
    fontgetters.o(i._Z23getFont_verdana_12_4bppv) refers to kerning_verdana_12_4bpp.o(FontFlashSection) for kerning_verdana_12_4bpp
    fontgetters.o(i._Z23getFont_verdana_12_4bppv) refers to font_verdana_12_4bpp.o(FontFlashSection) for unicodes_verdana_12_4bpp
    fontgetters.o(i._Z23getFont_verdana_12_4bppv) refers to table_verdana_12_4bpp.o(FontFlashSection) for glyphs_verdana_12_4bpp
    fontgetters.o(i._Z23getFont_verdana_12_4bppv) refers to fontgetters.o(.bss) for getFont_verdana_12_4bpp()::verdana_12_4bpp
    fontgetters.o(i._Z23getFont_verdana_12_4bppv) refers to fontgetters.o(i._ZN8touchgfx17InternalFlashFontD1Ev) for touchgfx::InternalFlashFont::~InternalFlashFont()
    fontgetters.o(i._Z23getFont_verdana_17_8bppv) refers to cxa_guard_acquire.o(i.__cxa_guard_acquire) for __cxa_guard_acquire
    fontgetters.o(i._Z23getFont_verdana_17_8bppv) refers to internalflashfont.o(i._ZN8touchgfx17InternalFlashFontC1EPKNS_9GlyphNodeEtthhhhPKhPKNS_11KerningNodeEtt) for touchgfx::InternalFlashFont::InternalFlashFont(const touchgfx::GlyphNode*, unsigned short, unsigned short, unsigned char, unsigned char, unsigned char, unsigned char, const unsigned char*, const touchgfx::KerningNode*, unsigned short, unsigned short)
    fontgetters.o(i._Z23getFont_verdana_17_8bppv) refers to aeabi_atexit.o(.text) for __aeabi_atexit
    fontgetters.o(i._Z23getFont_verdana_17_8bppv) refers to fontgetters.o(.data) for _ZGV_ZZ23getFont_verdana_17_8bppvE15verdana_17_8bpp
    fontgetters.o(i._Z23getFont_verdana_17_8bppv) refers to kerning_verdana_17_8bpp.o(FontFlashSection) for kerning_verdana_17_8bpp
    fontgetters.o(i._Z23getFont_verdana_17_8bppv) refers to font_verdana_17_8bpp.o(FontFlashSection) for unicodes_verdana_17_8bpp
    fontgetters.o(i._Z23getFont_verdana_17_8bppv) refers to table_verdana_17_8bpp.o(FontFlashSection) for glyphs_verdana_17_8bpp
    fontgetters.o(i._Z23getFont_verdana_17_8bppv) refers to fontgetters.o(.bss) for getFont_verdana_17_8bpp()::verdana_17_8bpp
    fontgetters.o(i._Z23getFont_verdana_17_8bppv) refers to fontgetters.o(i._ZN8touchgfx17InternalFlashFontD1Ev) for touchgfx::InternalFlashFont::~InternalFlashFont()
    fontgetters.o(i._Z23getFont_verdana_34_4bppv) refers to cxa_guard_acquire.o(i.__cxa_guard_acquire) for __cxa_guard_acquire
    fontgetters.o(i._Z23getFont_verdana_34_4bppv) refers to internalflashfont.o(i._ZN8touchgfx17InternalFlashFontC1EPKNS_9GlyphNodeEtthhhhPKhPKNS_11KerningNodeEtt) for touchgfx::InternalFlashFont::InternalFlashFont(const touchgfx::GlyphNode*, unsigned short, unsigned short, unsigned char, unsigned char, unsigned char, unsigned char, const unsigned char*, const touchgfx::KerningNode*, unsigned short, unsigned short)
    fontgetters.o(i._Z23getFont_verdana_34_4bppv) refers to aeabi_atexit.o(.text) for __aeabi_atexit
    fontgetters.o(i._Z23getFont_verdana_34_4bppv) refers to fontgetters.o(.data) for _ZGV_ZZ23getFont_verdana_34_4bppvE15verdana_34_4bpp
    fontgetters.o(i._Z23getFont_verdana_34_4bppv) refers to kerning_verdana_34_4bpp.o(FontFlashSection) for kerning_verdana_34_4bpp
    fontgetters.o(i._Z23getFont_verdana_34_4bppv) refers to font_verdana_34_4bpp.o(FontFlashSection) for unicodes_verdana_34_4bpp
    fontgetters.o(i._Z23getFont_verdana_34_4bppv) refers to table_verdana_34_4bpp.o(FontFlashSection) for glyphs_verdana_34_4bpp
    fontgetters.o(i._Z23getFont_verdana_34_4bppv) refers to fontgetters.o(.bss) for getFont_verdana_34_4bpp()::verdana_34_4bpp
    fontgetters.o(i._Z23getFont_verdana_34_4bppv) refers to fontgetters.o(i._ZN8touchgfx17InternalFlashFontD1Ev) for touchgfx::InternalFlashFont::~InternalFlashFont()
    fontgetters.o(i._Z23getFont_verdana_46_4bppv) refers to cxa_guard_acquire.o(i.__cxa_guard_acquire) for __cxa_guard_acquire
    fontgetters.o(i._Z23getFont_verdana_46_4bppv) refers to internalflashfont.o(i._ZN8touchgfx17InternalFlashFontC1EPKNS_9GlyphNodeEtthhhhPKhPKNS_11KerningNodeEtt) for touchgfx::InternalFlashFont::InternalFlashFont(const touchgfx::GlyphNode*, unsigned short, unsigned short, unsigned char, unsigned char, unsigned char, unsigned char, const unsigned char*, const touchgfx::KerningNode*, unsigned short, unsigned short)
    fontgetters.o(i._Z23getFont_verdana_46_4bppv) refers to aeabi_atexit.o(.text) for __aeabi_atexit
    fontgetters.o(i._Z23getFont_verdana_46_4bppv) refers to fontgetters.o(.data) for _ZGV_ZZ23getFont_verdana_46_4bppvE15verdana_46_4bpp
    fontgetters.o(i._Z23getFont_verdana_46_4bppv) refers to kerning_verdana_46_4bpp.o(FontFlashSection) for kerning_verdana_46_4bpp
    fontgetters.o(i._Z23getFont_verdana_46_4bppv) refers to font_verdana_46_4bpp.o(FontFlashSection) for unicodes_verdana_46_4bpp
    fontgetters.o(i._Z23getFont_verdana_46_4bppv) refers to table_verdana_46_4bpp.o(FontFlashSection) for glyphs_verdana_46_4bpp
    fontgetters.o(i._Z23getFont_verdana_46_4bppv) refers to fontgetters.o(.bss) for getFont_verdana_46_4bpp()::verdana_46_4bpp
    fontgetters.o(i._Z23getFont_verdana_46_4bppv) refers to fontgetters.o(i._ZN8touchgfx17InternalFlashFontD1Ev) for touchgfx::InternalFlashFont::~InternalFlashFont()
    fontgetters.o(.ARM.exidx) refers to fontgetters.o(i._Z23getFont_segoeui_17_8bppv) for i._Z23getFont_segoeui_17_8bppv
    fontgetters.o(.ARM.exidx) refers to fontgetters.o(i._Z23getFont_segoeui_18_8bppv) for i._Z23getFont_segoeui_18_8bppv
    fontgetters.o(.ARM.exidx) refers to fontgetters.o(i._Z23getFont_segoeui_28_8bppv) for i._Z23getFont_segoeui_28_8bppv
    fontgetters.o(.ARM.exidx) refers to fontgetters.o(i._Z23getFont_segoeui_40_8bppv) for i._Z23getFont_segoeui_40_8bppv
    fontgetters.o(.ARM.exidx) refers to fontgetters.o(i._Z23getFont_segoeui_67_4bppv) for i._Z23getFont_segoeui_67_4bppv
    fontgetters.o(.ARM.exidx) refers to fontgetters.o(i._Z23getFont_verdana_12_4bppv) for i._Z23getFont_verdana_12_4bppv
    fontgetters.o(.ARM.exidx) refers to fontgetters.o(i._Z23getFont_verdana_17_8bppv) for i._Z23getFont_verdana_17_8bppv
    fontgetters.o(.ARM.exidx) refers to fontgetters.o(i._Z23getFont_verdana_34_4bppv) for i._Z23getFont_verdana_34_4bppv
    fontgetters.o(.ARM.exidx) refers to fontgetters.o(i._Z23getFont_verdana_46_4bppv) for i._Z23getFont_verdana_46_4bppv
    texts.o(i._ZN8touchgfx5Texts11setLanguageEt) refers to typedtextdatabase.o(i._ZN17TypedTextDatabase11getInstanceEt) for TypedTextDatabase::getInstance(unsigned short)
    texts.o(i._ZN8touchgfx5Texts11setLanguageEt) refers to typedtextdatabase.o(i._ZN17TypedTextDatabase8getFontsEv) for TypedTextDatabase::getFonts()
    texts.o(i._ZN8touchgfx5Texts11setLanguageEt) refers to typedtextdatabase.o(i._ZN17TypedTextDatabase15getInstanceSizeEv) for TypedTextDatabase::getInstanceSize()
    texts.o(i._ZN8touchgfx5Texts11setLanguageEt) refers to texts.o(.data) for touchgfx::Texts::currentLanguage
    texts.o(i._ZN8touchgfx5Texts11setLanguageEt) refers to texts.o(TextFlashSection) for languagesArray
    texts.o(i._ZN8touchgfx5Texts11setLanguageEt) refers to typedtext.o(.data) for touchgfx::TypedText::typedTexts
    texts.o(i._ZN8touchgfx5Texts11setLanguageEt) refers to typedtext.o(.data) for touchgfx::TypedText::fonts
    texts.o(i._ZN8touchgfx5Texts11setLanguageEt) refers to typedtext.o(.data) for touchgfx::TypedText::numberOfTypedTexts
    texts.o(i.__sti___9_Texts_cpp_454ca793) refers to texts.o(TextFlashSection) for languagesArray
    texts.o(i.__sti___9_Texts_cpp_454ca793) refers to texts.o(.data) for touchgfx::Texts::currentLanguage
    texts.o(.ARM.exidx) refers to texts.o(i._ZN8touchgfx5Texts11setLanguageEt) for i._ZN8touchgfx5Texts11setLanguageEt
    texts.o(.ARM.exidx) refers to texts.o(i.__sti___9_Texts_cpp_454ca793) for i.__sti___9_Texts_cpp_454ca793
    texts.o(.data) refers to font.o(i._ZNK8touchgfx4Font17getStringWidthLTREhPKtSt9__va_list) for touchgfx::Font::getStringWidthLTR(unsigned char, const unsigned short*, std::__va_list) const
    texts.o(.data) refers to lcd.o(i._ZN8touchgfx3LCD13drawStringLTRERKNS_4RectES3_RKNS0_13StringVisualsEPKtSt9__va_list) for touchgfx::LCD::drawStringLTR(const touchgfx::Rect&, const touchgfx::Rect&, const touchgfx::LCD::StringVisuals&, const unsigned short*, std::__va_list)
    texts.o(.init_array) refers to texts.o(i.__sti___9_Texts_cpp_454ca793) for __sti___9_Texts_cpp_454ca793
    texts.o(.init_array) refers to init_aeabi.o(.text) for __cpp_initialize__aeabi_
    texts.o(TextFlashSection) refers to languagegb.o(TextFlashSection) for textsGb
    typedtextdatabase.o(i._ZN17TypedTextDatabase11getInstanceEt) refers to typedtextdatabase.o(TextFlashSection) for typedTextDatabaseArray
    typedtextdatabase.o(i._ZN17TypedTextDatabase8getFontsEv) refers to typedtextdatabase.o(.bss) for _fonts
    typedtextdatabase.o(i.__sti___21_TypedTextDatabase_cpp_42ef4e5b) refers to fontgetters.o(i._Z23getFont_verdana_17_8bppv) for getFont_verdana_17_8bpp()
    typedtextdatabase.o(i.__sti___21_TypedTextDatabase_cpp_42ef4e5b) refers to fontgetters.o(i._Z23getFont_segoeui_67_4bppv) for getFont_segoeui_67_4bpp()
    typedtextdatabase.o(i.__sti___21_TypedTextDatabase_cpp_42ef4e5b) refers to fontgetters.o(i._Z23getFont_verdana_12_4bppv) for getFont_verdana_12_4bpp()
    typedtextdatabase.o(i.__sti___21_TypedTextDatabase_cpp_42ef4e5b) refers to fontgetters.o(i._Z23getFont_verdana_34_4bppv) for getFont_verdana_34_4bpp()
    typedtextdatabase.o(i.__sti___21_TypedTextDatabase_cpp_42ef4e5b) refers to fontgetters.o(i._Z23getFont_verdana_46_4bppv) for getFont_verdana_46_4bpp()
    typedtextdatabase.o(i.__sti___21_TypedTextDatabase_cpp_42ef4e5b) refers to fontgetters.o(i._Z23getFont_segoeui_40_8bppv) for getFont_segoeui_40_8bpp()
    typedtextdatabase.o(i.__sti___21_TypedTextDatabase_cpp_42ef4e5b) refers to fontgetters.o(i._Z23getFont_segoeui_18_8bppv) for getFont_segoeui_18_8bpp()
    typedtextdatabase.o(i.__sti___21_TypedTextDatabase_cpp_42ef4e5b) refers to fontgetters.o(i._Z23getFont_segoeui_28_8bppv) for getFont_segoeui_28_8bpp()
    typedtextdatabase.o(i.__sti___21_TypedTextDatabase_cpp_42ef4e5b) refers to fontgetters.o(i._Z23getFont_segoeui_17_8bppv) for getFont_segoeui_17_8bpp()
    typedtextdatabase.o(i.__sti___21_TypedTextDatabase_cpp_42ef4e5b) refers to typedtextdatabase.o(.bss) for _fonts
    typedtextdatabase.o(.ARM.exidx) refers to typedtextdatabase.o(i._ZN17TypedTextDatabase11getInstanceEt) for i._ZN17TypedTextDatabase11getInstanceEt
    typedtextdatabase.o(.ARM.exidx) refers to typedtextdatabase.o(i._ZN17TypedTextDatabase15getInstanceSizeEv) for i._ZN17TypedTextDatabase15getInstanceSizeEv
    typedtextdatabase.o(.ARM.exidx) refers to typedtextdatabase.o(i._ZN17TypedTextDatabase8getFontsEv) for i._ZN17TypedTextDatabase8getFontsEv
    typedtextdatabase.o(.ARM.exidx) refers to typedtextdatabase.o(i.__sti___21_TypedTextDatabase_cpp_42ef4e5b) for i.__sti___21_TypedTextDatabase_cpp_42ef4e5b
    typedtextdatabase.o(.init_array) refers to typedtextdatabase.o(i.__sti___21_TypedTextDatabase_cpp_42ef4e5b) for __sti___21_TypedTextDatabase_cpp_42ef4e5b
    typedtextdatabase.o(.init_array) refers to init_aeabi.o(.text) for __cpp_initialize__aeabi_
    stm32f7dma.o(i._ZN10STM32F7DMA10initializeEv) refers to stm32f7dma.o(.bss) for Dma2dHandle
    stm32f7dma.o(i._ZN10STM32F7DMA11getBlitCapsEv) refers to stm32f7dma.o(.data) for disableChromArt
    stm32f7dma.o(i._ZN10STM32F7DMA13setupDataCopyERKN8touchgfx6BlitOpE) refers to stm32f7dma.o(i._Z15NVIC_DisableIRQ9IRQn_Type) for NVIC_DisableIRQ(IRQn_Type)
    stm32f7dma.o(i._ZN10STM32F7DMA13setupDataCopyERKN8touchgfx6BlitOpE) refers to stm32f7xx_hal_dma2d.o(i.HAL_DMA2D_DeInit) for HAL_DMA2D_DeInit
    stm32f7dma.o(i._ZN10STM32F7DMA13setupDataCopyERKN8touchgfx6BlitOpE) refers to stm32f7xx_hal_dma2d.o(i.HAL_DMA2D_Init) for HAL_DMA2D_Init
    stm32f7dma.o(i._ZN10STM32F7DMA13setupDataCopyERKN8touchgfx6BlitOpE) refers to stm32f7dma.o(i._ZNK8touchgfx9colortypecvtEv) for touchgfx::colortype::operator unsigned short() const
    stm32f7dma.o(i._ZN10STM32F7DMA13setupDataCopyERKN8touchgfx6BlitOpE) refers to stm32f7xx_hal_dma2d.o(i.HAL_DMA2D_ConfigLayer) for HAL_DMA2D_ConfigLayer
    stm32f7dma.o(i._ZN10STM32F7DMA13setupDataCopyERKN8touchgfx6BlitOpE) refers to stm32f7dma.o(i._Z14NVIC_EnableIRQ9IRQn_Type) for NVIC_EnableIRQ(IRQn_Type)
    stm32f7dma.o(i._ZN10STM32F7DMA13setupDataCopyERKN8touchgfx6BlitOpE) refers to stm32f7dma.o(i._Z25SCB_CleanInvalidateDCachev) for SCB_CleanInvalidateDCache()
    stm32f7dma.o(i._ZN10STM32F7DMA13setupDataCopyERKN8touchgfx6BlitOpE) refers to stm32f7xx_hal_dma2d.o(i.HAL_DMA2D_BlendingStart_IT) for HAL_DMA2D_BlendingStart_IT
    stm32f7dma.o(i._ZN10STM32F7DMA13setupDataCopyERKN8touchgfx6BlitOpE) refers to stm32f7xx_hal_dma2d.o(i.HAL_DMA2D_Start_IT) for HAL_DMA2D_Start_IT
    stm32f7dma.o(i._ZN10STM32F7DMA13setupDataCopyERKN8touchgfx6BlitOpE) refers to hal.o(.data) for touchgfx::HAL::instance
    stm32f7dma.o(i._ZN10STM32F7DMA13setupDataCopyERKN8touchgfx6BlitOpE) refers to stm32f7dma.o(.bss) for Dma2dHandle
    stm32f7dma.o(i._ZN10STM32F7DMA13setupDataFillERKN8touchgfx6BlitOpE) refers to rt_memcpy_w.o(.text) for __aeabi_memcpy4
    stm32f7dma.o(i._ZN10STM32F7DMA13setupDataFillERKN8touchgfx6BlitOpE) refers to stm32f7dma.o(i._Z15NVIC_DisableIRQ9IRQn_Type) for NVIC_DisableIRQ(IRQn_Type)
    stm32f7dma.o(i._ZN10STM32F7DMA13setupDataFillERKN8touchgfx6BlitOpE) refers to stm32f7xx_hal_dma2d.o(i.HAL_DMA2D_DeInit) for HAL_DMA2D_DeInit
    stm32f7dma.o(i._ZN10STM32F7DMA13setupDataFillERKN8touchgfx6BlitOpE) refers to stm32f7dma.o(i._ZNK8touchgfx9colortypecvtEv) for touchgfx::colortype::operator unsigned short() const
    stm32f7dma.o(i._ZN10STM32F7DMA13setupDataFillERKN8touchgfx6BlitOpE) refers to stm32f7xx_hal_dma2d.o(i.HAL_DMA2D_Init) for HAL_DMA2D_Init
    stm32f7dma.o(i._ZN10STM32F7DMA13setupDataFillERKN8touchgfx6BlitOpE) refers to stm32f7xx_hal_dma2d.o(i.HAL_DMA2D_ConfigLayer) for HAL_DMA2D_ConfigLayer
    stm32f7dma.o(i._ZN10STM32F7DMA13setupDataFillERKN8touchgfx6BlitOpE) refers to stm32f7dma.o(i._Z14NVIC_EnableIRQ9IRQn_Type) for NVIC_EnableIRQ(IRQn_Type)
    stm32f7dma.o(i._ZN10STM32F7DMA13setupDataFillERKN8touchgfx6BlitOpE) refers to stm32f7dma.o(i._Z25SCB_CleanInvalidateDCachev) for SCB_CleanInvalidateDCache()
    stm32f7dma.o(i._ZN10STM32F7DMA13setupDataFillERKN8touchgfx6BlitOpE) refers to stm32f7xx_hal_dma2d.o(i.HAL_DMA2D_Start_IT) for HAL_DMA2D_Start_IT
    stm32f7dma.o(i._ZN10STM32F7DMA13setupDataFillERKN8touchgfx6BlitOpE) refers to hal.o(.data) for touchgfx::HAL::instance
    stm32f7dma.o(i._ZN10STM32F7DMA13setupDataFillERKN8touchgfx6BlitOpE) refers to stm32f7dma.o(.bss) for Dma2dHandle
    stm32f7dma.o(i._ZN10STM32F7DMA18setupFillWithAlphaERKN8touchgfx6BlitOpE) refers to stm32f7dma.o(i._ZNK8touchgfx9colortypecvtEv) for touchgfx::colortype::operator unsigned short() const
    stm32f7dma.o(i._ZN10STM32F7DMA18setupFillWithAlphaERKN8touchgfx6BlitOpE) refers to stm32f7dma.o(i._Z15NVIC_DisableIRQ9IRQn_Type) for NVIC_DisableIRQ(IRQn_Type)
    stm32f7dma.o(i._ZN10STM32F7DMA18setupFillWithAlphaERKN8touchgfx6BlitOpE) refers to stm32f7dma.o(i._Z14NVIC_EnableIRQ9IRQn_Type) for NVIC_EnableIRQ(IRQn_Type)
    stm32f7dma.o(i._ZN10STM32F7DMA18setupFillWithAlphaERKN8touchgfx6BlitOpE) refers to stm32f7dma.o(i._Z25SCB_CleanInvalidateDCachev) for SCB_CleanInvalidateDCache()
    stm32f7dma.o(i._ZN10STM32F7DMA18setupFillWithAlphaERKN8touchgfx6BlitOpE) refers to stm32f7dma.o(.bss) for Dma2dHandle
    stm32f7dma.o(i._ZN10STM32F7DMA18setupFillWithAlphaERKN8touchgfx6BlitOpE) refers to hal.o(.data) for touchgfx::HAL::instance
    stm32f7dma.o(i._ZN10STM32F7DMAC1Ev) refers to dma.o(i._ZN8touchgfx17LockFreeDMA_QueueC1EPNS_6BlitOpEm) for touchgfx::LockFreeDMA_Queue::LockFreeDMA_Queue(touchgfx::BlitOp*, unsigned long)
    stm32f7dma.o(i._ZN10STM32F7DMAC1Ev) refers to aeabi_vec_ctor_nocookie_nodtor.o(i.__aeabi_vec_ctor_nocookie_nodtor) for __aeabi_vec_ctor_nocookie_nodtor
    stm32f7dma.o(i._ZN10STM32F7DMAC1Ev) refers to dma.o(.constdata__ZTVN8touchgfx13DMA_InterfaceE) for vtable for touchgfx::DMA_Interface
    stm32f7dma.o(i._ZN10STM32F7DMAC1Ev) refers to stm32f7dma.o(.constdata__ZTV10STM32F7DMA) for vtable for STM32F7DMA
    stm32f7dma.o(i._ZN10STM32F7DMAC1Ev) refers to stm32f7dma.o(i._ZN8touchgfx6BlitOpC1Ev) for touchgfx::BlitOp::BlitOp()
    stm32f7dma.o(i._ZN10STM32F7DMAD0Ev) refers to stm32f7dma.o(i._ZN10STM32F7DMAD1Ev) for STM32F7DMA::~STM32F7DMA()
    stm32f7dma.o(i._ZN10STM32F7DMAD0Ev) refers to delete.o(i._ZdlPv) for operator delete (void*)
    stm32f7dma.o(i._ZN10STM32F7DMAD1Ev) refers to stm32f7dma.o(.constdata__ZTV10STM32F7DMA) for vtable for STM32F7DMA
    stm32f7dma.o(.ARM.exidx) refers to stm32f7dma.o(i._Z25SCB_CleanInvalidateDCachev) for i._Z25SCB_CleanInvalidateDCachev
    stm32f7dma.o(.ARM.exidx) refers to stm32f7dma.o(i._ZN10STM32F7DMAC1Ev) for i._ZN10STM32F7DMAC1Ev
    stm32f7dma.o(.ARM.exidx) refers to stm32f7dma.o(i._ZN10STM32F7DMAD1Ev) for i._ZN10STM32F7DMAD1Ev
    stm32f7dma.o(.ARM.exidx) refers to stm32f7dma.o(i._ZN10STM32F7DMAD0Ev) for i._ZN10STM32F7DMAD0Ev
    stm32f7dma.o(.ARM.exidx) refers to stm32f7dma.o(i._ZN10STM32F7DMA11getBlitCapsEv) for i._ZN10STM32F7DMA11getBlitCapsEv
    stm32f7dma.o(.ARM.exidx) refers to stm32f7dma.o(i._ZN10STM32F7DMA10initializeEv) for i._ZN10STM32F7DMA10initializeEv
    stm32f7dma.o(.ARM.exidx) refers to stm32f7dma.o(i._ZN10STM32F7DMA13setupDataCopyERKN8touchgfx6BlitOpE) for i._ZN10STM32F7DMA13setupDataCopyERKN8touchgfx6BlitOpE
    stm32f7dma.o(.ARM.exidx) refers to stm32f7dma.o(i._ZN10STM32F7DMA13setupDataFillERKN8touchgfx6BlitOpE) for i._ZN10STM32F7DMA13setupDataFillERKN8touchgfx6BlitOpE
    stm32f7dma.o(.ARM.exidx) refers to stm32f7dma.o(i._ZN10STM32F7DMA18setupFillWithAlphaERKN8touchgfx6BlitOpE) for i._ZN10STM32F7DMA18setupFillWithAlphaERKN8touchgfx6BlitOpE
    stm32f7dma.o(.ARM.exidx) refers to stm32f7dma.o(i._Z14NVIC_EnableIRQ9IRQn_Type) for i._Z14NVIC_EnableIRQ9IRQn_Type
    stm32f7dma.o(.ARM.exidx) refers to stm32f7dma.o(i._Z15NVIC_DisableIRQ9IRQn_Type) for i._Z15NVIC_DisableIRQ9IRQn_Type
    stm32f7hal.o(i.DMA2D_IRQHandler) refers to stm32f7hal.o(i._Z25SCB_CleanInvalidateDCachev) for SCB_CleanInvalidateDCache()
    stm32f7hal.o(i.DMA2D_IRQHandler) refers to hal.o(.data) for touchgfx::HAL::instance
    stm32f7hal.o(i.LTDC_IRQHandler) refers to oswrappers.o(i._ZN8touchgfx10OSWrappers11signalVSyncEv) for touchgfx::OSWrappers::signalVSync()
    stm32f7hal.o(i.LTDC_IRQHandler) refers to hal.o(i._ZN8touchgfx3HAL16swapFrameBuffersEv) for touchgfx::HAL::swapFrameBuffers()
    stm32f7hal.o(i.LTDC_IRQHandler) refers to gpio.o(i._ZN8touchgfx4GPIO3setENS0_7GPIO_IDE) for touchgfx::GPIO::set(touchgfx::GPIO::GPIO_ID)
    stm32f7hal.o(i.LTDC_IRQHandler) refers to gpio.o(i._ZN8touchgfx4GPIO5clearENS0_7GPIO_IDE) for touchgfx::GPIO::clear(touchgfx::GPIO::GPIO_ID)
    stm32f7hal.o(i.LTDC_IRQHandler) refers to stm32f7hal.o(.data) for lcd_int_active_line
    stm32f7hal.o(i.LTDC_IRQHandler) refers to hal.o(.data) for touchgfx::HAL::instance
    stm32f7hal.o(i._ZN10STM32F7HAL16enableInterruptsEv) refers to stm32f7hal.o(i._Z14NVIC_EnableIRQ9IRQn_Type) for NVIC_EnableIRQ(IRQn_Type)
    stm32f7hal.o(i._ZN10STM32F7HAL16flushFrameBufferERKN8touchgfx4RectE) refers to hal.o(i._ZN8touchgfx3HAL16flushFrameBufferERKNS_4RectE) for touchgfx::HAL::flushFrameBuffer(const touchgfx::Rect&)
    stm32f7hal.o(i._ZN10STM32F7HAL16flushFrameBufferERKN8touchgfx4RectE) refers to stm32f7hal.o(i._Z25SCB_CleanInvalidateDCachev) for SCB_CleanInvalidateDCache()
    stm32f7hal.o(i._ZN10STM32F7HAL17disableInterruptsEv) refers to stm32f7hal.o(i._Z15NVIC_DisableIRQ9IRQn_Type) for NVIC_DisableIRQ(IRQn_Type)
    stm32f7hal.o(i._ZN10STM32F7HAL19configureInterruptsEv) refers to stm32f7hal.o(i._Z16NVIC_SetPriority9IRQn_Typej) for NVIC_SetPriority(IRQn_Type, unsigned)
    stm32f7hal.o(i._ZN10STM32F7HAL28enableLCDControllerInterruptEv) refers to stm32f7hal.o(.data) for lcd_int_active_line
    stm32f7hal.o(.ARM.exidx) refers to stm32f7hal.o(i._Z16NVIC_SetPriority9IRQn_Typej) for i._Z16NVIC_SetPriority9IRQn_Typej
    stm32f7hal.o(.ARM.exidx) refers to stm32f7hal.o(i._Z25SCB_CleanInvalidateDCachev) for i._Z25SCB_CleanInvalidateDCachev
    stm32f7hal.o(.ARM.exidx) refers to stm32f7hal.o(i.LTDC_IRQHandler) for i.LTDC_IRQHandler
    stm32f7hal.o(.ARM.exidx) refers to stm32f7hal.o(i.DMA2D_IRQHandler) for i.DMA2D_IRQHandler
    stm32f7hal.o(.ARM.exidx) refers to stm32f7hal.o(i._ZN10STM32F7HAL17disableInterruptsEv) for i._ZN10STM32F7HAL17disableInterruptsEv
    stm32f7hal.o(.ARM.exidx) refers to stm32f7hal.o(i._ZN10STM32F7HAL16enableInterruptsEv) for i._ZN10STM32F7HAL16enableInterruptsEv
    stm32f7hal.o(.ARM.exidx) refers to stm32f7hal.o(i._ZN10STM32F7HAL19configureInterruptsEv) for i._ZN10STM32F7HAL19configureInterruptsEv
    stm32f7hal.o(.ARM.exidx) refers to stm32f7hal.o(i._ZN10STM32F7HAL28enableLCDControllerInterruptEv) for i._ZN10STM32F7HAL28enableLCDControllerInterruptEv
    stm32f7hal.o(.ARM.exidx) refers to stm32f7hal.o(i._ZN10STM32F7HAL16flushFrameBufferERKN8touchgfx4RectE) for i._ZN10STM32F7HAL16flushFrameBufferERKN8touchgfx4RectE
    stm32f7hal.o(.ARM.exidx) refers to stm32f7hal.o(i._ZN10STM32F7HAL17getTFTCurrentLineEv) for i._ZN10STM32F7HAL17getTFTCurrentLineEv
    stm32f7hal.o(.ARM.exidx) refers to stm32f7hal.o(i._ZNK10STM32F7HAL17getTFTFrameBufferEv) for i._ZNK10STM32F7HAL17getTFTFrameBufferEv
    stm32f7hal.o(.ARM.exidx) refers to stm32f7hal.o(i._ZN10STM32F7HAL17setTFTFrameBufferEPt) for i._ZN10STM32F7HAL17setTFTFrameBufferEPt
    stm32f7hal.o(.ARM.exidx) refers to stm32f7hal.o(i._Z14NVIC_EnableIRQ9IRQn_Type) for i._Z14NVIC_EnableIRQ9IRQn_Type
    stm32f7hal.o(.ARM.exidx) refers to stm32f7hal.o(i._Z15NVIC_DisableIRQ9IRQn_Type) for i._Z15NVIC_DisableIRQ9IRQn_Type
    boardconfiguration.o(i.SysTick_Handler) refers to stm32f7xx_hal.o(i.HAL_IncTick) for HAL_IncTick
    boardconfiguration.o(i.SysTick_Handler) refers to port.o(i.OS_SysTick) for OS_SysTick
    boardconfiguration.o(i.SysTick_Handler) refers to boardconfiguration.o(.data) for os_inited
    boardconfiguration.o(i.SystemClock_Config) refers to stm32f7xx_hal_rcc.o(i.HAL_RCC_OscConfig) for HAL_RCC_OscConfig
    boardconfiguration.o(i.SystemClock_Config) refers to stm32f7xx_hal_pwr_ex.o(i.HAL_PWREx_EnableOverDrive) for HAL_PWREx_EnableOverDrive
    boardconfiguration.o(i.SystemClock_Config) refers to stm32f7xx_hal_rcc.o(i.HAL_RCC_ClockConfig) for HAL_RCC_ClockConfig
    boardconfiguration.o(i.SystemClock_Config) refers to stm32f7xx_hal_rcc_ex.o(i.HAL_RCCEx_PeriphCLKConfig) for HAL_RCCEx_PeriphCLKConfig
    boardconfiguration.o(i._Z17BSP_LCD_LayerInittj) refers to stm32746g_discovery_lcd.o(i.BSP_LCD_GetXSize) for BSP_LCD_GetXSize
    boardconfiguration.o(i._Z17BSP_LCD_LayerInittj) refers to stm32746g_discovery_lcd.o(i.BSP_LCD_GetYSize) for BSP_LCD_GetYSize
    boardconfiguration.o(i._Z17BSP_LCD_LayerInittj) refers to stm32f7xx_hal_ltdc.o(i.HAL_LTDC_ConfigLayer) for HAL_LTDC_ConfigLayer
    boardconfiguration.o(i._Z17BSP_LCD_LayerInittj) refers to stm32746g_discovery_lcd.o(.bss) for hLtdcHandler
    boardconfiguration.o(i._ZN8touchgfx13touchgfx_initEv) refers to boardconfiguration.o(t._ZN8touchgfx21touchgfx_generic_initI10STM32F7HALEERNS_3HALERNS_13DMA_InterfaceERNS_3LCDERNS_15TouchControllerEssPtjj) for touchgfx::HAL& touchgfx::touchgfx_generic_init<STM32F7HAL>(touchgfx::DMA_Interface&, touchgfx::LCD&, touchgfx::TouchController&, short, short, unsigned short*, unsigned, unsigned)
    boardconfiguration.o(i._ZN8touchgfx13touchgfx_initEv) refers to stm32f7instrumentation.o(i._ZN8touchgfx22STM32F7Instrumentation4initEv) for touchgfx::STM32F7Instrumentation::init()
    boardconfiguration.o(i._ZN8touchgfx13touchgfx_initEv) refers to boardconfiguration.o(.data) for touchgfx::tc
    boardconfiguration.o(i._ZN8touchgfx13touchgfx_initEv) refers to boardconfiguration.o(.bss) for touchgfx::dma
    boardconfiguration.o(i._ZN8touchgfx7hw_initEv) refers to stm32f7xx_hal.o(i.HAL_Init) for HAL_Init
    boardconfiguration.o(i._ZN8touchgfx7hw_initEv) refers to boardconfiguration.o(i.SystemClock_Config) for SystemClock_Config
    boardconfiguration.o(i._ZN8touchgfx7hw_initEv) refers to stm32746g_discovery_qspi.o(i.BSP_QSPI_Init) for BSP_QSPI_Init
    boardconfiguration.o(i._ZN8touchgfx7hw_initEv) refers to stm32746g_discovery_qspi.o(i.BSP_QSPI_EnableMemoryMappedMode) for BSP_QSPI_EnableMemoryMappedMode
    boardconfiguration.o(i._ZN8touchgfx7hw_initEv) refers to stm32f7xx_hal_cortex.o(i.HAL_NVIC_DisableIRQ) for HAL_NVIC_DisableIRQ
    boardconfiguration.o(i._ZN8touchgfx7hw_initEv) refers to stm32746g_discovery_sdram.o(i.BSP_SDRAM_Init) for BSP_SDRAM_Init
    boardconfiguration.o(i._ZN8touchgfx7hw_initEv) refers to stm32746g_discovery_lcd.o(i.BSP_LCD_Init) for BSP_LCD_Init
    boardconfiguration.o(i._ZN8touchgfx7hw_initEv) refers to boardconfiguration.o(i._Z17BSP_LCD_LayerInittj) for BSP_LCD_LayerInit(unsigned short, unsigned)
    boardconfiguration.o(i._ZN8touchgfx7hw_initEv) refers to stm32746g_discovery_lcd.o(i.BSP_LCD_DisplayOn) for BSP_LCD_DisplayOn
    boardconfiguration.o(i._ZN8touchgfx7hw_initEv) refers to gpio.o(i._ZN8touchgfx4GPIO4initEv) for touchgfx::GPIO::init()
    boardconfiguration.o(i._ZN8touchgfx7hw_initEv) refers to boardconfiguration.o(i._Z16SCB_EnableDCachev) for SCB_EnableDCache()
    boardconfiguration.o(i._ZN8touchgfx7hw_initEv) refers to stm32f7xx_hal_cortex.o(i.HAL_MPU_ConfigRegion) for HAL_MPU_ConfigRegion
    boardconfiguration.o(i._ZN8touchgfx7hw_initEv) refers to rtc.o(i.MX_RTC_Init) for MX_RTC_Init
    boardconfiguration.o(i._ZN8touchgfx7hw_initEv) refers to gpio_1.o(i.MX_GPIO_Init) for MX_GPIO_Init
    boardconfiguration.o(i._ZN8touchgfx7hw_initEv) refers to boardconfiguration.o(.data) for frameBuf0
    boardconfiguration.o(i.__sti___22_BoardConfiguration_cpp_dceb80ee) refers to aeabi_atexit.o(.text) for __aeabi_atexit
    boardconfiguration.o(i.__sti___22_BoardConfiguration_cpp_dceb80ee) refers to stm32f7dma.o(i._ZN10STM32F7DMAC1Ev) for STM32F7DMA::STM32F7DMA()
    boardconfiguration.o(i.__sti___22_BoardConfiguration_cpp_dceb80ee) refers to boardconfiguration.o(.data) for fontProvider
    boardconfiguration.o(i.__sti___22_BoardConfiguration_cpp_dceb80ee) refers to boardconfiguration.o(.constdata__ZTVN8touchgfx12FontProviderE) for vtable for touchgfx::FontProvider
    boardconfiguration.o(i.__sti___22_BoardConfiguration_cpp_dceb80ee) refers to applicationfontprovider.o(.constdata__ZTV23ApplicationFontProvider) for vtable for ApplicationFontProvider
    boardconfiguration.o(i.__sti___22_BoardConfiguration_cpp_dceb80ee) refers to applicationfontprovider.o(i._ZN23ApplicationFontProviderD1Ev) for ApplicationFontProvider::~ApplicationFontProvider()
    boardconfiguration.o(i.__sti___22_BoardConfiguration_cpp_dceb80ee) refers to boardconfiguration.o(.bss) for touchgfx::dma
    boardconfiguration.o(i.__sti___22_BoardConfiguration_cpp_dceb80ee) refers to stm32f7dma.o(i._ZN10STM32F7DMAD1Ev) for STM32F7DMA::~STM32F7DMA()
    boardconfiguration.o(i.__sti___22_BoardConfiguration_cpp_dceb80ee) refers to boardconfiguration.o(.constdata__ZTVN8touchgfx15TouchControllerE) for vtable for touchgfx::TouchController
    boardconfiguration.o(i.__sti___22_BoardConfiguration_cpp_dceb80ee) refers to stm32f746gtouchcontroller.o(.constdata__ZTVN8touchgfx25STM32F746GTouchControllerE) for vtable for touchgfx::STM32F746GTouchController
    boardconfiguration.o(i.__sti___22_BoardConfiguration_cpp_dceb80ee) refers to boardconfiguration.o(i._ZN8touchgfx25STM32F746GTouchControllerD1Ev) for touchgfx::STM32F746GTouchController::~STM32F746GTouchController()
    boardconfiguration.o(i.__sti___22_BoardConfiguration_cpp_dceb80ee) refers to boardconfiguration.o(.constdata__ZTVN8touchgfx18MCUInstrumentationE) for vtable for touchgfx::MCUInstrumentation
    boardconfiguration.o(i.__sti___22_BoardConfiguration_cpp_dceb80ee) refers to stm32f7instrumentation.o(.constdata__ZTVN8touchgfx22STM32F7InstrumentationE) for vtable for touchgfx::STM32F7Instrumentation
    boardconfiguration.o(i.__sti___22_BoardConfiguration_cpp_dceb80ee) refers to boardconfiguration.o(i._ZN8touchgfx22STM32F7InstrumentationD1Ev) for touchgfx::STM32F7Instrumentation::~STM32F7Instrumentation()
    boardconfiguration.o(i.__sti___22_BoardConfiguration_cpp_dceb80ee) refers to boardconfiguration.o(.constdata__ZTVN8touchgfx3LCDE) for vtable for touchgfx::LCD
    boardconfiguration.o(i.__sti___22_BoardConfiguration_cpp_dceb80ee) refers to lcd16bpp.o(.constdata__ZTVN8touchgfx8LCD16bppE) for vtable for touchgfx::LCD16bpp
    boardconfiguration.o(i.__sti___22_BoardConfiguration_cpp_dceb80ee) refers to boardconfiguration.o(i._ZN8touchgfx8LCD16bppD1Ev) for touchgfx::LCD16bpp::~LCD16bpp()
    boardconfiguration.o(.ARM.exidx) refers to boardconfiguration.o(i.SysTick_Handler) for i.SysTick_Handler
    boardconfiguration.o(.ARM.exidx) refers to boardconfiguration.o(i.SystemClock_Config) for i.SystemClock_Config
    boardconfiguration.o(.ARM.exidx) refers to boardconfiguration.o(i._Z17BSP_LCD_LayerInittj) for i._Z17BSP_LCD_LayerInittj
    boardconfiguration.o(.ARM.exidx) refers to boardconfiguration.o(i._ZN8touchgfx7hw_initEv) for i._ZN8touchgfx7hw_initEv
    boardconfiguration.o(.ARM.exidx) refers to boardconfiguration.o(i._ZN8touchgfx13touchgfx_initEv) for i._ZN8touchgfx13touchgfx_initEv
    boardconfiguration.o(.ARM.exidx) refers to boardconfiguration.o(i.__sti___22_BoardConfiguration_cpp_dceb80ee) for i.__sti___22_BoardConfiguration_cpp_dceb80ee
    boardconfiguration.o(.ARM.exidx) refers to boardconfiguration.o(i._Z16SCB_EnableDCachev) for i._Z16SCB_EnableDCachev
    boardconfiguration.o(.init_array) refers to boardconfiguration.o(i.__sti___22_BoardConfiguration_cpp_dceb80ee) for __sti___22_BoardConfiguration_cpp_dceb80ee
    boardconfiguration.o(.init_array) refers to init_aeabi.o(.text) for __cpp_initialize__aeabi_
    gpio.o(i._ZN8touchgfx4GPIO3getENS0_7GPIO_IDE) refers to gpio.o(i._Z12isRenderTimeN8touchgfx4GPIO7GPIO_IDE) for isRenderTime(touchgfx::GPIO::GPIO_ID)
    gpio.o(i._ZN8touchgfx4GPIO3getENS0_7GPIO_IDE) refers to gpio.o(.data) for ledState
    gpio.o(i._ZN8touchgfx4GPIO3setENS0_7GPIO_IDE) refers to gpio.o(i._Z12isRenderTimeN8touchgfx4GPIO7GPIO_IDE) for isRenderTime(touchgfx::GPIO::GPIO_ID)
    gpio.o(i._ZN8touchgfx4GPIO3setENS0_7GPIO_IDE) refers to stm32746g_discovery.o(i.BSP_LED_On) for BSP_LED_On
    gpio.o(i._ZN8touchgfx4GPIO3setENS0_7GPIO_IDE) refers to gpio.o(.data) for ledState
    gpio.o(i._ZN8touchgfx4GPIO4initEv) refers to stm32746g_discovery.o(i.BSP_LED_Init) for BSP_LED_Init
    gpio.o(i._ZN8touchgfx4GPIO4initEv) refers to gpio.o(i._ZN8touchgfx4GPIO5clearENS0_7GPIO_IDE) for touchgfx::GPIO::clear(touchgfx::GPIO::GPIO_ID)
    gpio.o(i._ZN8touchgfx4GPIO5clearENS0_7GPIO_IDE) refers to gpio.o(i._Z12isRenderTimeN8touchgfx4GPIO7GPIO_IDE) for isRenderTime(touchgfx::GPIO::GPIO_ID)
    gpio.o(i._ZN8touchgfx4GPIO5clearENS0_7GPIO_IDE) refers to stm32746g_discovery.o(i.BSP_LED_Off) for BSP_LED_Off
    gpio.o(i._ZN8touchgfx4GPIO5clearENS0_7GPIO_IDE) refers to gpio.o(.data) for ledState
    gpio.o(i._ZN8touchgfx4GPIO6toggleENS0_7GPIO_IDE) refers to gpio.o(i._Z12isRenderTimeN8touchgfx4GPIO7GPIO_IDE) for isRenderTime(touchgfx::GPIO::GPIO_ID)
    gpio.o(i._ZN8touchgfx4GPIO6toggleENS0_7GPIO_IDE) refers to stm32746g_discovery.o(i.BSP_LED_Toggle) for BSP_LED_Toggle
    gpio.o(.ARM.exidx) refers to gpio.o(i._Z12isRenderTimeN8touchgfx4GPIO7GPIO_IDE) for i._Z12isRenderTimeN8touchgfx4GPIO7GPIO_IDE
    gpio.o(.ARM.exidx) refers to gpio.o(i._ZN8touchgfx4GPIO5clearENS0_7GPIO_IDE) for i._ZN8touchgfx4GPIO5clearENS0_7GPIO_IDE
    gpio.o(.ARM.exidx) refers to gpio.o(i._ZN8touchgfx4GPIO4initEv) for i._ZN8touchgfx4GPIO4initEv
    gpio.o(.ARM.exidx) refers to gpio.o(i._ZN8touchgfx4GPIO3setENS0_7GPIO_IDE) for i._ZN8touchgfx4GPIO3setENS0_7GPIO_IDE
    gpio.o(.ARM.exidx) refers to gpio.o(i._ZN8touchgfx4GPIO6toggleENS0_7GPIO_IDE) for i._ZN8touchgfx4GPIO6toggleENS0_7GPIO_IDE
    gpio.o(.ARM.exidx) refers to gpio.o(i._ZN8touchgfx4GPIO3getENS0_7GPIO_IDE) for i._ZN8touchgfx4GPIO3getENS0_7GPIO_IDE
    stm32f7instrumentation.o(i._ZN8touchgfx22STM32F7Instrumentation12getCPUCyclesEv) refers to stm32f7instrumentation.o(.bss) for touchgfx::tim
    stm32f7instrumentation.o(i._ZN8touchgfx22STM32F7Instrumentation4initEv) refers to stm32f7xx_hal_tim.o(i.HAL_TIM_Base_Init) for HAL_TIM_Base_Init
    stm32f7instrumentation.o(i._ZN8touchgfx22STM32F7Instrumentation4initEv) refers to stm32f7xx_hal_tim.o(i.HAL_TIM_Base_Start) for HAL_TIM_Base_Start
    stm32f7instrumentation.o(i._ZN8touchgfx22STM32F7Instrumentation4initEv) refers to stm32f7instrumentation.o(.bss) for touchgfx::tim
    stm32f7instrumentation.o(.ARM.exidx) refers to stm32f7instrumentation.o(i._ZN8touchgfx22STM32F7Instrumentation4initEv) for i._ZN8touchgfx22STM32F7Instrumentation4initEv
    stm32f7instrumentation.o(.ARM.exidx) refers to stm32f7instrumentation.o(i._ZN8touchgfx22STM32F7Instrumentation12getElapsedUSEjjj) for i._ZN8touchgfx22STM32F7Instrumentation12getElapsedUSEjjj
    stm32f7instrumentation.o(.ARM.exidx) refers to stm32f7instrumentation.o(i._ZN8touchgfx22STM32F7Instrumentation12getCPUCyclesEv) for i._ZN8touchgfx22STM32F7Instrumentation12getCPUCyclesEv
    stm32f7instrumentation.o(.ARM.exidx) refers to stm32f7instrumentation.o(i._ZN8touchgfx22STM32F7Instrumentation12setMCUActiveEb) for i._ZN8touchgfx22STM32F7Instrumentation12setMCUActiveEb
    stm32746g_discovery.o(i.AUDIO_IO_Delay) refers to stm32f7xx_hal.o(i.HAL_Delay) for HAL_Delay
    stm32746g_discovery.o(i.AUDIO_IO_Init) refers to stm32746g_discovery.o(i.I2Cx_Init) for I2Cx_Init
    stm32746g_discovery.o(i.AUDIO_IO_Init) refers to stm32746g_discovery.o(.bss) for hI2cAudioHandler
    stm32746g_discovery.o(i.AUDIO_IO_Read) refers to stm32746g_discovery.o(i.I2Cx_ReadMultiple) for I2Cx_ReadMultiple
    stm32746g_discovery.o(i.AUDIO_IO_Read) refers to stm32746g_discovery.o(.bss) for hI2cAudioHandler
    stm32746g_discovery.o(i.AUDIO_IO_Write) refers to stm32746g_discovery.o(i.I2Cx_WriteMultiple) for I2Cx_WriteMultiple
    stm32746g_discovery.o(i.AUDIO_IO_Write) refers to stm32746g_discovery.o(.bss) for hI2cAudioHandler
    stm32746g_discovery.o(i.BSP_COM_DeInit) refers to stm32f7xx_hal_uart.o(i.HAL_UART_DeInit) for HAL_UART_DeInit
    stm32746g_discovery.o(i.BSP_COM_DeInit) refers to stm32746g_discovery.o(.data) for COM_USART
    stm32746g_discovery.o(i.BSP_COM_Init) refers to stm32f7xx_hal_gpio.o(i.HAL_GPIO_Init) for HAL_GPIO_Init
    stm32746g_discovery.o(i.BSP_COM_Init) refers to stm32f7xx_hal_uart.o(i.HAL_UART_Init) for HAL_UART_Init
    stm32746g_discovery.o(i.BSP_COM_Init) refers to stm32746g_discovery.o(.constdata) for COM_TX_PIN
    stm32746g_discovery.o(i.BSP_COM_Init) refers to stm32746g_discovery.o(.data) for COM_TX_PORT
    stm32746g_discovery.o(i.BSP_LED_DeInit) refers to stm32f7xx_hal_gpio.o(i.HAL_GPIO_WritePin) for HAL_GPIO_WritePin
    stm32746g_discovery.o(i.BSP_LED_DeInit) refers to stm32f7xx_hal_gpio.o(i.HAL_GPIO_DeInit) for HAL_GPIO_DeInit
    stm32746g_discovery.o(i.BSP_LED_DeInit) refers to stm32746g_discovery.o(.constdata) for GPIO_PIN
    stm32746g_discovery.o(i.BSP_LED_Init) refers to stm32f7xx_hal_gpio.o(i.HAL_GPIO_Init) for HAL_GPIO_Init
    stm32746g_discovery.o(i.BSP_LED_Init) refers to stm32f7xx_hal_gpio.o(i.HAL_GPIO_WritePin) for HAL_GPIO_WritePin
    stm32746g_discovery.o(i.BSP_LED_Init) refers to stm32746g_discovery.o(.constdata) for GPIO_PIN
    stm32746g_discovery.o(i.BSP_LED_Off) refers to stm32f7xx_hal_gpio.o(i.HAL_GPIO_WritePin) for HAL_GPIO_WritePin
    stm32746g_discovery.o(i.BSP_LED_Off) refers to stm32746g_discovery.o(.constdata) for GPIO_PIN
    stm32746g_discovery.o(i.BSP_LED_On) refers to stm32f7xx_hal_gpio.o(i.HAL_GPIO_WritePin) for HAL_GPIO_WritePin
    stm32746g_discovery.o(i.BSP_LED_On) refers to stm32746g_discovery.o(.constdata) for GPIO_PIN
    stm32746g_discovery.o(i.BSP_LED_Toggle) refers to stm32f7xx_hal_gpio.o(i.HAL_GPIO_TogglePin) for HAL_GPIO_TogglePin
    stm32746g_discovery.o(i.BSP_LED_Toggle) refers to stm32746g_discovery.o(.constdata) for GPIO_PIN
    stm32746g_discovery.o(i.BSP_PB_DeInit) refers to stm32f7xx_hal_cortex.o(i.HAL_NVIC_DisableIRQ) for HAL_NVIC_DisableIRQ
    stm32746g_discovery.o(i.BSP_PB_DeInit) refers to stm32f7xx_hal_gpio.o(i.HAL_GPIO_DeInit) for HAL_GPIO_DeInit
    stm32746g_discovery.o(i.BSP_PB_DeInit) refers to stm32746g_discovery.o(.constdata) for BUTTON_PIN
    stm32746g_discovery.o(i.BSP_PB_DeInit) refers to stm32746g_discovery.o(.data) for BUTTON_PORT
    stm32746g_discovery.o(i.BSP_PB_GetState) refers to stm32f7xx_hal_gpio.o(i.HAL_GPIO_ReadPin) for HAL_GPIO_ReadPin
    stm32746g_discovery.o(i.BSP_PB_GetState) refers to stm32746g_discovery.o(.constdata) for BUTTON_PIN
    stm32746g_discovery.o(i.BSP_PB_GetState) refers to stm32746g_discovery.o(.data) for BUTTON_PORT
    stm32746g_discovery.o(i.BSP_PB_Init) refers to stm32f7xx_hal_gpio.o(i.HAL_GPIO_Init) for HAL_GPIO_Init
    stm32746g_discovery.o(i.BSP_PB_Init) refers to stm32f7xx_hal_cortex.o(i.HAL_NVIC_SetPriority) for HAL_NVIC_SetPriority
    stm32746g_discovery.o(i.BSP_PB_Init) refers to stm32f7xx_hal_cortex.o(i.HAL_NVIC_EnableIRQ) for HAL_NVIC_EnableIRQ
    stm32746g_discovery.o(i.BSP_PB_Init) refers to stm32746g_discovery.o(.constdata) for BUTTON_PIN
    stm32746g_discovery.o(i.BSP_PB_Init) refers to stm32746g_discovery.o(.data) for BUTTON_PORT
    stm32746g_discovery.o(i.CAMERA_Delay) refers to stm32f7xx_hal.o(i.HAL_Delay) for HAL_Delay
    stm32746g_discovery.o(i.CAMERA_IO_Init) refers to stm32746g_discovery.o(i.I2Cx_Init) for I2Cx_Init
    stm32746g_discovery.o(i.CAMERA_IO_Init) refers to stm32746g_discovery.o(.bss) for hI2cExtHandler
    stm32746g_discovery.o(i.CAMERA_IO_Read) refers to stm32746g_discovery.o(i.I2Cx_ReadMultiple) for I2Cx_ReadMultiple
    stm32746g_discovery.o(i.CAMERA_IO_Read) refers to stm32746g_discovery.o(.bss) for hI2cExtHandler
    stm32746g_discovery.o(i.CAMERA_IO_Write) refers to stm32746g_discovery.o(i.I2Cx_WriteMultiple) for I2Cx_WriteMultiple
    stm32746g_discovery.o(i.CAMERA_IO_Write) refers to stm32746g_discovery.o(.bss) for hI2cExtHandler
    stm32746g_discovery.o(i.EEPROM_IO_Init) refers to stm32746g_discovery.o(i.I2Cx_Init) for I2Cx_Init
    stm32746g_discovery.o(i.EEPROM_IO_Init) refers to stm32746g_discovery.o(.bss) for hI2cExtHandler
    stm32746g_discovery.o(i.EEPROM_IO_IsDeviceReady) refers to stm32746g_discovery.o(i.I2Cx_IsDeviceReady) for I2Cx_IsDeviceReady
    stm32746g_discovery.o(i.EEPROM_IO_IsDeviceReady) refers to stm32746g_discovery.o(.bss) for hI2cExtHandler
    stm32746g_discovery.o(i.EEPROM_IO_ReadData) refers to stm32746g_discovery.o(i.I2Cx_ReadMultiple) for I2Cx_ReadMultiple
    stm32746g_discovery.o(i.EEPROM_IO_ReadData) refers to stm32746g_discovery.o(.bss) for hI2cExtHandler
    stm32746g_discovery.o(i.EEPROM_IO_WriteData) refers to stm32746g_discovery.o(i.I2Cx_WriteMultiple) for I2Cx_WriteMultiple
    stm32746g_discovery.o(i.EEPROM_IO_WriteData) refers to stm32746g_discovery.o(.bss) for hI2cExtHandler
    stm32746g_discovery.o(i.I2Cx_Error) refers to stm32f7xx_hal_i2c.o(i.HAL_I2C_DeInit) for HAL_I2C_DeInit
    stm32746g_discovery.o(i.I2Cx_Error) refers to stm32746g_discovery.o(i.I2Cx_Init) for I2Cx_Init
    stm32746g_discovery.o(i.I2Cx_Init) refers to stm32f7xx_hal_i2c.o(i.HAL_I2C_GetState) for HAL_I2C_GetState
    stm32746g_discovery.o(i.I2Cx_Init) refers to stm32746g_discovery.o(i.I2Cx_MspInit) for I2Cx_MspInit
    stm32746g_discovery.o(i.I2Cx_Init) refers to stm32f7xx_hal_i2c.o(i.HAL_I2C_Init) for HAL_I2C_Init
    stm32746g_discovery.o(i.I2Cx_Init) refers to stm32746g_discovery.o(.bss) for hI2cAudioHandler
    stm32746g_discovery.o(i.I2Cx_IsDeviceReady) refers to stm32f7xx_hal_i2c.o(i.HAL_I2C_IsDeviceReady) for HAL_I2C_IsDeviceReady
    stm32746g_discovery.o(i.I2Cx_MspInit) refers to stm32f7xx_hal_gpio.o(i.HAL_GPIO_Init) for HAL_GPIO_Init
    stm32746g_discovery.o(i.I2Cx_MspInit) refers to stm32f7xx_hal_cortex.o(i.HAL_NVIC_SetPriority) for HAL_NVIC_SetPriority
    stm32746g_discovery.o(i.I2Cx_MspInit) refers to stm32f7xx_hal_cortex.o(i.HAL_NVIC_EnableIRQ) for HAL_NVIC_EnableIRQ
    stm32746g_discovery.o(i.I2Cx_MspInit) refers to stm32746g_discovery.o(.bss) for hI2cAudioHandler
    stm32746g_discovery.o(i.I2Cx_ReadMultiple) refers to stm32f7xx_hal_i2c.o(i.HAL_I2C_Mem_Read) for HAL_I2C_Mem_Read
    stm32746g_discovery.o(i.I2Cx_ReadMultiple) refers to stm32746g_discovery.o(i.I2Cx_Error) for I2Cx_Error
    stm32746g_discovery.o(i.I2Cx_WriteMultiple) refers to stm32f7xx_hal_i2c.o(i.HAL_I2C_Mem_Write) for HAL_I2C_Mem_Write
    stm32746g_discovery.o(i.I2Cx_WriteMultiple) refers to stm32746g_discovery.o(i.I2Cx_Error) for I2Cx_Error
    stm32746g_discovery.o(i.TS_IO_Delay) refers to stm32f7xx_hal.o(i.HAL_Delay) for HAL_Delay
    stm32746g_discovery.o(i.TS_IO_Init) refers to stm32746g_discovery.o(i.I2Cx_Init) for I2Cx_Init
    stm32746g_discovery.o(i.TS_IO_Init) refers to stm32746g_discovery.o(.bss) for hI2cAudioHandler
    stm32746g_discovery.o(i.TS_IO_Read) refers to stm32746g_discovery.o(i.I2Cx_ReadMultiple) for I2Cx_ReadMultiple
    stm32746g_discovery.o(i.TS_IO_Read) refers to stm32746g_discovery.o(.bss) for hI2cAudioHandler
    stm32746g_discovery.o(i.TS_IO_Write) refers to stm32746g_discovery.o(i.I2Cx_WriteMultiple) for I2Cx_WriteMultiple
    stm32746g_discovery.o(i.TS_IO_Write) refers to stm32746g_discovery.o(.bss) for hI2cAudioHandler
    stm32746g_discovery_lcd.o(i.BSP_LCD_Clear) refers to stm32746g_discovery_lcd.o(i.BSP_LCD_GetYSize) for BSP_LCD_GetYSize
    stm32746g_discovery_lcd.o(i.BSP_LCD_Clear) refers to stm32746g_discovery_lcd.o(i.BSP_LCD_GetXSize) for BSP_LCD_GetXSize
    stm32746g_discovery_lcd.o(i.BSP_LCD_Clear) refers to stm32746g_discovery_lcd.o(i.LL_FillBuffer) for LL_FillBuffer
    stm32746g_discovery_lcd.o(i.BSP_LCD_Clear) refers to stm32746g_discovery_lcd.o(.data) for ActiveLayer
    stm32746g_discovery_lcd.o(i.BSP_LCD_Clear) refers to stm32746g_discovery_lcd.o(.bss) for hLtdcHandler
    stm32746g_discovery_lcd.o(i.BSP_LCD_ClockConfig) refers to stm32f7xx_hal_rcc_ex.o(i.HAL_RCCEx_PeriphCLKConfig) for HAL_RCCEx_PeriphCLKConfig
    stm32746g_discovery_lcd.o(i.BSP_LCD_ClockConfig) refers to stm32746g_discovery_lcd.o(.bss) for periph_clk_init_struct
    stm32746g_discovery_lcd.o(i.BSP_LCD_DeInit) refers to stm32f7xx_hal_ltdc.o(i.HAL_LTDC_DeInit) for HAL_LTDC_DeInit
    stm32746g_discovery_lcd.o(i.BSP_LCD_DeInit) refers to stm32746g_discovery_lcd.o(i.BSP_LCD_MspDeInit) for BSP_LCD_MspDeInit
    stm32746g_discovery_lcd.o(i.BSP_LCD_DeInit) refers to stm32746g_discovery_lcd.o(.bss) for hLtdcHandler
    stm32746g_discovery_lcd.o(i.BSP_LCD_DisplayOff) refers to stm32f7xx_hal_gpio.o(i.HAL_GPIO_WritePin) for HAL_GPIO_WritePin
    stm32746g_discovery_lcd.o(i.BSP_LCD_DisplayOff) refers to stm32746g_discovery_lcd.o(.bss) for hLtdcHandler
    stm32746g_discovery_lcd.o(i.BSP_LCD_DisplayOn) refers to stm32f7xx_hal_gpio.o(i.HAL_GPIO_WritePin) for HAL_GPIO_WritePin
    stm32746g_discovery_lcd.o(i.BSP_LCD_DisplayOn) refers to stm32746g_discovery_lcd.o(.bss) for hLtdcHandler
    stm32746g_discovery_lcd.o(i.BSP_LCD_DrawBitmap) refers to stm32746g_discovery_lcd.o(i.BSP_LCD_GetXSize) for BSP_LCD_GetXSize
    stm32746g_discovery_lcd.o(i.BSP_LCD_DrawBitmap) refers to stm32746g_discovery_lcd.o(i.LL_ConvertLineToARGB8888) for LL_ConvertLineToARGB8888
    stm32746g_discovery_lcd.o(i.BSP_LCD_DrawBitmap) refers to stm32746g_discovery_lcd.o(.data) for ActiveLayer
    stm32746g_discovery_lcd.o(i.BSP_LCD_DrawBitmap) refers to stm32746g_discovery_lcd.o(.bss) for hLtdcHandler
    stm32746g_discovery_lcd.o(i.BSP_LCD_DrawCircle) refers to stm32746g_discovery_lcd.o(i.BSP_LCD_DrawPixel) for BSP_LCD_DrawPixel
    stm32746g_discovery_lcd.o(i.BSP_LCD_DrawCircle) refers to stm32746g_discovery_lcd.o(.bss) for DrawProp
    stm32746g_discovery_lcd.o(i.BSP_LCD_DrawCircle) refers to stm32746g_discovery_lcd.o(.data) for ActiveLayer
    stm32746g_discovery_lcd.o(i.BSP_LCD_DrawEllipse) refers to stm32746g_discovery_lcd.o(i.BSP_LCD_DrawPixel) for BSP_LCD_DrawPixel
    stm32746g_discovery_lcd.o(i.BSP_LCD_DrawEllipse) refers to stm32746g_discovery_lcd.o(.bss) for DrawProp
    stm32746g_discovery_lcd.o(i.BSP_LCD_DrawEllipse) refers to stm32746g_discovery_lcd.o(.data) for ActiveLayer
    stm32746g_discovery_lcd.o(i.BSP_LCD_DrawLine) refers to stm32746g_discovery_lcd.o(i.BSP_LCD_DrawPixel) for BSP_LCD_DrawPixel
    stm32746g_discovery_lcd.o(i.BSP_LCD_DrawLine) refers to stm32746g_discovery_lcd.o(.bss) for DrawProp
    stm32746g_discovery_lcd.o(i.BSP_LCD_DrawLine) refers to stm32746g_discovery_lcd.o(.data) for ActiveLayer
    stm32746g_discovery_lcd.o(i.BSP_LCD_DrawPixel) refers to stm32746g_discovery_lcd.o(i.BSP_LCD_GetXSize) for BSP_LCD_GetXSize
    stm32746g_discovery_lcd.o(i.BSP_LCD_DrawPixel) refers to stm32746g_discovery_lcd.o(.data) for ActiveLayer
    stm32746g_discovery_lcd.o(i.BSP_LCD_DrawPixel) refers to stm32746g_discovery_lcd.o(.bss) for hLtdcHandler
    stm32746g_discovery_lcd.o(i.BSP_LCD_DrawPolygon) refers to stm32746g_discovery_lcd.o(i.BSP_LCD_DrawLine) for BSP_LCD_DrawLine
    stm32746g_discovery_lcd.o(i.BSP_LCD_DrawRect) refers to stm32746g_discovery_lcd.o(i.BSP_LCD_DrawVLine) for BSP_LCD_DrawVLine
    stm32746g_discovery_lcd.o(i.BSP_LCD_DrawVLine) refers to stm32746g_discovery_lcd.o(i.BSP_LCD_GetXSize) for BSP_LCD_GetXSize
    stm32746g_discovery_lcd.o(i.BSP_LCD_DrawVLine) refers to stm32746g_discovery_lcd.o(i.LL_FillBuffer) for LL_FillBuffer
    stm32746g_discovery_lcd.o(i.BSP_LCD_DrawVLine) refers to stm32746g_discovery_lcd.o(.data) for ActiveLayer
    stm32746g_discovery_lcd.o(i.BSP_LCD_DrawVLine) refers to stm32746g_discovery_lcd.o(.bss) for hLtdcHandler
    stm32746g_discovery_lcd.o(i.BSP_LCD_FillPolygon) refers to stm32746g_discovery_lcd.o(i.FillTriangle) for FillTriangle
    stm32746g_discovery_lcd.o(i.BSP_LCD_FillRect) refers to stm32746g_discovery_lcd.o(i.BSP_LCD_SetTextColor) for BSP_LCD_SetTextColor
    stm32746g_discovery_lcd.o(i.BSP_LCD_FillRect) refers to stm32746g_discovery_lcd.o(i.BSP_LCD_GetXSize) for BSP_LCD_GetXSize
    stm32746g_discovery_lcd.o(i.BSP_LCD_FillRect) refers to stm32746g_discovery_lcd.o(i.LL_FillBuffer) for LL_FillBuffer
    stm32746g_discovery_lcd.o(i.BSP_LCD_FillRect) refers to stm32746g_discovery_lcd.o(.bss) for DrawProp
    stm32746g_discovery_lcd.o(i.BSP_LCD_FillRect) refers to stm32746g_discovery_lcd.o(.data) for ActiveLayer
    stm32746g_discovery_lcd.o(i.BSP_LCD_GetBackColor) refers to stm32746g_discovery_lcd.o(.bss) for DrawProp
    stm32746g_discovery_lcd.o(i.BSP_LCD_GetBackColor) refers to stm32746g_discovery_lcd.o(.data) for ActiveLayer
    stm32746g_discovery_lcd.o(i.BSP_LCD_GetTextColor) refers to stm32746g_discovery_lcd.o(.bss) for DrawProp
    stm32746g_discovery_lcd.o(i.BSP_LCD_GetTextColor) refers to stm32746g_discovery_lcd.o(.data) for ActiveLayer
    stm32746g_discovery_lcd.o(i.BSP_LCD_GetXSize) refers to stm32746g_discovery_lcd.o(.data) for ActiveLayer
    stm32746g_discovery_lcd.o(i.BSP_LCD_GetXSize) refers to stm32746g_discovery_lcd.o(.bss) for hLtdcHandler
    stm32746g_discovery_lcd.o(i.BSP_LCD_GetYSize) refers to stm32746g_discovery_lcd.o(.data) for ActiveLayer
    stm32746g_discovery_lcd.o(i.BSP_LCD_GetYSize) refers to stm32746g_discovery_lcd.o(.bss) for hLtdcHandler
    stm32746g_discovery_lcd.o(i.BSP_LCD_Init) refers to stm32746g_discovery_lcd.o(i.BSP_LCD_ClockConfig) for BSP_LCD_ClockConfig
    stm32746g_discovery_lcd.o(i.BSP_LCD_Init) refers to stm32f7xx_hal_ltdc.o(i.HAL_LTDC_GetState) for HAL_LTDC_GetState
    stm32746g_discovery_lcd.o(i.BSP_LCD_Init) refers to stm32746g_discovery_lcd.o(i.BSP_LCD_MspInit) for BSP_LCD_MspInit
    stm32746g_discovery_lcd.o(i.BSP_LCD_Init) refers to stm32f7xx_hal_ltdc.o(i.HAL_LTDC_Init) for HAL_LTDC_Init
    stm32746g_discovery_lcd.o(i.BSP_LCD_Init) refers to stm32f7xx_hal_gpio.o(i.HAL_GPIO_WritePin) for HAL_GPIO_WritePin
    stm32746g_discovery_lcd.o(i.BSP_LCD_Init) refers to stm32746g_discovery_sdram.o(i.BSP_SDRAM_Init) for BSP_SDRAM_Init
    stm32746g_discovery_lcd.o(i.BSP_LCD_Init) refers to stm32746g_discovery_lcd.o(.bss) for hLtdcHandler
    stm32746g_discovery_lcd.o(i.BSP_LCD_LayerDefaultInit) refers to stm32746g_discovery_lcd.o(i.BSP_LCD_GetXSize) for BSP_LCD_GetXSize
    stm32746g_discovery_lcd.o(i.BSP_LCD_LayerDefaultInit) refers to stm32746g_discovery_lcd.o(i.BSP_LCD_GetYSize) for BSP_LCD_GetYSize
    stm32746g_discovery_lcd.o(i.BSP_LCD_LayerDefaultInit) refers to stm32f7xx_hal_ltdc.o(i.HAL_LTDC_ConfigLayer) for HAL_LTDC_ConfigLayer
    stm32746g_discovery_lcd.o(i.BSP_LCD_LayerDefaultInit) refers to stm32746g_discovery_lcd.o(.bss) for hLtdcHandler
    stm32746g_discovery_lcd.o(i.BSP_LCD_LayerRgb565Init) refers to stm32746g_discovery_lcd.o(i.BSP_LCD_GetXSize) for BSP_LCD_GetXSize
    stm32746g_discovery_lcd.o(i.BSP_LCD_LayerRgb565Init) refers to stm32746g_discovery_lcd.o(i.BSP_LCD_GetYSize) for BSP_LCD_GetYSize
    stm32746g_discovery_lcd.o(i.BSP_LCD_LayerRgb565Init) refers to stm32f7xx_hal_ltdc.o(i.HAL_LTDC_ConfigLayer) for HAL_LTDC_ConfigLayer
    stm32746g_discovery_lcd.o(i.BSP_LCD_LayerRgb565Init) refers to stm32746g_discovery_lcd.o(.bss) for hLtdcHandler
    stm32746g_discovery_lcd.o(i.BSP_LCD_MspDeInit) refers to stm32f7xx_hal_gpio.o(i.HAL_GPIO_DeInit) for HAL_GPIO_DeInit
    stm32746g_discovery_lcd.o(i.BSP_LCD_MspInit) refers to stm32f7xx_hal_gpio.o(i.HAL_GPIO_Init) for HAL_GPIO_Init
    stm32746g_discovery_lcd.o(i.BSP_LCD_ReadPixel) refers to stm32746g_discovery_lcd.o(i.BSP_LCD_GetXSize) for BSP_LCD_GetXSize
    stm32746g_discovery_lcd.o(i.BSP_LCD_ReadPixel) refers to stm32746g_discovery_lcd.o(.data) for ActiveLayer
    stm32746g_discovery_lcd.o(i.BSP_LCD_ReadPixel) refers to stm32746g_discovery_lcd.o(.bss) for hLtdcHandler
    stm32746g_discovery_lcd.o(i.BSP_LCD_ResetColorKeying) refers to stm32f7xx_hal_ltdc.o(i.HAL_LTDC_DisableColorKeying) for HAL_LTDC_DisableColorKeying
    stm32746g_discovery_lcd.o(i.BSP_LCD_ResetColorKeying) refers to stm32746g_discovery_lcd.o(.bss) for hLtdcHandler
    stm32746g_discovery_lcd.o(i.BSP_LCD_SelectLayer) refers to stm32746g_discovery_lcd.o(.data) for ActiveLayer
    stm32746g_discovery_lcd.o(i.BSP_LCD_SetBackColor) refers to stm32746g_discovery_lcd.o(.bss) for DrawProp
    stm32746g_discovery_lcd.o(i.BSP_LCD_SetBackColor) refers to stm32746g_discovery_lcd.o(.data) for ActiveLayer
    stm32746g_discovery_lcd.o(i.BSP_LCD_SetColorKeying) refers to stm32f7xx_hal_ltdc.o(i.HAL_LTDC_ConfigColorKeying) for HAL_LTDC_ConfigColorKeying
    stm32746g_discovery_lcd.o(i.BSP_LCD_SetColorKeying) refers to stm32f7xx_hal_ltdc.o(i.HAL_LTDC_EnableColorKeying) for HAL_LTDC_EnableColorKeying
    stm32746g_discovery_lcd.o(i.BSP_LCD_SetColorKeying) refers to stm32746g_discovery_lcd.o(.bss) for hLtdcHandler
    stm32746g_discovery_lcd.o(i.BSP_LCD_SetLayerAddress) refers to stm32f7xx_hal_ltdc.o(i.HAL_LTDC_SetAddress) for HAL_LTDC_SetAddress
    stm32746g_discovery_lcd.o(i.BSP_LCD_SetLayerAddress) refers to stm32746g_discovery_lcd.o(.bss) for hLtdcHandler
    stm32746g_discovery_lcd.o(i.BSP_LCD_SetLayerVisible) refers to stm32746g_discovery_lcd.o(.bss) for hLtdcHandler
    stm32746g_discovery_lcd.o(i.BSP_LCD_SetLayerWindow) refers to stm32f7xx_hal_ltdc.o(i.HAL_LTDC_SetWindowSize) for HAL_LTDC_SetWindowSize
    stm32746g_discovery_lcd.o(i.BSP_LCD_SetLayerWindow) refers to stm32f7xx_hal_ltdc.o(i.HAL_LTDC_SetWindowPosition) for HAL_LTDC_SetWindowPosition
    stm32746g_discovery_lcd.o(i.BSP_LCD_SetLayerWindow) refers to stm32746g_discovery_lcd.o(.bss) for hLtdcHandler
    stm32746g_discovery_lcd.o(i.BSP_LCD_SetTextColor) refers to stm32746g_discovery_lcd.o(.bss) for DrawProp
    stm32746g_discovery_lcd.o(i.BSP_LCD_SetTextColor) refers to stm32746g_discovery_lcd.o(.data) for ActiveLayer
    stm32746g_discovery_lcd.o(i.BSP_LCD_SetTransparency) refers to stm32f7xx_hal_ltdc.o(i.HAL_LTDC_SetAlpha) for HAL_LTDC_SetAlpha
    stm32746g_discovery_lcd.o(i.BSP_LCD_SetTransparency) refers to stm32746g_discovery_lcd.o(.bss) for hLtdcHandler
    stm32746g_discovery_lcd.o(i.BSP_LCD_SetXSize) refers to stm32746g_discovery_lcd.o(.data) for ActiveLayer
    stm32746g_discovery_lcd.o(i.BSP_LCD_SetXSize) refers to stm32746g_discovery_lcd.o(.bss) for hLtdcHandler
    stm32746g_discovery_lcd.o(i.BSP_LCD_SetYSize) refers to stm32746g_discovery_lcd.o(.data) for ActiveLayer
    stm32746g_discovery_lcd.o(i.BSP_LCD_SetYSize) refers to stm32746g_discovery_lcd.o(.bss) for hLtdcHandler
    stm32746g_discovery_lcd.o(i.FillTriangle) refers to stm32746g_discovery_lcd.o(i.BSP_LCD_DrawLine) for BSP_LCD_DrawLine
    stm32746g_discovery_lcd.o(i.LL_ConvertLineToARGB8888) refers to stm32f7xx_hal_dma2d.o(i.HAL_DMA2D_Init) for HAL_DMA2D_Init
    stm32746g_discovery_lcd.o(i.LL_ConvertLineToARGB8888) refers to stm32f7xx_hal_dma2d.o(i.HAL_DMA2D_ConfigLayer) for HAL_DMA2D_ConfigLayer
    stm32746g_discovery_lcd.o(i.LL_ConvertLineToARGB8888) refers to stm32f7xx_hal_dma2d.o(i.HAL_DMA2D_Start) for HAL_DMA2D_Start
    stm32746g_discovery_lcd.o(i.LL_ConvertLineToARGB8888) refers to stm32f7xx_hal_dma2d.o(i.HAL_DMA2D_PollForTransfer) for HAL_DMA2D_PollForTransfer
    stm32746g_discovery_lcd.o(i.LL_ConvertLineToARGB8888) refers to stm32746g_discovery_lcd.o(.bss) for hDma2dHandler
    stm32746g_discovery_lcd.o(i.LL_FillBuffer) refers to stm32f7xx_hal_dma2d.o(i.HAL_DMA2D_Init) for HAL_DMA2D_Init
    stm32746g_discovery_lcd.o(i.LL_FillBuffer) refers to stm32f7xx_hal_dma2d.o(i.HAL_DMA2D_ConfigLayer) for HAL_DMA2D_ConfigLayer
    stm32746g_discovery_lcd.o(i.LL_FillBuffer) refers to stm32f7xx_hal_dma2d.o(i.HAL_DMA2D_Start) for HAL_DMA2D_Start
    stm32746g_discovery_lcd.o(i.LL_FillBuffer) refers to stm32f7xx_hal_dma2d.o(i.HAL_DMA2D_PollForTransfer) for HAL_DMA2D_PollForTransfer
    stm32746g_discovery_lcd.o(i.LL_FillBuffer) refers to stm32746g_discovery_lcd.o(.bss) for hDma2dHandler
    stm32746g_discovery_lcd.o(i.LL_FillBuffer) refers to stm32746g_discovery_lcd.o(.data) for ActiveLayer
    stm32746g_discovery_sd.o(i.BSP_SD_DeInit) refers to stm32f7xx_hal_sd.o(i.HAL_SD_DeInit) for HAL_SD_DeInit
    stm32746g_discovery_sd.o(i.BSP_SD_DeInit) refers to stm32746g_discovery_sd.o(i.BSP_SD_MspDeInit) for BSP_SD_MspDeInit
    stm32746g_discovery_sd.o(i.BSP_SD_DeInit) refers to stm32746g_discovery_sd.o(.bss) for uSdHandle
    stm32746g_discovery_sd.o(i.BSP_SD_Detect_MspInit) refers to stm32f7xx_hal_gpio.o(i.HAL_GPIO_Init) for HAL_GPIO_Init
    stm32746g_discovery_sd.o(i.BSP_SD_Erase) refers to stm32f7xx_hal_sd.o(i.HAL_SD_Erase) for HAL_SD_Erase
    stm32746g_discovery_sd.o(i.BSP_SD_Erase) refers to stm32746g_discovery_sd.o(.bss) for uSdHandle
    stm32746g_discovery_sd.o(i.BSP_SD_GetCardInfo) refers to stm32f7xx_hal_sd.o(i.HAL_SD_Get_CardInfo) for HAL_SD_Get_CardInfo
    stm32746g_discovery_sd.o(i.BSP_SD_GetCardInfo) refers to stm32746g_discovery_sd.o(.bss) for uSdHandle
    stm32746g_discovery_sd.o(i.BSP_SD_GetStatus) refers to stm32f7xx_hal_sd.o(i.HAL_SD_GetStatus) for HAL_SD_GetStatus
    stm32746g_discovery_sd.o(i.BSP_SD_GetStatus) refers to stm32746g_discovery_sd.o(.bss) for uSdHandle
    stm32746g_discovery_sd.o(i.BSP_SD_ITConfig) refers to stm32f7xx_hal_gpio.o(i.HAL_GPIO_Init) for HAL_GPIO_Init
    stm32746g_discovery_sd.o(i.BSP_SD_ITConfig) refers to stm32f7xx_hal_cortex.o(i.HAL_NVIC_SetPriority) for HAL_NVIC_SetPriority
    stm32746g_discovery_sd.o(i.BSP_SD_ITConfig) refers to stm32f7xx_hal_cortex.o(i.HAL_NVIC_EnableIRQ) for HAL_NVIC_EnableIRQ
    stm32746g_discovery_sd.o(i.BSP_SD_Init) refers to stm32746g_discovery_sd.o(i.BSP_SD_Detect_MspInit) for BSP_SD_Detect_MspInit
    stm32746g_discovery_sd.o(i.BSP_SD_Init) refers to stm32746g_discovery_sd.o(i.BSP_SD_IsDetected) for BSP_SD_IsDetected
    stm32746g_discovery_sd.o(i.BSP_SD_Init) refers to stm32746g_discovery_sd.o(i.BSP_SD_MspInit) for BSP_SD_MspInit
    stm32746g_discovery_sd.o(i.BSP_SD_Init) refers to stm32f7xx_hal_sd.o(i.HAL_SD_Init) for HAL_SD_Init
    stm32746g_discovery_sd.o(i.BSP_SD_Init) refers to stm32f7xx_hal_sd.o(i.HAL_SD_WideBusOperation_Config) for HAL_SD_WideBusOperation_Config
    stm32746g_discovery_sd.o(i.BSP_SD_Init) refers to stm32746g_discovery_sd.o(.bss) for uSdHandle
    stm32746g_discovery_sd.o(i.BSP_SD_IsDetected) refers to stm32f7xx_hal_gpio.o(i.HAL_GPIO_ReadPin) for HAL_GPIO_ReadPin
    stm32746g_discovery_sd.o(i.BSP_SD_MspDeInit) refers to stm32f7xx_hal_cortex.o(i.HAL_NVIC_DisableIRQ) for HAL_NVIC_DisableIRQ
    stm32746g_discovery_sd.o(i.BSP_SD_MspDeInit) refers to stm32f7xx_hal_dma.o(i.HAL_DMA_DeInit) for HAL_DMA_DeInit
    stm32746g_discovery_sd.o(i.BSP_SD_MspDeInit) refers to stm32746g_discovery_sd.o(.bss) for dma_rx_handle
    stm32746g_discovery_sd.o(i.BSP_SD_MspInit) refers to stm32f7xx_hal_gpio.o(i.HAL_GPIO_Init) for HAL_GPIO_Init
    stm32746g_discovery_sd.o(i.BSP_SD_MspInit) refers to stm32f7xx_hal_cortex.o(i.HAL_NVIC_SetPriority) for HAL_NVIC_SetPriority
    stm32746g_discovery_sd.o(i.BSP_SD_MspInit) refers to stm32f7xx_hal_cortex.o(i.HAL_NVIC_EnableIRQ) for HAL_NVIC_EnableIRQ
    stm32746g_discovery_sd.o(i.BSP_SD_MspInit) refers to stm32f7xx_hal_dma.o(i.HAL_DMA_DeInit) for HAL_DMA_DeInit
    stm32746g_discovery_sd.o(i.BSP_SD_MspInit) refers to stm32f7xx_hal_dma.o(i.HAL_DMA_Init) for HAL_DMA_Init
    stm32746g_discovery_sd.o(i.BSP_SD_MspInit) refers to stm32746g_discovery_sd.o(.bss) for dma_rx_handle
    stm32746g_discovery_sd.o(i.BSP_SD_ReadBlocks) refers to stm32f7xx_hal_sd.o(i.HAL_SD_ReadBlocks) for HAL_SD_ReadBlocks
    stm32746g_discovery_sd.o(i.BSP_SD_ReadBlocks) refers to stm32746g_discovery_sd.o(.bss) for uSdHandle
    stm32746g_discovery_sd.o(i.BSP_SD_ReadBlocks_DMA) refers to stm32f7xx_hal_sd.o(i.HAL_SD_ReadBlocks_DMA) for HAL_SD_ReadBlocks_DMA
    stm32746g_discovery_sd.o(i.BSP_SD_ReadBlocks_DMA) refers to stm32f7xx_hal_sd.o(i.HAL_SD_CheckReadOperation) for HAL_SD_CheckReadOperation
    stm32746g_discovery_sd.o(i.BSP_SD_ReadBlocks_DMA) refers to stm32746g_discovery_sd.o(.bss) for uSdHandle
    stm32746g_discovery_sd.o(i.BSP_SD_WriteBlocks) refers to stm32f7xx_hal_sd.o(i.HAL_SD_WriteBlocks) for HAL_SD_WriteBlocks
    stm32746g_discovery_sd.o(i.BSP_SD_WriteBlocks) refers to stm32746g_discovery_sd.o(.bss) for uSdHandle
    stm32746g_discovery_sd.o(i.BSP_SD_WriteBlocks_DMA) refers to stm32f7xx_hal_sd.o(i.HAL_SD_WriteBlocks_DMA) for HAL_SD_WriteBlocks_DMA
    stm32746g_discovery_sd.o(i.BSP_SD_WriteBlocks_DMA) refers to stm32f7xx_hal_sd.o(i.HAL_SD_CheckWriteOperation) for HAL_SD_CheckWriteOperation
    stm32746g_discovery_sd.o(i.BSP_SD_WriteBlocks_DMA) refers to stm32746g_discovery_sd.o(.bss) for uSdHandle
    stm32746g_discovery_sdram.o(i.BSP_SDRAM_DeInit) refers to stm32f7xx_hal_sdram.o(i.HAL_SDRAM_DeInit) for HAL_SDRAM_DeInit
    stm32746g_discovery_sdram.o(i.BSP_SDRAM_DeInit) refers to stm32746g_discovery_sdram.o(i.BSP_SDRAM_MspDeInit) for BSP_SDRAM_MspDeInit
    stm32746g_discovery_sdram.o(i.BSP_SDRAM_DeInit) refers to stm32746g_discovery_sdram.o(.bss) for sdramHandle
    stm32746g_discovery_sdram.o(i.BSP_SDRAM_DeInit) refers to stm32746g_discovery_sdram.o(.data) for sdramstatus
    stm32746g_discovery_sdram.o(i.BSP_SDRAM_Init) refers to stm32746g_discovery_sdram.o(i.BSP_SDRAM_MspInit) for BSP_SDRAM_MspInit
    stm32746g_discovery_sdram.o(i.BSP_SDRAM_Init) refers to stm32f7xx_hal_sdram.o(i.HAL_SDRAM_Init) for HAL_SDRAM_Init
    stm32746g_discovery_sdram.o(i.BSP_SDRAM_Init) refers to stm32746g_discovery_sdram.o(i.BSP_SDRAM_Initialization_sequence) for BSP_SDRAM_Initialization_sequence
    stm32746g_discovery_sdram.o(i.BSP_SDRAM_Init) refers to stm32746g_discovery_sdram.o(.bss) for sdramHandle
    stm32746g_discovery_sdram.o(i.BSP_SDRAM_Init) refers to stm32746g_discovery_sdram.o(.data) for sdramstatus
    stm32746g_discovery_sdram.o(i.BSP_SDRAM_Initialization_sequence) refers to stm32f7xx_hal_sdram.o(i.HAL_SDRAM_SendCommand) for HAL_SDRAM_SendCommand
    stm32746g_discovery_sdram.o(i.BSP_SDRAM_Initialization_sequence) refers to stm32f7xx_hal.o(i.HAL_Delay) for HAL_Delay
    stm32746g_discovery_sdram.o(i.BSP_SDRAM_Initialization_sequence) refers to stm32f7xx_hal_sdram.o(i.HAL_SDRAM_ProgramRefreshRate) for HAL_SDRAM_ProgramRefreshRate
    stm32746g_discovery_sdram.o(i.BSP_SDRAM_Initialization_sequence) refers to stm32746g_discovery_sdram.o(.bss) for Command
    stm32746g_discovery_sdram.o(i.BSP_SDRAM_MspDeInit) refers to stm32f7xx_hal_cortex.o(i.HAL_NVIC_DisableIRQ) for HAL_NVIC_DisableIRQ
    stm32746g_discovery_sdram.o(i.BSP_SDRAM_MspDeInit) refers to stm32f7xx_hal_dma.o(i.HAL_DMA_DeInit) for HAL_DMA_DeInit
    stm32746g_discovery_sdram.o(i.BSP_SDRAM_MspDeInit) refers to stm32746g_discovery_sdram.o(.bss) for dma_handle
    stm32746g_discovery_sdram.o(i.BSP_SDRAM_MspInit) refers to stm32f7xx_hal_gpio.o(i.HAL_GPIO_Init) for HAL_GPIO_Init
    stm32746g_discovery_sdram.o(i.BSP_SDRAM_MspInit) refers to stm32f7xx_hal_dma.o(i.HAL_DMA_DeInit) for HAL_DMA_DeInit
    stm32746g_discovery_sdram.o(i.BSP_SDRAM_MspInit) refers to stm32f7xx_hal_dma.o(i.HAL_DMA_Init) for HAL_DMA_Init
    stm32746g_discovery_sdram.o(i.BSP_SDRAM_MspInit) refers to stm32f7xx_hal_cortex.o(i.HAL_NVIC_SetPriority) for HAL_NVIC_SetPriority
    stm32746g_discovery_sdram.o(i.BSP_SDRAM_MspInit) refers to stm32f7xx_hal_cortex.o(i.HAL_NVIC_EnableIRQ) for HAL_NVIC_EnableIRQ
    stm32746g_discovery_sdram.o(i.BSP_SDRAM_MspInit) refers to stm32746g_discovery_sdram.o(.bss) for dma_handle
    stm32746g_discovery_sdram.o(i.BSP_SDRAM_ReadData) refers to stm32f7xx_hal_sdram.o(i.HAL_SDRAM_Read_32b) for HAL_SDRAM_Read_32b
    stm32746g_discovery_sdram.o(i.BSP_SDRAM_ReadData) refers to stm32746g_discovery_sdram.o(.bss) for sdramHandle
    stm32746g_discovery_sdram.o(i.BSP_SDRAM_ReadData_DMA) refers to stm32f7xx_hal_sdram.o(i.HAL_SDRAM_Read_DMA) for HAL_SDRAM_Read_DMA
    stm32746g_discovery_sdram.o(i.BSP_SDRAM_ReadData_DMA) refers to stm32746g_discovery_sdram.o(.bss) for sdramHandle
    stm32746g_discovery_sdram.o(i.BSP_SDRAM_Sendcmd) refers to stm32f7xx_hal_sdram.o(i.HAL_SDRAM_SendCommand) for HAL_SDRAM_SendCommand
    stm32746g_discovery_sdram.o(i.BSP_SDRAM_Sendcmd) refers to stm32746g_discovery_sdram.o(.bss) for sdramHandle
    stm32746g_discovery_sdram.o(i.BSP_SDRAM_WriteData) refers to stm32f7xx_hal_sdram.o(i.HAL_SDRAM_Write_32b) for HAL_SDRAM_Write_32b
    stm32746g_discovery_sdram.o(i.BSP_SDRAM_WriteData) refers to stm32746g_discovery_sdram.o(.bss) for sdramHandle
    stm32746g_discovery_sdram.o(i.BSP_SDRAM_WriteData_DMA) refers to stm32f7xx_hal_sdram.o(i.HAL_SDRAM_Write_DMA) for HAL_SDRAM_Write_DMA
    stm32746g_discovery_sdram.o(i.BSP_SDRAM_WriteData_DMA) refers to stm32746g_discovery_sdram.o(.bss) for sdramHandle
    stm32746g_discovery_ts.o(i.BSP_TS_GetState) refers to ft5336.o(i.ft5336_TS_GetTouchInfo) for ft5336_TS_GetTouchInfo
    stm32746g_discovery_ts.o(i.BSP_TS_GetState) refers to stm32746g_discovery_ts.o(i.BSP_TS_Get_GestureId) for BSP_TS_Get_GestureId
    stm32746g_discovery_ts.o(i.BSP_TS_GetState) refers to stm32746g_discovery_ts.o(.data) for tsDriver
    stm32746g_discovery_ts.o(i.BSP_TS_GetState) refers to stm32746g_discovery_ts.o(.bss) for _x
    stm32746g_discovery_ts.o(i.BSP_TS_Get_GestureId) refers to ft5336.o(i.ft5336_TS_GetGestureID) for ft5336_TS_GetGestureID
    stm32746g_discovery_ts.o(i.BSP_TS_Get_GestureId) refers to stm32746g_discovery_ts.o(.data) for I2cAddress
    stm32746g_discovery_ts.o(i.BSP_TS_ITClear) refers to stm32746g_discovery_ts.o(.data) for tsDriver
    stm32746g_discovery_ts.o(i.BSP_TS_ITConfig) refers to stm32f7xx_hal_gpio.o(i.HAL_GPIO_Init) for HAL_GPIO_Init
    stm32746g_discovery_ts.o(i.BSP_TS_ITConfig) refers to stm32f7xx_hal_cortex.o(i.HAL_NVIC_SetPriority) for HAL_NVIC_SetPriority
    stm32746g_discovery_ts.o(i.BSP_TS_ITConfig) refers to stm32f7xx_hal_cortex.o(i.HAL_NVIC_EnableIRQ) for HAL_NVIC_EnableIRQ
    stm32746g_discovery_ts.o(i.BSP_TS_ITConfig) refers to stm32746g_discovery_ts.o(.data) for tsDriver
    stm32746g_discovery_ts.o(i.BSP_TS_ITGetStatus) refers to stm32746g_discovery_ts.o(.data) for tsDriver
    stm32746g_discovery_ts.o(i.BSP_TS_Init) refers to stm32746g_discovery_ts.o(.data) for tsXBoundary
    stm32746g_discovery_ts.o(i.BSP_TS_Init) refers to ft5336.o(.data) for ft5336_ts_drv
    stm32f746gtouchcontroller.o(i._ZN8touchgfx25STM32F746GTouchController11sampleTouchERiS1_) refers to stm32746g_discovery_ts.o(i.BSP_TS_GetState) for BSP_TS_GetState
    stm32f746gtouchcontroller.o(i._ZN8touchgfx25STM32F746GTouchController4initEv) refers to stm32746g_discovery_lcd.o(i.BSP_LCD_GetYSize) for BSP_LCD_GetYSize
    stm32f746gtouchcontroller.o(i._ZN8touchgfx25STM32F746GTouchController4initEv) refers to stm32746g_discovery_lcd.o(i.BSP_LCD_GetXSize) for BSP_LCD_GetXSize
    stm32f746gtouchcontroller.o(i._ZN8touchgfx25STM32F746GTouchController4initEv) refers to stm32746g_discovery_ts.o(i.BSP_TS_Init) for BSP_TS_Init
    stm32f746gtouchcontroller.o(.ARM.exidx) refers to stm32f746gtouchcontroller.o(i._ZN8touchgfx25STM32F746GTouchController4initEv) for i._ZN8touchgfx25STM32F746GTouchController4initEv
    stm32f746gtouchcontroller.o(.ARM.exidx) refers to stm32f746gtouchcontroller.o(i._ZN8touchgfx25STM32F746GTouchController11sampleTouchERiS1_) for i._ZN8touchgfx25STM32F746GTouchController11sampleTouchERiS1_
    stm32746g_discovery_qspi.o(i.BSP_QSPI_DeInit) refers to stm32f7xx_hal_qspi.o(i.HAL_QSPI_DeInit) for HAL_QSPI_DeInit
    stm32746g_discovery_qspi.o(i.BSP_QSPI_DeInit) refers to stm32746g_discovery_qspi.o(i.BSP_QSPI_MspDeInit) for BSP_QSPI_MspDeInit
    stm32746g_discovery_qspi.o(i.BSP_QSPI_DeInit) refers to stm32746g_discovery_qspi.o(.bss) for QSPIHandle
    stm32746g_discovery_qspi.o(i.BSP_QSPI_EnableMemoryMappedMode) refers to stm32f7xx_hal_qspi.o(i.HAL_QSPI_MemoryMapped) for HAL_QSPI_MemoryMapped
    stm32746g_discovery_qspi.o(i.BSP_QSPI_EnableMemoryMappedMode) refers to stm32746g_discovery_qspi.o(.bss) for QSPIHandle
    stm32746g_discovery_qspi.o(i.BSP_QSPI_Erase_Block) refers to stm32746g_discovery_qspi.o(i.QSPI_WriteEnable) for QSPI_WriteEnable
    stm32746g_discovery_qspi.o(i.BSP_QSPI_Erase_Block) refers to stm32f7xx_hal_qspi.o(i.HAL_QSPI_Command) for HAL_QSPI_Command
    stm32746g_discovery_qspi.o(i.BSP_QSPI_Erase_Block) refers to stm32746g_discovery_qspi.o(i.QSPI_AutoPollingMemReady) for QSPI_AutoPollingMemReady
    stm32746g_discovery_qspi.o(i.BSP_QSPI_Erase_Block) refers to stm32746g_discovery_qspi.o(.bss) for QSPIHandle
    stm32746g_discovery_qspi.o(i.BSP_QSPI_Erase_Chip) refers to stm32746g_discovery_qspi.o(i.QSPI_WriteEnable) for QSPI_WriteEnable
    stm32746g_discovery_qspi.o(i.BSP_QSPI_Erase_Chip) refers to stm32f7xx_hal_qspi.o(i.HAL_QSPI_Command) for HAL_QSPI_Command
    stm32746g_discovery_qspi.o(i.BSP_QSPI_Erase_Chip) refers to stm32746g_discovery_qspi.o(i.QSPI_AutoPollingMemReady) for QSPI_AutoPollingMemReady
    stm32746g_discovery_qspi.o(i.BSP_QSPI_Erase_Chip) refers to stm32746g_discovery_qspi.o(.bss) for QSPIHandle
    stm32746g_discovery_qspi.o(i.BSP_QSPI_GetStatus) refers to stm32f7xx_hal_qspi.o(i.HAL_QSPI_Command) for HAL_QSPI_Command
    stm32746g_discovery_qspi.o(i.BSP_QSPI_GetStatus) refers to stm32f7xx_hal_qspi.o(i.HAL_QSPI_Receive) for HAL_QSPI_Receive
    stm32746g_discovery_qspi.o(i.BSP_QSPI_GetStatus) refers to stm32746g_discovery_qspi.o(.bss) for QSPIHandle
    stm32746g_discovery_qspi.o(i.BSP_QSPI_Init) refers to stm32f7xx_hal_qspi.o(i.HAL_QSPI_DeInit) for HAL_QSPI_DeInit
    stm32746g_discovery_qspi.o(i.BSP_QSPI_Init) refers to stm32746g_discovery_qspi.o(i.BSP_QSPI_MspInit) for BSP_QSPI_MspInit
    stm32746g_discovery_qspi.o(i.BSP_QSPI_Init) refers to stm32f7xx_hal_qspi.o(i.HAL_QSPI_Init) for HAL_QSPI_Init
    stm32746g_discovery_qspi.o(i.BSP_QSPI_Init) refers to stm32746g_discovery_qspi.o(i.QSPI_ResetMemory) for QSPI_ResetMemory
    stm32746g_discovery_qspi.o(i.BSP_QSPI_Init) refers to stm32746g_discovery_qspi.o(i.QSPI_DummyCyclesCfg) for QSPI_DummyCyclesCfg
    stm32746g_discovery_qspi.o(i.BSP_QSPI_Init) refers to stm32746g_discovery_qspi.o(.bss) for QSPIHandle
    stm32746g_discovery_qspi.o(i.BSP_QSPI_MspDeInit) refers to stm32f7xx_hal_cortex.o(i.HAL_NVIC_DisableIRQ) for HAL_NVIC_DisableIRQ
    stm32746g_discovery_qspi.o(i.BSP_QSPI_MspDeInit) refers to stm32f7xx_hal_gpio.o(i.HAL_GPIO_DeInit) for HAL_GPIO_DeInit
    stm32746g_discovery_qspi.o(i.BSP_QSPI_MspInit) refers to stm32f7xx_hal_gpio.o(i.HAL_GPIO_Init) for HAL_GPIO_Init
    stm32746g_discovery_qspi.o(i.BSP_QSPI_MspInit) refers to stm32f7xx_hal_cortex.o(i.HAL_NVIC_SetPriority) for HAL_NVIC_SetPriority
    stm32746g_discovery_qspi.o(i.BSP_QSPI_MspInit) refers to stm32f7xx_hal_cortex.o(i.HAL_NVIC_EnableIRQ) for HAL_NVIC_EnableIRQ
    stm32746g_discovery_qspi.o(i.BSP_QSPI_Read) refers to stm32f7xx_hal_qspi.o(i.HAL_QSPI_Command) for HAL_QSPI_Command
    stm32746g_discovery_qspi.o(i.BSP_QSPI_Read) refers to stm32f7xx_hal_qspi.o(i.HAL_QSPI_Receive) for HAL_QSPI_Receive
    stm32746g_discovery_qspi.o(i.BSP_QSPI_Read) refers to stm32746g_discovery_qspi.o(.bss) for QSPIHandle
    stm32746g_discovery_qspi.o(i.BSP_QSPI_Write) refers to stm32746g_discovery_qspi.o(i.QSPI_WriteEnable) for QSPI_WriteEnable
    stm32746g_discovery_qspi.o(i.BSP_QSPI_Write) refers to stm32f7xx_hal_qspi.o(i.HAL_QSPI_Command) for HAL_QSPI_Command
    stm32746g_discovery_qspi.o(i.BSP_QSPI_Write) refers to stm32f7xx_hal_qspi.o(i.HAL_QSPI_Transmit) for HAL_QSPI_Transmit
    stm32746g_discovery_qspi.o(i.BSP_QSPI_Write) refers to stm32746g_discovery_qspi.o(i.QSPI_AutoPollingMemReady) for QSPI_AutoPollingMemReady
    stm32746g_discovery_qspi.o(i.BSP_QSPI_Write) refers to stm32746g_discovery_qspi.o(.bss) for QSPIHandle
    stm32746g_discovery_qspi.o(i.QSPI_AutoPollingMemReady) refers to stm32f7xx_hal_qspi.o(i.HAL_QSPI_AutoPolling) for HAL_QSPI_AutoPolling
    stm32746g_discovery_qspi.o(i.QSPI_DummyCyclesCfg) refers to stm32f7xx_hal_qspi.o(i.HAL_QSPI_Command) for HAL_QSPI_Command
    stm32746g_discovery_qspi.o(i.QSPI_DummyCyclesCfg) refers to stm32f7xx_hal_qspi.o(i.HAL_QSPI_Receive) for HAL_QSPI_Receive
    stm32746g_discovery_qspi.o(i.QSPI_DummyCyclesCfg) refers to stm32746g_discovery_qspi.o(i.QSPI_WriteEnable) for QSPI_WriteEnable
    stm32746g_discovery_qspi.o(i.QSPI_DummyCyclesCfg) refers to stm32f7xx_hal_qspi.o(i.HAL_QSPI_Transmit) for HAL_QSPI_Transmit
    stm32746g_discovery_qspi.o(i.QSPI_ResetMemory) refers to stm32f7xx_hal_qspi.o(i.HAL_QSPI_Command) for HAL_QSPI_Command
    stm32746g_discovery_qspi.o(i.QSPI_ResetMemory) refers to stm32746g_discovery_qspi.o(i.QSPI_AutoPollingMemReady) for QSPI_AutoPollingMemReady
    stm32746g_discovery_qspi.o(i.QSPI_WriteEnable) refers to stm32f7xx_hal_qspi.o(i.HAL_QSPI_Command) for HAL_QSPI_Command
    stm32746g_discovery_qspi.o(i.QSPI_WriteEnable) refers to stm32f7xx_hal_qspi.o(i.HAL_QSPI_AutoPolling) for HAL_QSPI_AutoPolling
    croutine.o(i.prvCheckDelayedList) refers to tasks.o(i.xTaskGetTickCount) for xTaskGetTickCount
    croutine.o(i.prvCheckDelayedList) refers to list.o(i.uxListRemove) for uxListRemove
    croutine.o(i.prvCheckDelayedList) refers to list.o(i.vListInsertEnd) for vListInsertEnd
    croutine.o(i.prvCheckDelayedList) refers to croutine.o(.data) for xLastTickCount
    croutine.o(i.prvCheckDelayedList) refers to croutine.o(.bss) for pxReadyCoRoutineLists
    croutine.o(i.prvCheckPendingReadyList) refers to list.o(i.uxListRemove) for uxListRemove
    croutine.o(i.prvCheckPendingReadyList) refers to list.o(i.vListInsertEnd) for vListInsertEnd
    croutine.o(i.prvCheckPendingReadyList) refers to croutine.o(.bss) for xPendingReadyCoRoutineList
    croutine.o(i.prvCheckPendingReadyList) refers to croutine.o(.data) for uxTopCoRoutineReadyPriority
    croutine.o(i.prvInitialiseCoRoutineLists) refers to list.o(i.vListInitialise) for vListInitialise
    croutine.o(i.prvInitialiseCoRoutineLists) refers to croutine.o(.bss) for pxReadyCoRoutineLists
    croutine.o(i.prvInitialiseCoRoutineLists) refers to croutine.o(.data) for pxDelayedCoRoutineList
    croutine.o(i.vCoRoutineAddToDelayedList) refers to list.o(i.uxListRemove) for uxListRemove
    croutine.o(i.vCoRoutineAddToDelayedList) refers to list.o(i.vListInsert) for vListInsert
    croutine.o(i.vCoRoutineAddToDelayedList) refers to croutine.o(.data) for xCoRoutineTickCount
    croutine.o(i.vCoRoutineSchedule) refers to croutine.o(i.prvCheckPendingReadyList) for prvCheckPendingReadyList
    croutine.o(i.vCoRoutineSchedule) refers to croutine.o(i.prvCheckDelayedList) for prvCheckDelayedList
    croutine.o(i.vCoRoutineSchedule) refers to croutine.o(.data) for uxTopCoRoutineReadyPriority
    croutine.o(i.vCoRoutineSchedule) refers to croutine.o(.bss) for pxReadyCoRoutineLists
    croutine.o(i.xCoRoutineCreate) refers to heap_2.o(i.pvPortMalloc) for pvPortMalloc
    croutine.o(i.xCoRoutineCreate) refers to croutine.o(i.prvInitialiseCoRoutineLists) for prvInitialiseCoRoutineLists
    croutine.o(i.xCoRoutineCreate) refers to list.o(i.vListInitialiseItem) for vListInitialiseItem
    croutine.o(i.xCoRoutineCreate) refers to list.o(i.vListInsertEnd) for vListInsertEnd
    croutine.o(i.xCoRoutineCreate) refers to croutine.o(.data) for pxCurrentCoRoutine
    croutine.o(i.xCoRoutineCreate) refers to croutine.o(.bss) for pxReadyCoRoutineLists
    croutine.o(i.xCoRoutineRemoveFromEventList) refers to list.o(i.uxListRemove) for uxListRemove
    croutine.o(i.xCoRoutineRemoveFromEventList) refers to list.o(i.vListInsertEnd) for vListInsertEnd
    croutine.o(i.xCoRoutineRemoveFromEventList) refers to croutine.o(.bss) for xPendingReadyCoRoutineList
    croutine.o(i.xCoRoutineRemoveFromEventList) refers to croutine.o(.data) for pxCurrentCoRoutine
    event_groups.o(i.vEventGroupClearBitsCallback) refers to event_groups.o(i.xEventGroupClearBits) for xEventGroupClearBits
    event_groups.o(i.vEventGroupDelete) refers to tasks.o(i.vTaskSuspendAll) for vTaskSuspendAll
    event_groups.o(i.vEventGroupDelete) refers to tasks.o(i.xTaskRemoveFromUnorderedEventList) for xTaskRemoveFromUnorderedEventList
    event_groups.o(i.vEventGroupDelete) refers to heap_2.o(i.vPortFree) for vPortFree
    event_groups.o(i.vEventGroupDelete) refers to tasks.o(i.xTaskResumeAll) for xTaskResumeAll
    event_groups.o(i.vEventGroupSetBitsCallback) refers to event_groups.o(i.xEventGroupSetBits) for xEventGroupSetBits
    event_groups.o(i.xEventGroupClearBits) refers to port.o(i.vPortEnterCritical) for vPortEnterCritical
    event_groups.o(i.xEventGroupClearBits) refers to port.o(i.vPortExitCritical) for vPortExitCritical
    event_groups.o(i.xEventGroupCreate) refers to heap_2.o(i.pvPortMalloc) for pvPortMalloc
    event_groups.o(i.xEventGroupCreate) refers to list.o(i.vListInitialise) for vListInitialise
    event_groups.o(i.xEventGroupSetBits) refers to tasks.o(i.vTaskSuspendAll) for vTaskSuspendAll
    event_groups.o(i.xEventGroupSetBits) refers to tasks.o(i.xTaskRemoveFromUnorderedEventList) for xTaskRemoveFromUnorderedEventList
    event_groups.o(i.xEventGroupSetBits) refers to tasks.o(i.xTaskResumeAll) for xTaskResumeAll
    event_groups.o(i.xEventGroupSync) refers to tasks.o(i.vTaskSuspendAll) for vTaskSuspendAll
    event_groups.o(i.xEventGroupSync) refers to event_groups.o(i.xEventGroupSetBits) for xEventGroupSetBits
    event_groups.o(i.xEventGroupSync) refers to tasks.o(i.vTaskPlaceOnUnorderedEventList) for vTaskPlaceOnUnorderedEventList
    event_groups.o(i.xEventGroupSync) refers to tasks.o(i.xTaskResumeAll) for xTaskResumeAll
    event_groups.o(i.xEventGroupSync) refers to tasks.o(i.uxTaskResetEventItemValue) for uxTaskResetEventItemValue
    event_groups.o(i.xEventGroupSync) refers to port.o(i.vPortEnterCritical) for vPortEnterCritical
    event_groups.o(i.xEventGroupSync) refers to port.o(i.vPortExitCritical) for vPortExitCritical
    event_groups.o(i.xEventGroupWaitBits) refers to tasks.o(i.vTaskSuspendAll) for vTaskSuspendAll
    event_groups.o(i.xEventGroupWaitBits) refers to event_groups.o(i.prvTestWaitCondition) for prvTestWaitCondition
    event_groups.o(i.xEventGroupWaitBits) refers to tasks.o(i.vTaskPlaceOnUnorderedEventList) for vTaskPlaceOnUnorderedEventList
    event_groups.o(i.xEventGroupWaitBits) refers to tasks.o(i.xTaskResumeAll) for xTaskResumeAll
    event_groups.o(i.xEventGroupWaitBits) refers to tasks.o(i.uxTaskResetEventItemValue) for uxTaskResetEventItemValue
    event_groups.o(i.xEventGroupWaitBits) refers to port.o(i.vPortEnterCritical) for vPortEnterCritical
    event_groups.o(i.xEventGroupWaitBits) refers to port.o(i.vPortExitCritical) for vPortExitCritical
    queue.o(i.prvCopyDataFromQueue) refers to rt_memcpy_v6.o(.text) for __aeabi_memcpy
    queue.o(i.prvCopyDataToQueue) refers to tasks.o(i.xTaskPriorityDisinherit) for xTaskPriorityDisinherit
    queue.o(i.prvCopyDataToQueue) refers to rt_memcpy_v6.o(.text) for __aeabi_memcpy
    queue.o(i.prvIsQueueEmpty) refers to port.o(i.vPortEnterCritical) for vPortEnterCritical
    queue.o(i.prvIsQueueEmpty) refers to port.o(i.vPortExitCritical) for vPortExitCritical
    queue.o(i.prvIsQueueFull) refers to port.o(i.vPortEnterCritical) for vPortEnterCritical
    queue.o(i.prvIsQueueFull) refers to port.o(i.vPortExitCritical) for vPortExitCritical
    queue.o(i.prvUnlockQueue) refers to port.o(i.vPortEnterCritical) for vPortEnterCritical
    queue.o(i.prvUnlockQueue) refers to tasks.o(i.xTaskRemoveFromEventList) for xTaskRemoveFromEventList
    queue.o(i.prvUnlockQueue) refers to tasks.o(i.vTaskMissedYield) for vTaskMissedYield
    queue.o(i.prvUnlockQueue) refers to port.o(i.vPortExitCritical) for vPortExitCritical
    queue.o(i.uxQueueMessagesWaiting) refers to port.o(i.vPortEnterCritical) for vPortEnterCritical
    queue.o(i.uxQueueMessagesWaiting) refers to port.o(i.vPortExitCritical) for vPortExitCritical
    queue.o(i.uxQueueSpacesAvailable) refers to port.o(i.vPortEnterCritical) for vPortEnterCritical
    queue.o(i.uxQueueSpacesAvailable) refers to port.o(i.vPortExitCritical) for vPortExitCritical
    queue.o(i.vQueueAddToRegistry) refers to queue.o(.bss) for xQueueRegistry
    queue.o(i.vQueueDelete) refers to queue.o(i.vQueueUnregisterQueue) for vQueueUnregisterQueue
    queue.o(i.vQueueDelete) refers to heap_2.o(i.vPortFree) for vPortFree
    queue.o(i.vQueueUnregisterQueue) refers to queue.o(.bss) for xQueueRegistry
    queue.o(i.xQueueCreateCountingSemaphore) refers to queue.o(i.xQueueGenericCreate) for xQueueGenericCreate
    queue.o(i.xQueueCreateMutex) refers to heap_2.o(i.pvPortMalloc) for pvPortMalloc
    queue.o(i.xQueueCreateMutex) refers to list.o(i.vListInitialise) for vListInitialise
    queue.o(i.xQueueCreateMutex) refers to queue.o(i.xQueueGenericSend) for xQueueGenericSend
    queue.o(i.xQueueGenericCreate) refers to heap_2.o(i.pvPortMalloc) for pvPortMalloc
    queue.o(i.xQueueGenericCreate) refers to queue.o(i.xQueueGenericReset) for xQueueGenericReset
    queue.o(i.xQueueGenericReceive) refers to port.o(i.vPortEnterCritical) for vPortEnterCritical
    queue.o(i.xQueueGenericReceive) refers to queue.o(i.prvCopyDataFromQueue) for prvCopyDataFromQueue
    queue.o(i.xQueueGenericReceive) refers to tasks.o(i.pvTaskIncrementMutexHeldCount) for pvTaskIncrementMutexHeldCount
    queue.o(i.xQueueGenericReceive) refers to tasks.o(i.xTaskRemoveFromEventList) for xTaskRemoveFromEventList
    queue.o(i.xQueueGenericReceive) refers to port.o(i.vPortExitCritical) for vPortExitCritical
    queue.o(i.xQueueGenericReceive) refers to tasks.o(i.vTaskSetTimeOutState) for vTaskSetTimeOutState
    queue.o(i.xQueueGenericReceive) refers to tasks.o(i.vTaskSuspendAll) for vTaskSuspendAll
    queue.o(i.xQueueGenericReceive) refers to tasks.o(i.xTaskCheckForTimeOut) for xTaskCheckForTimeOut
    queue.o(i.xQueueGenericReceive) refers to queue.o(i.prvIsQueueEmpty) for prvIsQueueEmpty
    queue.o(i.xQueueGenericReceive) refers to tasks.o(i.vTaskPriorityInherit) for vTaskPriorityInherit
    queue.o(i.xQueueGenericReceive) refers to tasks.o(i.vTaskPlaceOnEventList) for vTaskPlaceOnEventList
    queue.o(i.xQueueGenericReceive) refers to queue.o(i.prvUnlockQueue) for prvUnlockQueue
    queue.o(i.xQueueGenericReceive) refers to tasks.o(i.xTaskResumeAll) for xTaskResumeAll
    queue.o(i.xQueueGenericReset) refers to port.o(i.vPortEnterCritical) for vPortEnterCritical
    queue.o(i.xQueueGenericReset) refers to tasks.o(i.xTaskRemoveFromEventList) for xTaskRemoveFromEventList
    queue.o(i.xQueueGenericReset) refers to list.o(i.vListInitialise) for vListInitialise
    queue.o(i.xQueueGenericReset) refers to port.o(i.vPortExitCritical) for vPortExitCritical
    queue.o(i.xQueueGenericSend) refers to port.o(i.vPortEnterCritical) for vPortEnterCritical
    queue.o(i.xQueueGenericSend) refers to queue.o(i.prvCopyDataToQueue) for prvCopyDataToQueue
    queue.o(i.xQueueGenericSend) refers to tasks.o(i.xTaskRemoveFromEventList) for xTaskRemoveFromEventList
    queue.o(i.xQueueGenericSend) refers to port.o(i.vPortExitCritical) for vPortExitCritical
    queue.o(i.xQueueGenericSend) refers to tasks.o(i.vTaskSetTimeOutState) for vTaskSetTimeOutState
    queue.o(i.xQueueGenericSend) refers to tasks.o(i.vTaskSuspendAll) for vTaskSuspendAll
    queue.o(i.xQueueGenericSend) refers to tasks.o(i.xTaskCheckForTimeOut) for xTaskCheckForTimeOut
    queue.o(i.xQueueGenericSend) refers to queue.o(i.prvIsQueueFull) for prvIsQueueFull
    queue.o(i.xQueueGenericSend) refers to tasks.o(i.vTaskPlaceOnEventList) for vTaskPlaceOnEventList
    queue.o(i.xQueueGenericSend) refers to queue.o(i.prvUnlockQueue) for prvUnlockQueue
    queue.o(i.xQueueGenericSend) refers to tasks.o(i.xTaskResumeAll) for xTaskResumeAll
    queue.o(i.xQueueGenericSendFromISR) refers to port.o(i.vPortValidateInterruptPriority) for vPortValidateInterruptPriority
    queue.o(i.xQueueGenericSendFromISR) refers to queue.o(i.prvCopyDataToQueue) for prvCopyDataToQueue
    queue.o(i.xQueueGenericSendFromISR) refers to tasks.o(i.xTaskRemoveFromEventList) for xTaskRemoveFromEventList
    queue.o(i.xQueueGiveFromISR) refers to port.o(i.vPortValidateInterruptPriority) for vPortValidateInterruptPriority
    queue.o(i.xQueueGiveFromISR) refers to tasks.o(i.xTaskRemoveFromEventList) for xTaskRemoveFromEventList
    queue.o(i.xQueueGiveMutexRecursive) refers to tasks.o(i.xTaskGetCurrentTaskHandle) for xTaskGetCurrentTaskHandle
    queue.o(i.xQueueGiveMutexRecursive) refers to queue.o(i.xQueueGenericSend) for xQueueGenericSend
    queue.o(i.xQueuePeekFromISR) refers to port.o(i.vPortValidateInterruptPriority) for vPortValidateInterruptPriority
    queue.o(i.xQueuePeekFromISR) refers to queue.o(i.prvCopyDataFromQueue) for prvCopyDataFromQueue
    queue.o(i.xQueueReceiveFromISR) refers to port.o(i.vPortValidateInterruptPriority) for vPortValidateInterruptPriority
    queue.o(i.xQueueReceiveFromISR) refers to queue.o(i.prvCopyDataFromQueue) for prvCopyDataFromQueue
    queue.o(i.xQueueReceiveFromISR) refers to tasks.o(i.xTaskRemoveFromEventList) for xTaskRemoveFromEventList
    queue.o(i.xQueueTakeMutexRecursive) refers to tasks.o(i.xTaskGetCurrentTaskHandle) for xTaskGetCurrentTaskHandle
    queue.o(i.xQueueTakeMutexRecursive) refers to queue.o(i.xQueueGenericReceive) for xQueueGenericReceive
    tasks.o(i.prvAddCurrentTaskToDelayedList) refers to list.o(i.vListInsert) for vListInsert
    tasks.o(i.prvAddCurrentTaskToDelayedList) refers to tasks.o(.data) for pxCurrentTCB
    tasks.o(i.prvAllocateTCBAndStack) refers to heap_2.o(i.pvPortMalloc) for pvPortMalloc
    tasks.o(i.prvAllocateTCBAndStack) refers to heap_2.o(i.vPortFree) for vPortFree
    tasks.o(i.prvAllocateTCBAndStack) refers to aeabi_memset.o(.text) for __aeabi_memset
    tasks.o(i.prvCheckTasksWaitingTermination) refers to tasks.o(i.vTaskSuspendAll) for vTaskSuspendAll
    tasks.o(i.prvCheckTasksWaitingTermination) refers to tasks.o(i.xTaskResumeAll) for xTaskResumeAll
    tasks.o(i.prvCheckTasksWaitingTermination) refers to port.o(i.vPortEnterCritical) for vPortEnterCritical
    tasks.o(i.prvCheckTasksWaitingTermination) refers to list.o(i.uxListRemove) for uxListRemove
    tasks.o(i.prvCheckTasksWaitingTermination) refers to port.o(i.vPortExitCritical) for vPortExitCritical
    tasks.o(i.prvCheckTasksWaitingTermination) refers to tasks.o(i.prvDeleteTCB) for prvDeleteTCB
    tasks.o(i.prvCheckTasksWaitingTermination) refers to tasks.o(.bss) for xTasksWaitingTermination
    tasks.o(i.prvCheckTasksWaitingTermination) refers to tasks.o(.data) for uxCurrentNumberOfTasks
    tasks.o(i.prvDeleteTCB) refers to heap_2.o(i.vPortFree) for vPortFree
    tasks.o(i.prvIdleTask) refers to tasks.o(i.prvCheckTasksWaitingTermination) for prvCheckTasksWaitingTermination
    tasks.o(i.prvIdleTask) refers to oswrappers.o(i.vApplicationIdleHook) for vApplicationIdleHook
    tasks.o(i.prvIdleTask) refers to tasks.o(.bss) for pxReadyTasksLists
    tasks.o(i.prvInitialiseTCBVariables) refers to list.o(i.vListInitialiseItem) for vListInitialiseItem
    tasks.o(i.prvInitialiseTaskLists) refers to list.o(i.vListInitialise) for vListInitialise
    tasks.o(i.prvInitialiseTaskLists) refers to tasks.o(.bss) for pxReadyTasksLists
    tasks.o(i.prvInitialiseTaskLists) refers to tasks.o(.data) for pxDelayedTaskList
    tasks.o(i.prvListTaskWithinSingleList) refers to tasks.o(i.prvTaskCheckFreeStackSpace) for prvTaskCheckFreeStackSpace
    tasks.o(i.prvResetNextTaskUnblockTime) refers to tasks.o(.data) for pxDelayedTaskList
    tasks.o(i.prvTaskIsTaskSuspended) refers to tasks.o(.bss) for xSuspendedTaskList
    tasks.o(i.pvTaskIncrementMutexHeldCount) refers to tasks.o(.data) for pxCurrentTCB
    tasks.o(i.ulTaskNotifyTake) refers to port.o(i.vPortEnterCritical) for vPortEnterCritical
    tasks.o(i.ulTaskNotifyTake) refers to list.o(i.uxListRemove) for uxListRemove
    tasks.o(i.ulTaskNotifyTake) refers to list.o(i.vListInsertEnd) for vListInsertEnd
    tasks.o(i.ulTaskNotifyTake) refers to tasks.o(i.prvAddCurrentTaskToDelayedList) for prvAddCurrentTaskToDelayedList
    tasks.o(i.ulTaskNotifyTake) refers to port.o(i.vPortExitCritical) for vPortExitCritical
    tasks.o(i.ulTaskNotifyTake) refers to tasks.o(.data) for pxCurrentTCB
    tasks.o(i.ulTaskNotifyTake) refers to tasks.o(.bss) for xSuspendedTaskList
    tasks.o(i.uxTaskGetNumberOfTasks) refers to tasks.o(.data) for uxCurrentNumberOfTasks
    tasks.o(i.uxTaskGetSystemState) refers to tasks.o(i.vTaskSuspendAll) for vTaskSuspendAll
    tasks.o(i.uxTaskGetSystemState) refers to tasks.o(i.prvListTaskWithinSingleList) for prvListTaskWithinSingleList
    tasks.o(i.uxTaskGetSystemState) refers to tasks.o(i.xTaskResumeAll) for xTaskResumeAll
    tasks.o(i.uxTaskGetSystemState) refers to tasks.o(.data) for uxCurrentNumberOfTasks
    tasks.o(i.uxTaskGetSystemState) refers to tasks.o(.bss) for pxReadyTasksLists
    tasks.o(i.uxTaskPriorityGet) refers to port.o(i.vPortEnterCritical) for vPortEnterCritical
    tasks.o(i.uxTaskPriorityGet) refers to port.o(i.vPortExitCritical) for vPortExitCritical
    tasks.o(i.uxTaskPriorityGet) refers to tasks.o(.data) for pxCurrentTCB
    tasks.o(i.uxTaskPriorityGetFromISR) refers to port.o(i.vPortValidateInterruptPriority) for vPortValidateInterruptPriority
    tasks.o(i.uxTaskPriorityGetFromISR) refers to tasks.o(.data) for pxCurrentTCB
    tasks.o(i.uxTaskResetEventItemValue) refers to tasks.o(.data) for pxCurrentTCB
    tasks.o(i.vTaskDelay) refers to tasks.o(i.vTaskSuspendAll) for vTaskSuspendAll
    tasks.o(i.vTaskDelay) refers to list.o(i.uxListRemove) for uxListRemove
    tasks.o(i.vTaskDelay) refers to tasks.o(i.prvAddCurrentTaskToDelayedList) for prvAddCurrentTaskToDelayedList
    tasks.o(i.vTaskDelay) refers to tasks.o(i.xTaskResumeAll) for xTaskResumeAll
    tasks.o(i.vTaskDelay) refers to tasks.o(.data) for uxSchedulerSuspended
    tasks.o(i.vTaskDelayUntil) refers to tasks.o(i.vTaskSuspendAll) for vTaskSuspendAll
    tasks.o(i.vTaskDelayUntil) refers to list.o(i.uxListRemove) for uxListRemove
    tasks.o(i.vTaskDelayUntil) refers to tasks.o(i.prvAddCurrentTaskToDelayedList) for prvAddCurrentTaskToDelayedList
    tasks.o(i.vTaskDelayUntil) refers to tasks.o(i.xTaskResumeAll) for xTaskResumeAll
    tasks.o(i.vTaskDelayUntil) refers to tasks.o(.data) for uxSchedulerSuspended
    tasks.o(i.vTaskDelete) refers to port.o(i.vPortEnterCritical) for vPortEnterCritical
    tasks.o(i.vTaskDelete) refers to list.o(i.uxListRemove) for uxListRemove
    tasks.o(i.vTaskDelete) refers to list.o(i.vListInsertEnd) for vListInsertEnd
    tasks.o(i.vTaskDelete) refers to port.o(i.vPortExitCritical) for vPortExitCritical
    tasks.o(i.vTaskDelete) refers to tasks.o(i.prvResetNextTaskUnblockTime) for prvResetNextTaskUnblockTime
    tasks.o(i.vTaskDelete) refers to tasks.o(.data) for pxCurrentTCB
    tasks.o(i.vTaskDelete) refers to tasks.o(.bss) for pxReadyTasksLists
    tasks.o(i.vTaskEndScheduler) refers to port.o(i.vPortEndScheduler) for vPortEndScheduler
    tasks.o(i.vTaskEndScheduler) refers to tasks.o(.data) for xSchedulerRunning
    tasks.o(i.vTaskMissedYield) refers to tasks.o(.data) for xYieldPending
    tasks.o(i.vTaskNotifyGiveFromISR) refers to port.o(i.vPortValidateInterruptPriority) for vPortValidateInterruptPriority
    tasks.o(i.vTaskNotifyGiveFromISR) refers to list.o(i.uxListRemove) for uxListRemove
    tasks.o(i.vTaskNotifyGiveFromISR) refers to list.o(i.vListInsertEnd) for vListInsertEnd
    tasks.o(i.vTaskNotifyGiveFromISR) refers to tasks.o(.data) for uxSchedulerSuspended
    tasks.o(i.vTaskNotifyGiveFromISR) refers to tasks.o(.bss) for pxReadyTasksLists
    tasks.o(i.vTaskPlaceOnEventList) refers to list.o(i.vListInsert) for vListInsert
    tasks.o(i.vTaskPlaceOnEventList) refers to list.o(i.uxListRemove) for uxListRemove
    tasks.o(i.vTaskPlaceOnEventList) refers to list.o(i.vListInsertEnd) for vListInsertEnd
    tasks.o(i.vTaskPlaceOnEventList) refers to tasks.o(i.prvAddCurrentTaskToDelayedList) for prvAddCurrentTaskToDelayedList
    tasks.o(i.vTaskPlaceOnEventList) refers to tasks.o(.data) for pxCurrentTCB
    tasks.o(i.vTaskPlaceOnEventList) refers to tasks.o(.bss) for xSuspendedTaskList
    tasks.o(i.vTaskPlaceOnUnorderedEventList) refers to list.o(i.vListInsertEnd) for vListInsertEnd
    tasks.o(i.vTaskPlaceOnUnorderedEventList) refers to list.o(i.uxListRemove) for uxListRemove
    tasks.o(i.vTaskPlaceOnUnorderedEventList) refers to tasks.o(i.prvAddCurrentTaskToDelayedList) for prvAddCurrentTaskToDelayedList
    tasks.o(i.vTaskPlaceOnUnorderedEventList) refers to tasks.o(.data) for uxSchedulerSuspended
    tasks.o(i.vTaskPlaceOnUnorderedEventList) refers to tasks.o(.bss) for xSuspendedTaskList
    tasks.o(i.vTaskPriorityInherit) refers to list.o(i.uxListRemove) for uxListRemove
    tasks.o(i.vTaskPriorityInherit) refers to list.o(i.vListInsertEnd) for vListInsertEnd
    tasks.o(i.vTaskPriorityInherit) refers to tasks.o(.data) for pxCurrentTCB
    tasks.o(i.vTaskPriorityInherit) refers to tasks.o(.bss) for pxReadyTasksLists
    tasks.o(i.vTaskPrioritySet) refers to port.o(i.vPortEnterCritical) for vPortEnterCritical
    tasks.o(i.vTaskPrioritySet) refers to list.o(i.uxListRemove) for uxListRemove
    tasks.o(i.vTaskPrioritySet) refers to list.o(i.vListInsertEnd) for vListInsertEnd
    tasks.o(i.vTaskPrioritySet) refers to port.o(i.vPortExitCritical) for vPortExitCritical
    tasks.o(i.vTaskPrioritySet) refers to tasks.o(.data) for pxCurrentTCB
    tasks.o(i.vTaskPrioritySet) refers to tasks.o(.bss) for pxReadyTasksLists
    tasks.o(i.vTaskResume) refers to port.o(i.vPortEnterCritical) for vPortEnterCritical
    tasks.o(i.vTaskResume) refers to tasks.o(i.prvTaskIsTaskSuspended) for prvTaskIsTaskSuspended
    tasks.o(i.vTaskResume) refers to list.o(i.uxListRemove) for uxListRemove
    tasks.o(i.vTaskResume) refers to list.o(i.vListInsertEnd) for vListInsertEnd
    tasks.o(i.vTaskResume) refers to port.o(i.vPortExitCritical) for vPortExitCritical
    tasks.o(i.vTaskResume) refers to tasks.o(.data) for pxCurrentTCB
    tasks.o(i.vTaskResume) refers to tasks.o(.bss) for pxReadyTasksLists
    tasks.o(i.vTaskSetApplicationTaskTag) refers to port.o(i.vPortEnterCritical) for vPortEnterCritical
    tasks.o(i.vTaskSetApplicationTaskTag) refers to port.o(i.vPortExitCritical) for vPortExitCritical
    tasks.o(i.vTaskSetApplicationTaskTag) refers to tasks.o(.data) for pxCurrentTCB
    tasks.o(i.vTaskSetTimeOutState) refers to tasks.o(.data) for xNumOfOverflows
    tasks.o(i.vTaskStartScheduler) refers to tasks.o(i.xTaskGenericCreate) for xTaskGenericCreate
    tasks.o(i.vTaskStartScheduler) refers to port.o(i.xPortStartScheduler) for xPortStartScheduler
    tasks.o(i.vTaskStartScheduler) refers to tasks.o(i.prvIdleTask) for prvIdleTask
    tasks.o(i.vTaskStartScheduler) refers to tasks.o(.data) for xSchedulerRunning
    tasks.o(i.vTaskSuspend) refers to port.o(i.vPortEnterCritical) for vPortEnterCritical
    tasks.o(i.vTaskSuspend) refers to list.o(i.uxListRemove) for uxListRemove
    tasks.o(i.vTaskSuspend) refers to list.o(i.vListInsertEnd) for vListInsertEnd
    tasks.o(i.vTaskSuspend) refers to port.o(i.vPortExitCritical) for vPortExitCritical
    tasks.o(i.vTaskSuspend) refers to tasks.o(i.vTaskSwitchContext) for vTaskSwitchContext
    tasks.o(i.vTaskSuspend) refers to tasks.o(i.prvResetNextTaskUnblockTime) for prvResetNextTaskUnblockTime
    tasks.o(i.vTaskSuspend) refers to tasks.o(.data) for pxCurrentTCB
    tasks.o(i.vTaskSuspend) refers to tasks.o(.bss) for pxReadyTasksLists
    tasks.o(i.vTaskSuspendAll) refers to tasks.o(.data) for uxSchedulerSuspended
    tasks.o(i.vTaskSwitchContext) refers to tasks.o(i.xTaskCallApplicationTaskHook) for xTaskCallApplicationTaskHook
    tasks.o(i.vTaskSwitchContext) refers to oswrappers.o(i.vApplicationStackOverflowHook) for vApplicationStackOverflowHook
    tasks.o(i.vTaskSwitchContext) refers to memcmp.o(.text) for memcmp
    tasks.o(i.vTaskSwitchContext) refers to tasks.o(.data) for uxSchedulerSuspended
    tasks.o(i.vTaskSwitchContext) refers to tasks.o(.constdata) for ucExpectedStackBytes
    tasks.o(i.vTaskSwitchContext) refers to tasks.o(.bss) for pxReadyTasksLists
    tasks.o(i.xTaskCallApplicationTaskHook) refers to tasks.o(.data) for pxCurrentTCB
    tasks.o(i.xTaskCheckForTimeOut) refers to port.o(i.vPortEnterCritical) for vPortEnterCritical
    tasks.o(i.xTaskCheckForTimeOut) refers to tasks.o(i.vTaskSetTimeOutState) for vTaskSetTimeOutState
    tasks.o(i.xTaskCheckForTimeOut) refers to port.o(i.vPortExitCritical) for vPortExitCritical
    tasks.o(i.xTaskCheckForTimeOut) refers to tasks.o(.data) for xTickCount
    tasks.o(i.xTaskGenericCreate) refers to tasks.o(i.prvAllocateTCBAndStack) for prvAllocateTCBAndStack
    tasks.o(i.xTaskGenericCreate) refers to tasks.o(i.prvInitialiseTCBVariables) for prvInitialiseTCBVariables
    tasks.o(i.xTaskGenericCreate) refers to port.o(i.pxPortInitialiseStack) for pxPortInitialiseStack
    tasks.o(i.xTaskGenericCreate) refers to port.o(i.vPortEnterCritical) for vPortEnterCritical
    tasks.o(i.xTaskGenericCreate) refers to tasks.o(i.prvInitialiseTaskLists) for prvInitialiseTaskLists
    tasks.o(i.xTaskGenericCreate) refers to list.o(i.vListInsertEnd) for vListInsertEnd
    tasks.o(i.xTaskGenericCreate) refers to port.o(i.vPortExitCritical) for vPortExitCritical
    tasks.o(i.xTaskGenericCreate) refers to tasks.o(.data) for uxCurrentNumberOfTasks
    tasks.o(i.xTaskGenericCreate) refers to tasks.o(.bss) for pxReadyTasksLists
    tasks.o(i.xTaskGetApplicationTaskTag) refers to port.o(i.vPortEnterCritical) for vPortEnterCritical
    tasks.o(i.xTaskGetApplicationTaskTag) refers to port.o(i.vPortExitCritical) for vPortExitCritical
    tasks.o(i.xTaskGetApplicationTaskTag) refers to tasks.o(.data) for pxCurrentTCB
    tasks.o(i.xTaskGetCurrentTaskHandle) refers to tasks.o(.data) for pxCurrentTCB
    tasks.o(i.xTaskGetTickCount) refers to tasks.o(.data) for xTickCount
    tasks.o(i.xTaskGetTickCountFromISR) refers to port.o(i.vPortValidateInterruptPriority) for vPortValidateInterruptPriority
    tasks.o(i.xTaskGetTickCountFromISR) refers to tasks.o(.data) for xTickCount
    tasks.o(i.xTaskIncrementTick) refers to tasks.o(i.prvResetNextTaskUnblockTime) for prvResetNextTaskUnblockTime
    tasks.o(i.xTaskIncrementTick) refers to list.o(i.uxListRemove) for uxListRemove
    tasks.o(i.xTaskIncrementTick) refers to list.o(i.vListInsertEnd) for vListInsertEnd
    tasks.o(i.xTaskIncrementTick) refers to tasks.o(.data) for uxSchedulerSuspended
    tasks.o(i.xTaskIncrementTick) refers to tasks.o(.bss) for pxReadyTasksLists
    tasks.o(i.xTaskNotify) refers to port.o(i.vPortEnterCritical) for vPortEnterCritical
    tasks.o(i.xTaskNotify) refers to list.o(i.uxListRemove) for uxListRemove
    tasks.o(i.xTaskNotify) refers to list.o(i.vListInsertEnd) for vListInsertEnd
    tasks.o(i.xTaskNotify) refers to port.o(i.vPortExitCritical) for vPortExitCritical
    tasks.o(i.xTaskNotify) refers to tasks.o(.data) for uxTopReadyPriority
    tasks.o(i.xTaskNotify) refers to tasks.o(.bss) for pxReadyTasksLists
    tasks.o(i.xTaskNotifyFromISR) refers to port.o(i.vPortValidateInterruptPriority) for vPortValidateInterruptPriority
    tasks.o(i.xTaskNotifyFromISR) refers to list.o(i.uxListRemove) for uxListRemove
    tasks.o(i.xTaskNotifyFromISR) refers to list.o(i.vListInsertEnd) for vListInsertEnd
    tasks.o(i.xTaskNotifyFromISR) refers to tasks.o(.data) for uxSchedulerSuspended
    tasks.o(i.xTaskNotifyFromISR) refers to tasks.o(.bss) for pxReadyTasksLists
    tasks.o(i.xTaskNotifyWait) refers to port.o(i.vPortEnterCritical) for vPortEnterCritical
    tasks.o(i.xTaskNotifyWait) refers to list.o(i.uxListRemove) for uxListRemove
    tasks.o(i.xTaskNotifyWait) refers to list.o(i.vListInsertEnd) for vListInsertEnd
    tasks.o(i.xTaskNotifyWait) refers to tasks.o(i.prvAddCurrentTaskToDelayedList) for prvAddCurrentTaskToDelayedList
    tasks.o(i.xTaskNotifyWait) refers to port.o(i.vPortExitCritical) for vPortExitCritical
    tasks.o(i.xTaskNotifyWait) refers to tasks.o(.data) for pxCurrentTCB
    tasks.o(i.xTaskNotifyWait) refers to tasks.o(.bss) for xSuspendedTaskList
    tasks.o(i.xTaskPriorityDisinherit) refers to list.o(i.uxListRemove) for uxListRemove
    tasks.o(i.xTaskPriorityDisinherit) refers to list.o(i.vListInsertEnd) for vListInsertEnd
    tasks.o(i.xTaskPriorityDisinherit) refers to tasks.o(.bss) for pxReadyTasksLists
    tasks.o(i.xTaskPriorityDisinherit) refers to tasks.o(.data) for uxTopReadyPriority
    tasks.o(i.xTaskRemoveFromEventList) refers to list.o(i.uxListRemove) for uxListRemove
    tasks.o(i.xTaskRemoveFromEventList) refers to list.o(i.vListInsertEnd) for vListInsertEnd
    tasks.o(i.xTaskRemoveFromEventList) refers to tasks.o(.data) for uxSchedulerSuspended
    tasks.o(i.xTaskRemoveFromEventList) refers to tasks.o(.bss) for pxReadyTasksLists
    tasks.o(i.xTaskRemoveFromUnorderedEventList) refers to list.o(i.uxListRemove) for uxListRemove
    tasks.o(i.xTaskRemoveFromUnorderedEventList) refers to list.o(i.vListInsertEnd) for vListInsertEnd
    tasks.o(i.xTaskRemoveFromUnorderedEventList) refers to tasks.o(.data) for uxSchedulerSuspended
    tasks.o(i.xTaskRemoveFromUnorderedEventList) refers to tasks.o(.bss) for pxReadyTasksLists
    tasks.o(i.xTaskResumeAll) refers to port.o(i.vPortEnterCritical) for vPortEnterCritical
    tasks.o(i.xTaskResumeAll) refers to list.o(i.uxListRemove) for uxListRemove
    tasks.o(i.xTaskResumeAll) refers to list.o(i.vListInsertEnd) for vListInsertEnd
    tasks.o(i.xTaskResumeAll) refers to tasks.o(i.xTaskIncrementTick) for xTaskIncrementTick
    tasks.o(i.xTaskResumeAll) refers to port.o(i.vPortExitCritical) for vPortExitCritical
    tasks.o(i.xTaskResumeAll) refers to tasks.o(.data) for uxSchedulerSuspended
    tasks.o(i.xTaskResumeAll) refers to tasks.o(.bss) for xPendingReadyList
    tasks.o(i.xTaskResumeFromISR) refers to port.o(i.vPortValidateInterruptPriority) for vPortValidateInterruptPriority
    tasks.o(i.xTaskResumeFromISR) refers to tasks.o(i.prvTaskIsTaskSuspended) for prvTaskIsTaskSuspended
    tasks.o(i.xTaskResumeFromISR) refers to list.o(i.uxListRemove) for uxListRemove
    tasks.o(i.xTaskResumeFromISR) refers to list.o(i.vListInsertEnd) for vListInsertEnd
    tasks.o(i.xTaskResumeFromISR) refers to tasks.o(.data) for uxSchedulerSuspended
    tasks.o(i.xTaskResumeFromISR) refers to tasks.o(.bss) for pxReadyTasksLists
    oswrappers.o(i._Z12IdleTaskHookPv) refers to hal.o(i._ZN8touchgfx3HAL12setMCUActiveEb) for touchgfx::HAL::setMCUActive(bool)
    oswrappers.o(i._Z12IdleTaskHookPv) refers to hal.o(.data) for touchgfx::HAL::instance
    oswrappers.o(i._ZN8touchgfx10OSWrappers10initializeEv) refers to queue.o(i.xQueueGenericCreate) for xQueueGenericCreate
    oswrappers.o(i._ZN8touchgfx10OSWrappers10initializeEv) refers to queue.o(i.xQueueGenericSend) for xQueueGenericSend
    oswrappers.o(i._ZN8touchgfx10OSWrappers10initializeEv) refers to oswrappers.o(.data) for frame_buffer_sem
    oswrappers.o(i._ZN8touchgfx10OSWrappers11signalVSyncEv) refers to queue.o(i.xQueueGenericSendFromISR) for xQueueGenericSendFromISR
    oswrappers.o(i._ZN8touchgfx10OSWrappers11signalVSyncEv) refers to oswrappers.o(.data) for vsync_q
    oswrappers.o(i._ZN8touchgfx10OSWrappers12waitForVSyncEv) refers to queue.o(i.xQueueGenericReceive) for xQueueGenericReceive
    oswrappers.o(i._ZN8touchgfx10OSWrappers12waitForVSyncEv) refers to oswrappers.o(.data) for dummy
    oswrappers.o(i._ZN8touchgfx10OSWrappers24giveFrameBufferSemaphoreEv) refers to queue.o(i.xQueueGenericSend) for xQueueGenericSend
    oswrappers.o(i._ZN8touchgfx10OSWrappers24giveFrameBufferSemaphoreEv) refers to oswrappers.o(.data) for frame_buffer_sem
    oswrappers.o(i._ZN8touchgfx10OSWrappers24takeFrameBufferSemaphoreEv) refers to queue.o(i.xQueueGenericReceive) for xQueueGenericReceive
    oswrappers.o(i._ZN8touchgfx10OSWrappers24takeFrameBufferSemaphoreEv) refers to oswrappers.o(.data) for frame_buffer_sem
    oswrappers.o(i._ZN8touchgfx10OSWrappers27tryTakeFrameBufferSemaphoreEv) refers to queue.o(i.xQueueGenericReceive) for xQueueGenericReceive
    oswrappers.o(i._ZN8touchgfx10OSWrappers27tryTakeFrameBufferSemaphoreEv) refers to oswrappers.o(.data) for frame_buffer_sem
    oswrappers.o(i._ZN8touchgfx10OSWrappers31giveFrameBufferSemaphoreFromISREv) refers to queue.o(i.xQueueGiveFromISR) for xQueueGiveFromISR
    oswrappers.o(i._ZN8touchgfx10OSWrappers31giveFrameBufferSemaphoreFromISREv) refers to oswrappers.o(.data) for frame_buffer_sem
    oswrappers.o(i._ZN8touchgfx10OSWrappers9taskDelayEt) refers to tasks.o(i.vTaskDelay) for vTaskDelay
    oswrappers.o(i.vApplicationIdleHook) refers to tasks.o(i.vTaskSetApplicationTaskTag) for vTaskSetApplicationTaskTag
    oswrappers.o(i.vApplicationIdleHook) refers to oswrappers.o(i._Z12IdleTaskHookPv) for IdleTaskHook(void*)
    oswrappers.o(.ARM.exidx) refers to oswrappers.o(i._Z12IdleTaskHookPv) for i._Z12IdleTaskHookPv
    oswrappers.o(.ARM.exidx) refers to oswrappers.o(i.vApplicationStackOverflowHook) for i.vApplicationStackOverflowHook
    oswrappers.o(.ARM.exidx) refers to oswrappers.o(i.vApplicationMallocFailedHook) for i.vApplicationMallocFailedHook
    oswrappers.o(.ARM.exidx) refers to oswrappers.o(i.vApplicationIdleHook) for i.vApplicationIdleHook
    oswrappers.o(.ARM.exidx) refers to oswrappers.o(i._ZN8touchgfx10OSWrappers10initializeEv) for i._ZN8touchgfx10OSWrappers10initializeEv
    oswrappers.o(.ARM.exidx) refers to oswrappers.o(i._ZN8touchgfx10OSWrappers11signalVSyncEv) for i._ZN8touchgfx10OSWrappers11signalVSyncEv
    oswrappers.o(.ARM.exidx) refers to oswrappers.o(i._ZN8touchgfx10OSWrappers12waitForVSyncEv) for i._ZN8touchgfx10OSWrappers12waitForVSyncEv
    oswrappers.o(.ARM.exidx) refers to oswrappers.o(i._ZN8touchgfx10OSWrappers24takeFrameBufferSemaphoreEv) for i._ZN8touchgfx10OSWrappers24takeFrameBufferSemaphoreEv
    oswrappers.o(.ARM.exidx) refers to oswrappers.o(i._ZN8touchgfx10OSWrappers27tryTakeFrameBufferSemaphoreEv) for i._ZN8touchgfx10OSWrappers27tryTakeFrameBufferSemaphoreEv
    oswrappers.o(.ARM.exidx) refers to oswrappers.o(i._ZN8touchgfx10OSWrappers24giveFrameBufferSemaphoreEv) for i._ZN8touchgfx10OSWrappers24giveFrameBufferSemaphoreEv
    oswrappers.o(.ARM.exidx) refers to oswrappers.o(i._ZN8touchgfx10OSWrappers31giveFrameBufferSemaphoreFromISREv) for i._ZN8touchgfx10OSWrappers31giveFrameBufferSemaphoreFromISREv
    oswrappers.o(.ARM.exidx) refers to oswrappers.o(i._ZN8touchgfx10OSWrappers9taskDelayEt) for i._ZN8touchgfx10OSWrappers9taskDelayEt
    port.o(.emb_text) refers to tasks.o(i.vTaskSwitchContext) for vTaskSwitchContext
    port.o(.emb_text) refers to tasks.o(.data) for pxCurrentTCB
    port.o(i.OS_SysTick) refers to tasks.o(i.xTaskIncrementTick) for xTaskIncrementTick
    port.o(i.prvTaskExitError) refers to port.o(.data) for uxCriticalNesting
    port.o(i.pxPortInitialiseStack) refers to port.o(i.prvTaskExitError) for prvTaskExitError
    port.o(i.vPortEndScheduler) refers to port.o(.data) for uxCriticalNesting
    port.o(i.vPortEnterCritical) refers to port.o(.data) for uxCriticalNesting
    port.o(i.vPortExitCritical) refers to port.o(.data) for uxCriticalNesting
    port.o(i.vPortSetupTimerInterrupt) refers to system_stm32f7xx.o(.data) for SystemCoreClock
    port.o(i.vPortValidateInterruptPriority) refers to port.o(.emb_text) for vPortGetIPSR
    port.o(i.vPortValidateInterruptPriority) refers to port.o(.data) for ucMaxSysCallPriority
    port.o(i.xPortStartScheduler) refers to port.o(i.vPortSetupTimerInterrupt) for vPortSetupTimerInterrupt
    port.o(i.xPortStartScheduler) refers to port.o(.emb_text) for __asm___6_port_c_39a90d8d__prvEnableVFP
    port.o(i.xPortStartScheduler) refers to port.o(.data) for ucMaxSysCallPriority
    heap_2.o(i.prvHeapInit) refers to heap_2.o(.bss) for ucHeap
    heap_2.o(i.prvHeapInit) refers to heap_2.o(.data) for xStart
    heap_2.o(i.pvPortMalloc) refers to tasks.o(i.vTaskSuspendAll) for vTaskSuspendAll
    heap_2.o(i.pvPortMalloc) refers to heap_2.o(i.prvHeapInit) for prvHeapInit
    heap_2.o(i.pvPortMalloc) refers to tasks.o(i.xTaskResumeAll) for xTaskResumeAll
    heap_2.o(i.pvPortMalloc) refers to oswrappers.o(i.vApplicationMallocFailedHook) for vApplicationMallocFailedHook
    heap_2.o(i.pvPortMalloc) refers to heap_2.o(.data) for xHeapHasBeenInitialised
    heap_2.o(i.vPortFree) refers to tasks.o(i.vTaskSuspendAll) for vTaskSuspendAll
    heap_2.o(i.vPortFree) refers to tasks.o(i.xTaskResumeAll) for xTaskResumeAll
    heap_2.o(i.vPortFree) refers to heap_2.o(.data) for xStart
    heap_2.o(i.xPortGetFreeHeapSize) refers to heap_2.o(.data) for xFreeBytesRemaining
    ft5336.o(i.ft5336_Get_I2C_InitializedStatus) refers to ft5336.o(.data) for ft5336_handle
    ft5336.o(i.ft5336_I2C_InitializeIfRequired) refers to ft5336.o(i.ft5336_Get_I2C_InitializedStatus) for ft5336_Get_I2C_InitializedStatus
    ft5336.o(i.ft5336_I2C_InitializeIfRequired) refers to stm32746g_discovery.o(i.TS_IO_Init) for TS_IO_Init
    ft5336.o(i.ft5336_I2C_InitializeIfRequired) refers to ft5336.o(.data) for ft5336_handle
    ft5336.o(i.ft5336_Init) refers to stm32746g_discovery.o(i.TS_IO_Delay) for TS_IO_Delay
    ft5336.o(i.ft5336_Init) refers to ft5336.o(i.ft5336_I2C_InitializeIfRequired) for ft5336_I2C_InitializeIfRequired
    ft5336.o(i.ft5336_ReadID) refers to ft5336.o(i.ft5336_I2C_InitializeIfRequired) for ft5336_I2C_InitializeIfRequired
    ft5336.o(i.ft5336_ReadID) refers to stm32746g_discovery.o(i.TS_IO_Read) for TS_IO_Read
    ft5336.o(i.ft5336_TS_DetectTouch) refers to stm32746g_discovery.o(i.TS_IO_Read) for TS_IO_Read
    ft5336.o(i.ft5336_TS_DetectTouch) refers to ft5336.o(.data) for ft5336_handle
    ft5336.o(i.ft5336_TS_DisableIT) refers to stm32746g_discovery.o(i.TS_IO_Write) for TS_IO_Write
    ft5336.o(i.ft5336_TS_EnableIT) refers to stm32746g_discovery.o(i.TS_IO_Write) for TS_IO_Write
    ft5336.o(i.ft5336_TS_GetGestureID) refers to stm32746g_discovery.o(i.TS_IO_Read) for TS_IO_Read
    ft5336.o(i.ft5336_TS_GetTouchInfo) refers to stm32746g_discovery.o(i.TS_IO_Read) for TS_IO_Read
    ft5336.o(i.ft5336_TS_GetTouchInfo) refers to ft5336.o(.data) for ft5336_handle
    ft5336.o(i.ft5336_TS_GetXY) refers to stm32746g_discovery.o(i.TS_IO_Read) for TS_IO_Read
    ft5336.o(i.ft5336_TS_GetXY) refers to ft5336.o(.data) for ft5336_handle
    ft5336.o(i.ft5336_TS_Start) refers to ft5336.o(i.ft5336_TS_Configure) for ft5336_TS_Configure
    ft5336.o(i.ft5336_TS_Start) refers to ft5336.o(i.ft5336_TS_DisableIT) for ft5336_TS_DisableIT
    ft5336.o(.data) refers to ft5336.o(i.ft5336_Init) for ft5336_Init
    ft5336.o(.data) refers to ft5336.o(i.ft5336_ReadID) for ft5336_ReadID
    ft5336.o(.data) refers to ft5336.o(i.ft5336_Reset) for ft5336_Reset
    ft5336.o(.data) refers to ft5336.o(i.ft5336_TS_Start) for ft5336_TS_Start
    ft5336.o(.data) refers to ft5336.o(i.ft5336_TS_DetectTouch) for ft5336_TS_DetectTouch
    ft5336.o(.data) refers to ft5336.o(i.ft5336_TS_GetXY) for ft5336_TS_GetXY
    ft5336.o(.data) refers to ft5336.o(i.ft5336_TS_EnableIT) for ft5336_TS_EnableIT
    ft5336.o(.data) refers to ft5336.o(i.ft5336_TS_ClearIT) for ft5336_TS_ClearIT
    ft5336.o(.data) refers to ft5336.o(i.ft5336_TS_ITStatus) for ft5336_TS_ITStatus
    ft5336.o(.data) refers to ft5336.o(i.ft5336_TS_DisableIT) for ft5336_TS_DisableIT
    stm32f7xx_hal.o(i.HAL_DeInit) refers to stm32f7xx_hal_msp_template.o(i.HAL_MspDeInit) for HAL_MspDeInit
    stm32f7xx_hal.o(i.HAL_Delay) refers to stm32f7xx_hal.o(i.HAL_GetTick) for HAL_GetTick
    stm32f7xx_hal.o(i.HAL_GetTick) refers to stm32f7xx_hal.o(.data) for uwTick
    stm32f7xx_hal.o(i.HAL_IncTick) refers to stm32f7xx_hal.o(.data) for uwTick
    stm32f7xx_hal.o(i.HAL_Init) refers to stm32f7xx_hal_cortex.o(i.HAL_NVIC_SetPriorityGrouping) for HAL_NVIC_SetPriorityGrouping
    stm32f7xx_hal.o(i.HAL_Init) refers to stm32f7xx_hal.o(i.HAL_InitTick) for HAL_InitTick
    stm32f7xx_hal.o(i.HAL_Init) refers to stm32f7xx_hal_msp_template.o(i.HAL_MspInit) for HAL_MspInit
    stm32f7xx_hal.o(i.HAL_InitTick) refers to stm32f7xx_hal_cortex.o(i.HAL_SYSTICK_Config) for HAL_SYSTICK_Config
    stm32f7xx_hal.o(i.HAL_InitTick) refers to stm32f7xx_hal_cortex.o(i.HAL_NVIC_SetPriority) for HAL_NVIC_SetPriority
    stm32f7xx_hal.o(i.HAL_InitTick) refers to system_stm32f7xx.o(.data) for SystemCoreClock
    stm32f7xx_hal_adc.o(i.ADC_DMAConvCplt) refers to stm32f7xx_hal_adc.o(i.HAL_ADC_ConvCpltCallback) for HAL_ADC_ConvCpltCallback
    stm32f7xx_hal_adc.o(i.ADC_DMAError) refers to stm32f7xx_hal_adc.o(i.HAL_ADC_ErrorCallback) for HAL_ADC_ErrorCallback
    stm32f7xx_hal_adc.o(i.ADC_DMAHalfConvCplt) refers to stm32f7xx_hal_adc.o(i.HAL_ADC_ConvHalfCpltCallback) for HAL_ADC_ConvHalfCpltCallback
    stm32f7xx_hal_adc.o(i.HAL_ADC_ConfigChannel) refers to system_stm32f7xx.o(.data) for SystemCoreClock
    stm32f7xx_hal_adc.o(i.HAL_ADC_DeInit) refers to stm32f7xx_hal_adc.o(i.HAL_ADC_MspDeInit) for HAL_ADC_MspDeInit
    stm32f7xx_hal_adc.o(i.HAL_ADC_IRQHandler) refers to stm32f7xx_hal_adc.o(i.HAL_ADC_ConvCpltCallback) for HAL_ADC_ConvCpltCallback
    stm32f7xx_hal_adc.o(i.HAL_ADC_IRQHandler) refers to stm32f7xx_hal_adc_ex.o(i.HAL_ADCEx_InjectedConvCpltCallback) for HAL_ADCEx_InjectedConvCpltCallback
    stm32f7xx_hal_adc.o(i.HAL_ADC_IRQHandler) refers to stm32f7xx_hal_adc.o(i.HAL_ADC_LevelOutOfWindowCallback) for HAL_ADC_LevelOutOfWindowCallback
    stm32f7xx_hal_adc.o(i.HAL_ADC_IRQHandler) refers to stm32f7xx_hal_adc.o(i.HAL_ADC_ErrorCallback) for HAL_ADC_ErrorCallback
    stm32f7xx_hal_adc.o(i.HAL_ADC_Init) refers to stm32f7xx_hal_adc.o(i.HAL_ADC_MspInit) for HAL_ADC_MspInit
    stm32f7xx_hal_adc.o(i.HAL_ADC_Init) refers to stm32f7xx_hal_adc.o(i.ADC_Init) for ADC_Init
    stm32f7xx_hal_adc.o(i.HAL_ADC_PollForConversion) refers to stm32f7xx_hal.o(i.HAL_GetTick) for HAL_GetTick
    stm32f7xx_hal_adc.o(i.HAL_ADC_PollForEvent) refers to stm32f7xx_hal.o(i.HAL_GetTick) for HAL_GetTick
    stm32f7xx_hal_adc.o(i.HAL_ADC_Start) refers to system_stm32f7xx.o(.data) for SystemCoreClock
    stm32f7xx_hal_adc.o(i.HAL_ADC_Start_DMA) refers to stm32f7xx_hal_dma.o(i.HAL_DMA_Start_IT) for HAL_DMA_Start_IT
    stm32f7xx_hal_adc.o(i.HAL_ADC_Start_DMA) refers to system_stm32f7xx.o(.data) for SystemCoreClock
    stm32f7xx_hal_adc.o(i.HAL_ADC_Start_DMA) refers to stm32f7xx_hal_adc.o(i.ADC_DMAConvCplt) for ADC_DMAConvCplt
    stm32f7xx_hal_adc.o(i.HAL_ADC_Start_DMA) refers to stm32f7xx_hal_adc.o(i.ADC_DMAHalfConvCplt) for ADC_DMAHalfConvCplt
    stm32f7xx_hal_adc.o(i.HAL_ADC_Start_DMA) refers to stm32f7xx_hal_adc.o(i.ADC_DMAError) for ADC_DMAError
    stm32f7xx_hal_adc.o(i.HAL_ADC_Start_IT) refers to system_stm32f7xx.o(.data) for SystemCoreClock
    stm32f7xx_hal_adc.o(i.HAL_ADC_Stop_DMA) refers to stm32f7xx_hal_dma.o(i.HAL_DMA_Abort) for HAL_DMA_Abort
    stm32f7xx_hal_adc_ex.o(i.ADC_MultiModeDMAConvCplt) refers to stm32f7xx_hal_adc.o(i.HAL_ADC_ConvCpltCallback) for HAL_ADC_ConvCpltCallback
    stm32f7xx_hal_adc_ex.o(i.ADC_MultiModeDMAError) refers to stm32f7xx_hal_adc.o(i.HAL_ADC_ErrorCallback) for HAL_ADC_ErrorCallback
    stm32f7xx_hal_adc_ex.o(i.ADC_MultiModeDMAHalfConvCplt) refers to stm32f7xx_hal_adc.o(i.HAL_ADC_ConvHalfCpltCallback) for HAL_ADC_ConvHalfCpltCallback
    stm32f7xx_hal_adc_ex.o(i.HAL_ADCEx_InjectedPollForConversion) refers to stm32f7xx_hal.o(i.HAL_GetTick) for HAL_GetTick
    stm32f7xx_hal_adc_ex.o(i.HAL_ADCEx_InjectedStart) refers to system_stm32f7xx.o(.data) for SystemCoreClock
    stm32f7xx_hal_adc_ex.o(i.HAL_ADCEx_InjectedStart_IT) refers to system_stm32f7xx.o(.data) for SystemCoreClock
    stm32f7xx_hal_adc_ex.o(i.HAL_ADCEx_MultiModeStart_DMA) refers to stm32f7xx_hal_dma.o(i.HAL_DMA_Start_IT) for HAL_DMA_Start_IT
    stm32f7xx_hal_adc_ex.o(i.HAL_ADCEx_MultiModeStart_DMA) refers to system_stm32f7xx.o(.data) for SystemCoreClock
    stm32f7xx_hal_adc_ex.o(i.HAL_ADCEx_MultiModeStart_DMA) refers to stm32f7xx_hal_adc_ex.o(i.ADC_MultiModeDMAConvCplt) for ADC_MultiModeDMAConvCplt
    stm32f7xx_hal_adc_ex.o(i.HAL_ADCEx_MultiModeStart_DMA) refers to stm32f7xx_hal_adc_ex.o(i.ADC_MultiModeDMAHalfConvCplt) for ADC_MultiModeDMAHalfConvCplt
    stm32f7xx_hal_adc_ex.o(i.HAL_ADCEx_MultiModeStart_DMA) refers to stm32f7xx_hal_adc_ex.o(i.ADC_MultiModeDMAError) for ADC_MultiModeDMAError
    stm32f7xx_hal_adc_ex.o(i.HAL_ADCEx_MultiModeStop_DMA) refers to stm32f7xx_hal_dma.o(i.HAL_DMA_Abort) for HAL_DMA_Abort
    stm32f7xx_hal_cortex.o(i.HAL_NVIC_GetPriorityGrouping) refers to stm32f7xx_hal_cortex.o(i.NVIC_GetPriorityGrouping) for NVIC_GetPriorityGrouping
    stm32f7xx_hal_cortex.o(i.HAL_NVIC_SetPriority) refers to stm32f7xx_hal_cortex.o(i.NVIC_GetPriorityGrouping) for NVIC_GetPriorityGrouping
    stm32f7xx_hal_cortex.o(i.HAL_NVIC_SetPriority) refers to stm32f7xx_hal_cortex.o(i.NVIC_SetPriority) for NVIC_SetPriority
    stm32f7xx_hal_cortex.o(i.HAL_SYSTICK_Config) refers to stm32f7xx_hal_cortex.o(i.NVIC_SetPriority) for NVIC_SetPriority
    stm32f7xx_hal_cortex.o(i.HAL_SYSTICK_IRQHandler) refers to stm32f7xx_hal_cortex.o(i.HAL_SYSTICK_Callback) for HAL_SYSTICK_Callback
    stm32f7xx_hal_dma.o(i.DMA_CalcBaseAndBitshift) refers to stm32f7xx_hal_dma.o(.constdata) for flagBitshiftOffset
    stm32f7xx_hal_dma.o(i.HAL_DMA_Abort) refers to stm32f7xx_hal.o(i.HAL_GetTick) for HAL_GetTick
    stm32f7xx_hal_dma.o(i.HAL_DMA_DeInit) refers to stm32f7xx_hal_dma.o(i.DMA_CalcBaseAndBitshift) for DMA_CalcBaseAndBitshift
    stm32f7xx_hal_dma.o(i.HAL_DMA_IRQHandler) refers to system_stm32f7xx.o(.data) for SystemCoreClock
    stm32f7xx_hal_dma.o(i.HAL_DMA_Init) refers to stm32f7xx_hal.o(i.HAL_GetTick) for HAL_GetTick
    stm32f7xx_hal_dma.o(i.HAL_DMA_Init) refers to stm32f7xx_hal_dma.o(i.DMA_CheckFifoParam) for DMA_CheckFifoParam
    stm32f7xx_hal_dma.o(i.HAL_DMA_Init) refers to stm32f7xx_hal_dma.o(i.DMA_CalcBaseAndBitshift) for DMA_CalcBaseAndBitshift
    stm32f7xx_hal_dma.o(i.HAL_DMA_PollForTransfer) refers to stm32f7xx_hal.o(i.HAL_GetTick) for HAL_GetTick
    stm32f7xx_hal_dma.o(i.HAL_DMA_PollForTransfer) refers to stm32f7xx_hal_dma.o(i.HAL_DMA_Abort) for HAL_DMA_Abort
    stm32f7xx_hal_dma.o(i.HAL_DMA_Start) refers to stm32f7xx_hal_dma.o(i.DMA_SetConfig) for DMA_SetConfig
    stm32f7xx_hal_dma.o(i.HAL_DMA_Start_IT) refers to stm32f7xx_hal_dma.o(i.DMA_SetConfig) for DMA_SetConfig
    stm32f7xx_hal_dma_ex.o(i.HAL_DMAEx_MultiBufferStart) refers to stm32f7xx_hal_dma_ex.o(i.DMA_MultiBufferSetConfig) for DMA_MultiBufferSetConfig
    stm32f7xx_hal_dma_ex.o(i.HAL_DMAEx_MultiBufferStart_IT) refers to stm32f7xx_hal_dma_ex.o(i.DMA_MultiBufferSetConfig) for DMA_MultiBufferSetConfig
    stm32f7xx_hal_dma2d.o(i.HAL_DMA2D_Abort) refers to stm32f7xx_hal.o(i.HAL_GetTick) for HAL_GetTick
    stm32f7xx_hal_dma2d.o(i.HAL_DMA2D_BlendingStart) refers to stm32f7xx_hal_dma2d.o(i.DMA2D_SetConfig) for DMA2D_SetConfig
    stm32f7xx_hal_dma2d.o(i.HAL_DMA2D_BlendingStart_IT) refers to stm32f7xx_hal_dma2d.o(i.DMA2D_SetConfig) for DMA2D_SetConfig
    stm32f7xx_hal_dma2d.o(i.HAL_DMA2D_CLUTLoading_Abort) refers to stm32f7xx_hal.o(i.HAL_GetTick) for HAL_GetTick
    stm32f7xx_hal_dma2d.o(i.HAL_DMA2D_CLUTLoading_Suspend) refers to stm32f7xx_hal.o(i.HAL_GetTick) for HAL_GetTick
    stm32f7xx_hal_dma2d.o(i.HAL_DMA2D_DeInit) refers to stm32f7xx_hal_dma2d.o(i.HAL_DMA2D_Abort) for HAL_DMA2D_Abort
    stm32f7xx_hal_dma2d.o(i.HAL_DMA2D_DeInit) refers to stm32f7xx_hal_dma2d.o(i.HAL_DMA2D_CLUTLoading_Abort) for HAL_DMA2D_CLUTLoading_Abort
    stm32f7xx_hal_dma2d.o(i.HAL_DMA2D_DeInit) refers to stm32f7xx_hal_dma2d.o(i.HAL_DMA2D_MspDeInit) for HAL_DMA2D_MspDeInit
    stm32f7xx_hal_dma2d.o(i.HAL_DMA2D_IRQHandler) refers to stm32f7xx_hal_dma2d.o(i.HAL_DMA2D_LineEventCallback) for HAL_DMA2D_LineEventCallback
    stm32f7xx_hal_dma2d.o(i.HAL_DMA2D_IRQHandler) refers to stm32f7xx_hal_dma2d.o(i.HAL_DMA2D_CLUTLoadingCpltCallback) for HAL_DMA2D_CLUTLoadingCpltCallback
    stm32f7xx_hal_dma2d.o(i.HAL_DMA2D_Init) refers to stm32f7xx_hal_dma2d.o(i.HAL_DMA2D_MspInit) for HAL_DMA2D_MspInit
    stm32f7xx_hal_dma2d.o(i.HAL_DMA2D_PollForTransfer) refers to stm32f7xx_hal.o(i.HAL_GetTick) for HAL_GetTick
    stm32f7xx_hal_dma2d.o(i.HAL_DMA2D_Start) refers to stm32f7xx_hal_dma2d.o(i.DMA2D_SetConfig) for DMA2D_SetConfig
    stm32f7xx_hal_dma2d.o(i.HAL_DMA2D_Start_IT) refers to stm32f7xx_hal_dma2d.o(i.DMA2D_SetConfig) for DMA2D_SetConfig
    stm32f7xx_hal_dma2d.o(i.HAL_DMA2D_Suspend) refers to stm32f7xx_hal.o(i.HAL_GetTick) for HAL_GetTick
    stm32f7xx_hal_flash.o(i.FLASH_SetErrorCode) refers to stm32f7xx_hal_flash.o(.bss) for pFlash
    stm32f7xx_hal_flash.o(i.FLASH_WaitForLastOperation) refers to stm32f7xx_hal.o(i.HAL_GetTick) for HAL_GetTick
    stm32f7xx_hal_flash.o(i.FLASH_WaitForLastOperation) refers to stm32f7xx_hal_flash.o(i.FLASH_SetErrorCode) for FLASH_SetErrorCode
    stm32f7xx_hal_flash.o(i.FLASH_WaitForLastOperation) refers to stm32f7xx_hal_flash.o(.bss) for pFlash
    stm32f7xx_hal_flash.o(i.HAL_FLASH_GetError) refers to stm32f7xx_hal_flash.o(.bss) for pFlash
    stm32f7xx_hal_flash.o(i.HAL_FLASH_IRQHandler) refers to stm32f7xx_hal_flash.o(i.HAL_FLASH_EndOfOperationCallback) for HAL_FLASH_EndOfOperationCallback
    stm32f7xx_hal_flash.o(i.HAL_FLASH_IRQHandler) refers to stm32f7xx_hal_flash_ex.o(i.FLASH_Erase_Sector) for FLASH_Erase_Sector
    stm32f7xx_hal_flash.o(i.HAL_FLASH_IRQHandler) refers to stm32f7xx_hal_flash.o(i.FLASH_SetErrorCode) for FLASH_SetErrorCode
    stm32f7xx_hal_flash.o(i.HAL_FLASH_IRQHandler) refers to stm32f7xx_hal_flash.o(i.HAL_FLASH_OperationErrorCallback) for HAL_FLASH_OperationErrorCallback
    stm32f7xx_hal_flash.o(i.HAL_FLASH_IRQHandler) refers to stm32f7xx_hal_flash.o(.bss) for pFlash
    stm32f7xx_hal_flash.o(i.HAL_FLASH_OB_Launch) refers to stm32f7xx_hal_flash.o(i.FLASH_WaitForLastOperation) for FLASH_WaitForLastOperation
    stm32f7xx_hal_flash.o(i.HAL_FLASH_Program) refers to stm32f7xx_hal_flash.o(i.FLASH_WaitForLastOperation) for FLASH_WaitForLastOperation
    stm32f7xx_hal_flash.o(i.HAL_FLASH_Program) refers to stm32f7xx_hal_flash.o(i.FLASH_Program_Byte) for FLASH_Program_Byte
    stm32f7xx_hal_flash.o(i.HAL_FLASH_Program) refers to stm32f7xx_hal_flash.o(i.FLASH_Program_HalfWord) for FLASH_Program_HalfWord
    stm32f7xx_hal_flash.o(i.HAL_FLASH_Program) refers to stm32f7xx_hal_flash.o(i.FLASH_Program_Word) for FLASH_Program_Word
    stm32f7xx_hal_flash.o(i.HAL_FLASH_Program) refers to stm32f7xx_hal_flash.o(i.FLASH_Program_DoubleWord) for FLASH_Program_DoubleWord
    stm32f7xx_hal_flash.o(i.HAL_FLASH_Program) refers to stm32f7xx_hal_flash.o(.bss) for pFlash
    stm32f7xx_hal_flash.o(i.HAL_FLASH_Program_IT) refers to stm32f7xx_hal_flash.o(i.FLASH_Program_Byte) for FLASH_Program_Byte
    stm32f7xx_hal_flash.o(i.HAL_FLASH_Program_IT) refers to stm32f7xx_hal_flash.o(i.FLASH_Program_HalfWord) for FLASH_Program_HalfWord
    stm32f7xx_hal_flash.o(i.HAL_FLASH_Program_IT) refers to stm32f7xx_hal_flash.o(i.FLASH_Program_Word) for FLASH_Program_Word
    stm32f7xx_hal_flash.o(i.HAL_FLASH_Program_IT) refers to stm32f7xx_hal_flash.o(i.FLASH_Program_DoubleWord) for FLASH_Program_DoubleWord
    stm32f7xx_hal_flash.o(i.HAL_FLASH_Program_IT) refers to stm32f7xx_hal_flash.o(.bss) for pFlash
    stm32f7xx_hal_flash_ex.o(i.FLASH_OB_BootAddressConfig) refers to stm32f7xx_hal_flash.o(i.FLASH_WaitForLastOperation) for FLASH_WaitForLastOperation
    stm32f7xx_hal_flash_ex.o(i.FLASH_OB_DisableWRP) refers to stm32f7xx_hal_flash.o(i.FLASH_WaitForLastOperation) for FLASH_WaitForLastOperation
    stm32f7xx_hal_flash_ex.o(i.FLASH_OB_EnableWRP) refers to stm32f7xx_hal_flash.o(i.FLASH_WaitForLastOperation) for FLASH_WaitForLastOperation
    stm32f7xx_hal_flash_ex.o(i.FLASH_OB_RDP_LevelConfig) refers to stm32f7xx_hal_flash.o(i.FLASH_WaitForLastOperation) for FLASH_WaitForLastOperation
    stm32f7xx_hal_flash_ex.o(i.FLASH_OB_UserConfig) refers to stm32f7xx_hal_flash.o(i.FLASH_WaitForLastOperation) for FLASH_WaitForLastOperation
    stm32f7xx_hal_flash_ex.o(i.HAL_FLASHEx_Erase) refers to stm32f7xx_hal_flash.o(i.FLASH_WaitForLastOperation) for FLASH_WaitForLastOperation
    stm32f7xx_hal_flash_ex.o(i.HAL_FLASHEx_Erase) refers to stm32f7xx_hal_flash_ex.o(i.FLASH_MassErase) for FLASH_MassErase
    stm32f7xx_hal_flash_ex.o(i.HAL_FLASHEx_Erase) refers to stm32f7xx_hal_flash_ex.o(i.FLASH_Erase_Sector) for FLASH_Erase_Sector
    stm32f7xx_hal_flash_ex.o(i.HAL_FLASHEx_Erase) refers to stm32f7xx_hal_flash.o(.bss) for pFlash
    stm32f7xx_hal_flash_ex.o(i.HAL_FLASHEx_Erase_IT) refers to stm32f7xx_hal_flash_ex.o(i.FLASH_MassErase) for FLASH_MassErase
    stm32f7xx_hal_flash_ex.o(i.HAL_FLASHEx_Erase_IT) refers to stm32f7xx_hal_flash_ex.o(i.FLASH_Erase_Sector) for FLASH_Erase_Sector
    stm32f7xx_hal_flash_ex.o(i.HAL_FLASHEx_Erase_IT) refers to stm32f7xx_hal_flash.o(.bss) for pFlash
    stm32f7xx_hal_flash_ex.o(i.HAL_FLASHEx_OBGetConfig) refers to stm32f7xx_hal_flash_ex.o(i.FLASH_OB_GetWRP) for FLASH_OB_GetWRP
    stm32f7xx_hal_flash_ex.o(i.HAL_FLASHEx_OBGetConfig) refers to stm32f7xx_hal_flash_ex.o(i.FLASH_OB_GetRDP) for FLASH_OB_GetRDP
    stm32f7xx_hal_flash_ex.o(i.HAL_FLASHEx_OBGetConfig) refers to stm32f7xx_hal_flash_ex.o(i.FLASH_OB_GetUser) for FLASH_OB_GetUser
    stm32f7xx_hal_flash_ex.o(i.HAL_FLASHEx_OBGetConfig) refers to stm32f7xx_hal_flash_ex.o(i.FLASH_OB_GetBOR) for FLASH_OB_GetBOR
    stm32f7xx_hal_flash_ex.o(i.HAL_FLASHEx_OBGetConfig) refers to stm32f7xx_hal_flash_ex.o(i.FLASH_OB_GetBootAddress) for FLASH_OB_GetBootAddress
    stm32f7xx_hal_flash_ex.o(i.HAL_FLASHEx_OBProgram) refers to stm32f7xx_hal_flash_ex.o(i.FLASH_OB_EnableWRP) for FLASH_OB_EnableWRP
    stm32f7xx_hal_flash_ex.o(i.HAL_FLASHEx_OBProgram) refers to stm32f7xx_hal_flash_ex.o(i.FLASH_OB_DisableWRP) for FLASH_OB_DisableWRP
    stm32f7xx_hal_flash_ex.o(i.HAL_FLASHEx_OBProgram) refers to stm32f7xx_hal_flash_ex.o(i.FLASH_OB_RDP_LevelConfig) for FLASH_OB_RDP_LevelConfig
    stm32f7xx_hal_flash_ex.o(i.HAL_FLASHEx_OBProgram) refers to stm32f7xx_hal_flash_ex.o(i.FLASH_OB_UserConfig) for FLASH_OB_UserConfig
    stm32f7xx_hal_flash_ex.o(i.HAL_FLASHEx_OBProgram) refers to stm32f7xx_hal_flash_ex.o(i.FLASH_OB_BOR_LevelConfig) for FLASH_OB_BOR_LevelConfig
    stm32f7xx_hal_flash_ex.o(i.HAL_FLASHEx_OBProgram) refers to stm32f7xx_hal_flash_ex.o(i.FLASH_OB_BootAddressConfig) for FLASH_OB_BootAddressConfig
    stm32f7xx_hal_flash_ex.o(i.HAL_FLASHEx_OBProgram) refers to stm32f7xx_hal_flash.o(.bss) for pFlash
    stm32f7xx_hal_gpio.o(i.HAL_GPIO_EXTI_IRQHandler) refers to stm32f7xx_hal_gpio.o(i.HAL_GPIO_EXTI_Callback) for HAL_GPIO_EXTI_Callback
    stm32f7xx_hal_i2c.o(i.HAL_I2C_DeInit) refers to stm32f7xx_hal_i2c.o(i.HAL_I2C_MspDeInit) for HAL_I2C_MspDeInit
    stm32f7xx_hal_i2c.o(i.HAL_I2C_DisableListen_IT) refers to stm32f7xx_hal_i2c.o(i.I2C_Disable_IRQ) for I2C_Disable_IRQ
    stm32f7xx_hal_i2c.o(i.HAL_I2C_ER_IRQHandler) refers to stm32f7xx_hal_i2c.o(i.I2C_ITError) for I2C_ITError
    stm32f7xx_hal_i2c.o(i.HAL_I2C_EnableListen_IT) refers to stm32f7xx_hal_i2c.o(i.I2C_Enable_IRQ) for I2C_Enable_IRQ
    stm32f7xx_hal_i2c.o(i.HAL_I2C_EnableListen_IT) refers to stm32f7xx_hal_i2c.o(i.I2C_Slave_ISR_IT) for I2C_Slave_ISR_IT
    stm32f7xx_hal_i2c.o(i.HAL_I2C_Init) refers to stm32f7xx_hal_i2c.o(i.HAL_I2C_MspInit) for HAL_I2C_MspInit
    stm32f7xx_hal_i2c.o(i.HAL_I2C_IsDeviceReady) refers to stm32f7xx_hal.o(i.HAL_GetTick) for HAL_GetTick
    stm32f7xx_hal_i2c.o(i.HAL_I2C_IsDeviceReady) refers to stm32f7xx_hal_i2c.o(i.I2C_WaitOnFlagUntilTimeout) for I2C_WaitOnFlagUntilTimeout
    stm32f7xx_hal_i2c.o(i.HAL_I2C_Master_Abort_IT) refers to stm32f7xx_hal_i2c.o(i.I2C_Disable_IRQ) for I2C_Disable_IRQ
    stm32f7xx_hal_i2c.o(i.HAL_I2C_Master_Abort_IT) refers to stm32f7xx_hal_i2c.o(i.I2C_TransferConfig) for I2C_TransferConfig
    stm32f7xx_hal_i2c.o(i.HAL_I2C_Master_Abort_IT) refers to stm32f7xx_hal_i2c.o(i.I2C_Enable_IRQ) for I2C_Enable_IRQ
    stm32f7xx_hal_i2c.o(i.HAL_I2C_Master_Receive) refers to stm32f7xx_hal.o(i.HAL_GetTick) for HAL_GetTick
    stm32f7xx_hal_i2c.o(i.HAL_I2C_Master_Receive) refers to stm32f7xx_hal_i2c.o(i.I2C_WaitOnFlagUntilTimeout) for I2C_WaitOnFlagUntilTimeout
    stm32f7xx_hal_i2c.o(i.HAL_I2C_Master_Receive) refers to stm32f7xx_hal_i2c.o(i.I2C_TransferConfig) for I2C_TransferConfig
    stm32f7xx_hal_i2c.o(i.HAL_I2C_Master_Receive) refers to stm32f7xx_hal_i2c.o(i.I2C_WaitOnRXNEFlagUntilTimeout) for I2C_WaitOnRXNEFlagUntilTimeout
    stm32f7xx_hal_i2c.o(i.HAL_I2C_Master_Receive) refers to stm32f7xx_hal_i2c.o(i.I2C_WaitOnSTOPFlagUntilTimeout) for I2C_WaitOnSTOPFlagUntilTimeout
    stm32f7xx_hal_i2c.o(i.HAL_I2C_Master_Receive_DMA) refers to stm32f7xx_hal_dma.o(i.HAL_DMA_Start_IT) for HAL_DMA_Start_IT
    stm32f7xx_hal_i2c.o(i.HAL_I2C_Master_Receive_DMA) refers to stm32f7xx_hal_i2c.o(i.I2C_TransferConfig) for I2C_TransferConfig
    stm32f7xx_hal_i2c.o(i.HAL_I2C_Master_Receive_DMA) refers to stm32f7xx_hal_i2c.o(i.I2C_Enable_IRQ) for I2C_Enable_IRQ
    stm32f7xx_hal_i2c.o(i.HAL_I2C_Master_Receive_DMA) refers to stm32f7xx_hal_i2c.o(i.I2C_Master_ISR_DMA) for I2C_Master_ISR_DMA
    stm32f7xx_hal_i2c.o(i.HAL_I2C_Master_Receive_DMA) refers to stm32f7xx_hal_i2c.o(i.I2C_DMAMasterReceiveCplt) for I2C_DMAMasterReceiveCplt
    stm32f7xx_hal_i2c.o(i.HAL_I2C_Master_Receive_DMA) refers to stm32f7xx_hal_i2c.o(i.I2C_DMAError) for I2C_DMAError
    stm32f7xx_hal_i2c.o(i.HAL_I2C_Master_Receive_IT) refers to stm32f7xx_hal_i2c.o(i.I2C_TransferConfig) for I2C_TransferConfig
    stm32f7xx_hal_i2c.o(i.HAL_I2C_Master_Receive_IT) refers to stm32f7xx_hal_i2c.o(i.I2C_Enable_IRQ) for I2C_Enable_IRQ
    stm32f7xx_hal_i2c.o(i.HAL_I2C_Master_Receive_IT) refers to stm32f7xx_hal_i2c.o(i.I2C_Master_ISR_IT) for I2C_Master_ISR_IT
    stm32f7xx_hal_i2c.o(i.HAL_I2C_Master_Sequential_Receive_IT) refers to stm32f7xx_hal_i2c.o(i.I2C_TransferConfig) for I2C_TransferConfig
    stm32f7xx_hal_i2c.o(i.HAL_I2C_Master_Sequential_Receive_IT) refers to stm32f7xx_hal_i2c.o(i.I2C_Enable_IRQ) for I2C_Enable_IRQ
    stm32f7xx_hal_i2c.o(i.HAL_I2C_Master_Sequential_Receive_IT) refers to stm32f7xx_hal_i2c.o(i.I2C_Master_ISR_IT) for I2C_Master_ISR_IT
    stm32f7xx_hal_i2c.o(i.HAL_I2C_Master_Sequential_Transmit_IT) refers to stm32f7xx_hal_i2c.o(i.I2C_TransferConfig) for I2C_TransferConfig
    stm32f7xx_hal_i2c.o(i.HAL_I2C_Master_Sequential_Transmit_IT) refers to stm32f7xx_hal_i2c.o(i.I2C_Enable_IRQ) for I2C_Enable_IRQ
    stm32f7xx_hal_i2c.o(i.HAL_I2C_Master_Sequential_Transmit_IT) refers to stm32f7xx_hal_i2c.o(i.I2C_Master_ISR_IT) for I2C_Master_ISR_IT
    stm32f7xx_hal_i2c.o(i.HAL_I2C_Master_Transmit) refers to stm32f7xx_hal.o(i.HAL_GetTick) for HAL_GetTick
    stm32f7xx_hal_i2c.o(i.HAL_I2C_Master_Transmit) refers to stm32f7xx_hal_i2c.o(i.I2C_WaitOnFlagUntilTimeout) for I2C_WaitOnFlagUntilTimeout
    stm32f7xx_hal_i2c.o(i.HAL_I2C_Master_Transmit) refers to stm32f7xx_hal_i2c.o(i.I2C_TransferConfig) for I2C_TransferConfig
    stm32f7xx_hal_i2c.o(i.HAL_I2C_Master_Transmit) refers to stm32f7xx_hal_i2c.o(i.I2C_WaitOnTXISFlagUntilTimeout) for I2C_WaitOnTXISFlagUntilTimeout
    stm32f7xx_hal_i2c.o(i.HAL_I2C_Master_Transmit) refers to stm32f7xx_hal_i2c.o(i.I2C_WaitOnSTOPFlagUntilTimeout) for I2C_WaitOnSTOPFlagUntilTimeout
    stm32f7xx_hal_i2c.o(i.HAL_I2C_Master_Transmit_DMA) refers to stm32f7xx_hal_dma.o(i.HAL_DMA_Start_IT) for HAL_DMA_Start_IT
    stm32f7xx_hal_i2c.o(i.HAL_I2C_Master_Transmit_DMA) refers to stm32f7xx_hal_i2c.o(i.I2C_TransferConfig) for I2C_TransferConfig
    stm32f7xx_hal_i2c.o(i.HAL_I2C_Master_Transmit_DMA) refers to stm32f7xx_hal_i2c.o(i.I2C_Enable_IRQ) for I2C_Enable_IRQ
    stm32f7xx_hal_i2c.o(i.HAL_I2C_Master_Transmit_DMA) refers to stm32f7xx_hal_i2c.o(i.I2C_Master_ISR_DMA) for I2C_Master_ISR_DMA
    stm32f7xx_hal_i2c.o(i.HAL_I2C_Master_Transmit_DMA) refers to stm32f7xx_hal_i2c.o(i.I2C_DMAMasterTransmitCplt) for I2C_DMAMasterTransmitCplt
    stm32f7xx_hal_i2c.o(i.HAL_I2C_Master_Transmit_DMA) refers to stm32f7xx_hal_i2c.o(i.I2C_DMAError) for I2C_DMAError
    stm32f7xx_hal_i2c.o(i.HAL_I2C_Master_Transmit_IT) refers to stm32f7xx_hal_i2c.o(i.I2C_TransferConfig) for I2C_TransferConfig
    stm32f7xx_hal_i2c.o(i.HAL_I2C_Master_Transmit_IT) refers to stm32f7xx_hal_i2c.o(i.I2C_Enable_IRQ) for I2C_Enable_IRQ
    stm32f7xx_hal_i2c.o(i.HAL_I2C_Master_Transmit_IT) refers to stm32f7xx_hal_i2c.o(i.I2C_Master_ISR_IT) for I2C_Master_ISR_IT
    stm32f7xx_hal_i2c.o(i.HAL_I2C_Mem_Read) refers to stm32f7xx_hal.o(i.HAL_GetTick) for HAL_GetTick
    stm32f7xx_hal_i2c.o(i.HAL_I2C_Mem_Read) refers to stm32f7xx_hal_i2c.o(i.I2C_WaitOnFlagUntilTimeout) for I2C_WaitOnFlagUntilTimeout
    stm32f7xx_hal_i2c.o(i.HAL_I2C_Mem_Read) refers to stm32f7xx_hal_i2c.o(i.I2C_RequestMemoryRead) for I2C_RequestMemoryRead
    stm32f7xx_hal_i2c.o(i.HAL_I2C_Mem_Read) refers to stm32f7xx_hal_i2c.o(i.I2C_TransferConfig) for I2C_TransferConfig
    stm32f7xx_hal_i2c.o(i.HAL_I2C_Mem_Read) refers to stm32f7xx_hal_i2c.o(i.I2C_WaitOnSTOPFlagUntilTimeout) for I2C_WaitOnSTOPFlagUntilTimeout
    stm32f7xx_hal_i2c.o(i.HAL_I2C_Mem_Read_DMA) refers to stm32f7xx_hal.o(i.HAL_GetTick) for HAL_GetTick
    stm32f7xx_hal_i2c.o(i.HAL_I2C_Mem_Read_DMA) refers to stm32f7xx_hal_i2c.o(i.I2C_RequestMemoryRead) for I2C_RequestMemoryRead
    stm32f7xx_hal_i2c.o(i.HAL_I2C_Mem_Read_DMA) refers to stm32f7xx_hal_dma.o(i.HAL_DMA_Start_IT) for HAL_DMA_Start_IT
    stm32f7xx_hal_i2c.o(i.HAL_I2C_Mem_Read_DMA) refers to stm32f7xx_hal_i2c.o(i.I2C_TransferConfig) for I2C_TransferConfig
    stm32f7xx_hal_i2c.o(i.HAL_I2C_Mem_Read_DMA) refers to stm32f7xx_hal_i2c.o(i.I2C_Enable_IRQ) for I2C_Enable_IRQ
    stm32f7xx_hal_i2c.o(i.HAL_I2C_Mem_Read_DMA) refers to stm32f7xx_hal_i2c.o(i.I2C_Master_ISR_DMA) for I2C_Master_ISR_DMA
    stm32f7xx_hal_i2c.o(i.HAL_I2C_Mem_Read_DMA) refers to stm32f7xx_hal_i2c.o(i.I2C_DMAMasterReceiveCplt) for I2C_DMAMasterReceiveCplt
    stm32f7xx_hal_i2c.o(i.HAL_I2C_Mem_Read_DMA) refers to stm32f7xx_hal_i2c.o(i.I2C_DMAError) for I2C_DMAError
    stm32f7xx_hal_i2c.o(i.HAL_I2C_Mem_Read_IT) refers to stm32f7xx_hal.o(i.HAL_GetTick) for HAL_GetTick
    stm32f7xx_hal_i2c.o(i.HAL_I2C_Mem_Read_IT) refers to stm32f7xx_hal_i2c.o(i.I2C_RequestMemoryRead) for I2C_RequestMemoryRead
    stm32f7xx_hal_i2c.o(i.HAL_I2C_Mem_Read_IT) refers to stm32f7xx_hal_i2c.o(i.I2C_TransferConfig) for I2C_TransferConfig
    stm32f7xx_hal_i2c.o(i.HAL_I2C_Mem_Read_IT) refers to stm32f7xx_hal_i2c.o(i.I2C_Enable_IRQ) for I2C_Enable_IRQ
    stm32f7xx_hal_i2c.o(i.HAL_I2C_Mem_Read_IT) refers to stm32f7xx_hal_i2c.o(i.I2C_Master_ISR_IT) for I2C_Master_ISR_IT
    stm32f7xx_hal_i2c.o(i.HAL_I2C_Mem_Write) refers to stm32f7xx_hal.o(i.HAL_GetTick) for HAL_GetTick
    stm32f7xx_hal_i2c.o(i.HAL_I2C_Mem_Write) refers to stm32f7xx_hal_i2c.o(i.I2C_WaitOnFlagUntilTimeout) for I2C_WaitOnFlagUntilTimeout
    stm32f7xx_hal_i2c.o(i.HAL_I2C_Mem_Write) refers to stm32f7xx_hal_i2c.o(i.I2C_RequestMemoryWrite) for I2C_RequestMemoryWrite
    stm32f7xx_hal_i2c.o(i.HAL_I2C_Mem_Write) refers to stm32f7xx_hal_i2c.o(i.I2C_TransferConfig) for I2C_TransferConfig
    stm32f7xx_hal_i2c.o(i.HAL_I2C_Mem_Write) refers to stm32f7xx_hal_i2c.o(i.I2C_WaitOnTXISFlagUntilTimeout) for I2C_WaitOnTXISFlagUntilTimeout
    stm32f7xx_hal_i2c.o(i.HAL_I2C_Mem_Write) refers to stm32f7xx_hal_i2c.o(i.I2C_WaitOnSTOPFlagUntilTimeout) for I2C_WaitOnSTOPFlagUntilTimeout
    stm32f7xx_hal_i2c.o(i.HAL_I2C_Mem_Write_DMA) refers to stm32f7xx_hal.o(i.HAL_GetTick) for HAL_GetTick
    stm32f7xx_hal_i2c.o(i.HAL_I2C_Mem_Write_DMA) refers to stm32f7xx_hal_i2c.o(i.I2C_RequestMemoryWrite) for I2C_RequestMemoryWrite
    stm32f7xx_hal_i2c.o(i.HAL_I2C_Mem_Write_DMA) refers to stm32f7xx_hal_dma.o(i.HAL_DMA_Start_IT) for HAL_DMA_Start_IT
    stm32f7xx_hal_i2c.o(i.HAL_I2C_Mem_Write_DMA) refers to stm32f7xx_hal_i2c.o(i.I2C_TransferConfig) for I2C_TransferConfig
    stm32f7xx_hal_i2c.o(i.HAL_I2C_Mem_Write_DMA) refers to stm32f7xx_hal_i2c.o(i.I2C_Enable_IRQ) for I2C_Enable_IRQ
    stm32f7xx_hal_i2c.o(i.HAL_I2C_Mem_Write_DMA) refers to stm32f7xx_hal_i2c.o(i.I2C_Master_ISR_DMA) for I2C_Master_ISR_DMA
    stm32f7xx_hal_i2c.o(i.HAL_I2C_Mem_Write_DMA) refers to stm32f7xx_hal_i2c.o(i.I2C_DMAMasterTransmitCplt) for I2C_DMAMasterTransmitCplt
    stm32f7xx_hal_i2c.o(i.HAL_I2C_Mem_Write_DMA) refers to stm32f7xx_hal_i2c.o(i.I2C_DMAError) for I2C_DMAError
    stm32f7xx_hal_i2c.o(i.HAL_I2C_Mem_Write_IT) refers to stm32f7xx_hal.o(i.HAL_GetTick) for HAL_GetTick
    stm32f7xx_hal_i2c.o(i.HAL_I2C_Mem_Write_IT) refers to stm32f7xx_hal_i2c.o(i.I2C_RequestMemoryWrite) for I2C_RequestMemoryWrite
    stm32f7xx_hal_i2c.o(i.HAL_I2C_Mem_Write_IT) refers to stm32f7xx_hal_i2c.o(i.I2C_TransferConfig) for I2C_TransferConfig
    stm32f7xx_hal_i2c.o(i.HAL_I2C_Mem_Write_IT) refers to stm32f7xx_hal_i2c.o(i.I2C_Enable_IRQ) for I2C_Enable_IRQ
    stm32f7xx_hal_i2c.o(i.HAL_I2C_Mem_Write_IT) refers to stm32f7xx_hal_i2c.o(i.I2C_Master_ISR_IT) for I2C_Master_ISR_IT
    stm32f7xx_hal_i2c.o(i.HAL_I2C_Slave_Receive) refers to stm32f7xx_hal.o(i.HAL_GetTick) for HAL_GetTick
    stm32f7xx_hal_i2c.o(i.HAL_I2C_Slave_Receive) refers to stm32f7xx_hal_i2c.o(i.I2C_WaitOnFlagUntilTimeout) for I2C_WaitOnFlagUntilTimeout
    stm32f7xx_hal_i2c.o(i.HAL_I2C_Slave_Receive) refers to stm32f7xx_hal_i2c.o(i.I2C_WaitOnRXNEFlagUntilTimeout) for I2C_WaitOnRXNEFlagUntilTimeout
    stm32f7xx_hal_i2c.o(i.HAL_I2C_Slave_Receive) refers to stm32f7xx_hal_i2c.o(i.I2C_WaitOnSTOPFlagUntilTimeout) for I2C_WaitOnSTOPFlagUntilTimeout
    stm32f7xx_hal_i2c.o(i.HAL_I2C_Slave_Receive_DMA) refers to stm32f7xx_hal_dma.o(i.HAL_DMA_Start_IT) for HAL_DMA_Start_IT
    stm32f7xx_hal_i2c.o(i.HAL_I2C_Slave_Receive_DMA) refers to stm32f7xx_hal_i2c.o(i.I2C_Enable_IRQ) for I2C_Enable_IRQ
    stm32f7xx_hal_i2c.o(i.HAL_I2C_Slave_Receive_DMA) refers to stm32f7xx_hal_i2c.o(i.I2C_Slave_ISR_DMA) for I2C_Slave_ISR_DMA
    stm32f7xx_hal_i2c.o(i.HAL_I2C_Slave_Receive_DMA) refers to stm32f7xx_hal_i2c.o(i.I2C_DMASlaveReceiveCplt) for I2C_DMASlaveReceiveCplt
    stm32f7xx_hal_i2c.o(i.HAL_I2C_Slave_Receive_DMA) refers to stm32f7xx_hal_i2c.o(i.I2C_DMAError) for I2C_DMAError
    stm32f7xx_hal_i2c.o(i.HAL_I2C_Slave_Receive_IT) refers to stm32f7xx_hal_i2c.o(i.I2C_Enable_IRQ) for I2C_Enable_IRQ
    stm32f7xx_hal_i2c.o(i.HAL_I2C_Slave_Receive_IT) refers to stm32f7xx_hal_i2c.o(i.I2C_Slave_ISR_IT) for I2C_Slave_ISR_IT
    stm32f7xx_hal_i2c.o(i.HAL_I2C_Slave_Sequential_Receive_IT) refers to stm32f7xx_hal_i2c.o(i.I2C_Disable_IRQ) for I2C_Disable_IRQ
    stm32f7xx_hal_i2c.o(i.HAL_I2C_Slave_Sequential_Receive_IT) refers to stm32f7xx_hal_i2c.o(i.I2C_Enable_IRQ) for I2C_Enable_IRQ
    stm32f7xx_hal_i2c.o(i.HAL_I2C_Slave_Sequential_Receive_IT) refers to stm32f7xx_hal_i2c.o(i.I2C_Slave_ISR_IT) for I2C_Slave_ISR_IT
    stm32f7xx_hal_i2c.o(i.HAL_I2C_Slave_Sequential_Transmit_IT) refers to stm32f7xx_hal_i2c.o(i.I2C_Disable_IRQ) for I2C_Disable_IRQ
    stm32f7xx_hal_i2c.o(i.HAL_I2C_Slave_Sequential_Transmit_IT) refers to stm32f7xx_hal_i2c.o(i.I2C_Enable_IRQ) for I2C_Enable_IRQ
    stm32f7xx_hal_i2c.o(i.HAL_I2C_Slave_Sequential_Transmit_IT) refers to stm32f7xx_hal_i2c.o(i.I2C_Slave_ISR_IT) for I2C_Slave_ISR_IT
    stm32f7xx_hal_i2c.o(i.HAL_I2C_Slave_Transmit) refers to stm32f7xx_hal.o(i.HAL_GetTick) for HAL_GetTick
    stm32f7xx_hal_i2c.o(i.HAL_I2C_Slave_Transmit) refers to stm32f7xx_hal_i2c.o(i.I2C_WaitOnFlagUntilTimeout) for I2C_WaitOnFlagUntilTimeout
    stm32f7xx_hal_i2c.o(i.HAL_I2C_Slave_Transmit) refers to stm32f7xx_hal_i2c.o(i.I2C_WaitOnTXISFlagUntilTimeout) for I2C_WaitOnTXISFlagUntilTimeout
    stm32f7xx_hal_i2c.o(i.HAL_I2C_Slave_Transmit) refers to stm32f7xx_hal_i2c.o(i.I2C_WaitOnSTOPFlagUntilTimeout) for I2C_WaitOnSTOPFlagUntilTimeout
    stm32f7xx_hal_i2c.o(i.HAL_I2C_Slave_Transmit_DMA) refers to stm32f7xx_hal_dma.o(i.HAL_DMA_Start_IT) for HAL_DMA_Start_IT
    stm32f7xx_hal_i2c.o(i.HAL_I2C_Slave_Transmit_DMA) refers to stm32f7xx_hal_i2c.o(i.I2C_Enable_IRQ) for I2C_Enable_IRQ
    stm32f7xx_hal_i2c.o(i.HAL_I2C_Slave_Transmit_DMA) refers to stm32f7xx_hal_i2c.o(i.I2C_Slave_ISR_DMA) for I2C_Slave_ISR_DMA
    stm32f7xx_hal_i2c.o(i.HAL_I2C_Slave_Transmit_DMA) refers to stm32f7xx_hal_i2c.o(i.I2C_DMASlaveTransmitCplt) for I2C_DMASlaveTransmitCplt
    stm32f7xx_hal_i2c.o(i.HAL_I2C_Slave_Transmit_DMA) refers to stm32f7xx_hal_i2c.o(i.I2C_DMAError) for I2C_DMAError
    stm32f7xx_hal_i2c.o(i.HAL_I2C_Slave_Transmit_IT) refers to stm32f7xx_hal_i2c.o(i.I2C_Enable_IRQ) for I2C_Enable_IRQ
    stm32f7xx_hal_i2c.o(i.HAL_I2C_Slave_Transmit_IT) refers to stm32f7xx_hal_i2c.o(i.I2C_Slave_ISR_IT) for I2C_Slave_ISR_IT
    stm32f7xx_hal_i2c.o(i.I2C_DMAAbort) refers to stm32f7xx_hal_i2c.o(i.HAL_I2C_AbortCpltCallback) for HAL_I2C_AbortCpltCallback
    stm32f7xx_hal_i2c.o(i.I2C_DMAAbort) refers to stm32f7xx_hal_i2c.o(i.HAL_I2C_ErrorCallback) for HAL_I2C_ErrorCallback
    stm32f7xx_hal_i2c.o(i.I2C_DMAError) refers to stm32f7xx_hal_i2c.o(i.I2C_ITError) for I2C_ITError
    stm32f7xx_hal_i2c.o(i.I2C_DMAMasterReceiveCplt) refers to stm32f7xx_hal_i2c.o(i.I2C_Enable_IRQ) for I2C_Enable_IRQ
    stm32f7xx_hal_i2c.o(i.I2C_DMAMasterReceiveCplt) refers to stm32f7xx_hal_dma.o(i.HAL_DMA_Start_IT) for HAL_DMA_Start_IT
    stm32f7xx_hal_i2c.o(i.I2C_DMAMasterTransmitCplt) refers to stm32f7xx_hal_i2c.o(i.I2C_Enable_IRQ) for I2C_Enable_IRQ
    stm32f7xx_hal_i2c.o(i.I2C_DMAMasterTransmitCplt) refers to stm32f7xx_hal_dma.o(i.HAL_DMA_Start_IT) for HAL_DMA_Start_IT
    stm32f7xx_hal_i2c.o(i.I2C_Enable_IRQ) refers to stm32f7xx_hal_i2c.o(i.I2C_Master_ISR_DMA) for I2C_Master_ISR_DMA
    stm32f7xx_hal_i2c.o(i.I2C_Enable_IRQ) refers to stm32f7xx_hal_i2c.o(i.I2C_Slave_ISR_DMA) for I2C_Slave_ISR_DMA
    stm32f7xx_hal_i2c.o(i.I2C_ITAddrCplt) refers to stm32f7xx_hal_i2c.o(i.HAL_I2C_AddrCallback) for HAL_I2C_AddrCallback
    stm32f7xx_hal_i2c.o(i.I2C_ITAddrCplt) refers to stm32f7xx_hal_i2c.o(i.I2C_Disable_IRQ) for I2C_Disable_IRQ
    stm32f7xx_hal_i2c.o(i.I2C_ITError) refers to stm32f7xx_hal_i2c.o(i.I2C_Disable_IRQ) for I2C_Disable_IRQ
    stm32f7xx_hal_i2c.o(i.I2C_ITError) refers to stm32f7xx_hal_dma.o(i.HAL_DMA_Abort_IT) for HAL_DMA_Abort_IT
    stm32f7xx_hal_i2c.o(i.I2C_ITError) refers to stm32f7xx_hal_i2c.o(i.HAL_I2C_AbortCpltCallback) for HAL_I2C_AbortCpltCallback
    stm32f7xx_hal_i2c.o(i.I2C_ITError) refers to stm32f7xx_hal_i2c.o(i.HAL_I2C_ErrorCallback) for HAL_I2C_ErrorCallback
    stm32f7xx_hal_i2c.o(i.I2C_ITError) refers to stm32f7xx_hal_i2c.o(i.I2C_Slave_ISR_IT) for I2C_Slave_ISR_IT
    stm32f7xx_hal_i2c.o(i.I2C_ITError) refers to stm32f7xx_hal_i2c.o(i.I2C_DMAAbort) for I2C_DMAAbort
    stm32f7xx_hal_i2c.o(i.I2C_ITListenCplt) refers to stm32f7xx_hal_i2c.o(i.I2C_Disable_IRQ) for I2C_Disable_IRQ
    stm32f7xx_hal_i2c.o(i.I2C_ITListenCplt) refers to stm32f7xx_hal_i2c.o(i.HAL_I2C_ListenCpltCallback) for HAL_I2C_ListenCpltCallback
    stm32f7xx_hal_i2c.o(i.I2C_ITMasterCplt) refers to stm32f7xx_hal_i2c.o(i.I2C_Flush_TXDR) for I2C_Flush_TXDR
    stm32f7xx_hal_i2c.o(i.I2C_ITMasterCplt) refers to stm32f7xx_hal_i2c.o(i.I2C_Disable_IRQ) for I2C_Disable_IRQ
    stm32f7xx_hal_i2c.o(i.I2C_ITMasterCplt) refers to stm32f7xx_hal_i2c.o(i.I2C_ITError) for I2C_ITError
    stm32f7xx_hal_i2c.o(i.I2C_ITMasterCplt) refers to stm32f7xx_hal_i2c.o(i.HAL_I2C_MemTxCpltCallback) for HAL_I2C_MemTxCpltCallback
    stm32f7xx_hal_i2c.o(i.I2C_ITMasterCplt) refers to stm32f7xx_hal_i2c.o(i.HAL_I2C_MasterTxCpltCallback) for HAL_I2C_MasterTxCpltCallback
    stm32f7xx_hal_i2c.o(i.I2C_ITMasterCplt) refers to stm32f7xx_hal_i2c.o(i.HAL_I2C_MemRxCpltCallback) for HAL_I2C_MemRxCpltCallback
    stm32f7xx_hal_i2c.o(i.I2C_ITMasterCplt) refers to stm32f7xx_hal_i2c.o(i.HAL_I2C_MasterRxCpltCallback) for HAL_I2C_MasterRxCpltCallback
    stm32f7xx_hal_i2c.o(i.I2C_ITMasterSequentialCplt) refers to stm32f7xx_hal_i2c.o(i.I2C_Disable_IRQ) for I2C_Disable_IRQ
    stm32f7xx_hal_i2c.o(i.I2C_ITMasterSequentialCplt) refers to stm32f7xx_hal_i2c.o(i.HAL_I2C_MasterTxCpltCallback) for HAL_I2C_MasterTxCpltCallback
    stm32f7xx_hal_i2c.o(i.I2C_ITMasterSequentialCplt) refers to stm32f7xx_hal_i2c.o(i.HAL_I2C_MasterRxCpltCallback) for HAL_I2C_MasterRxCpltCallback
    stm32f7xx_hal_i2c.o(i.I2C_ITSlaveCplt) refers to stm32f7xx_hal_i2c.o(i.I2C_Disable_IRQ) for I2C_Disable_IRQ
    stm32f7xx_hal_i2c.o(i.I2C_ITSlaveCplt) refers to stm32f7xx_hal_i2c.o(i.I2C_Flush_TXDR) for I2C_Flush_TXDR
    stm32f7xx_hal_i2c.o(i.I2C_ITSlaveCplt) refers to stm32f7xx_hal_i2c.o(i.I2C_ITError) for I2C_ITError
    stm32f7xx_hal_i2c.o(i.I2C_ITSlaveCplt) refers to stm32f7xx_hal_i2c.o(i.HAL_I2C_ListenCpltCallback) for HAL_I2C_ListenCpltCallback
    stm32f7xx_hal_i2c.o(i.I2C_ITSlaveCplt) refers to stm32f7xx_hal_i2c.o(i.HAL_I2C_SlaveRxCpltCallback) for HAL_I2C_SlaveRxCpltCallback
    stm32f7xx_hal_i2c.o(i.I2C_ITSlaveCplt) refers to stm32f7xx_hal_i2c.o(i.HAL_I2C_SlaveTxCpltCallback) for HAL_I2C_SlaveTxCpltCallback
    stm32f7xx_hal_i2c.o(i.I2C_ITSlaveSequentialCplt) refers to stm32f7xx_hal_i2c.o(i.I2C_Disable_IRQ) for I2C_Disable_IRQ
    stm32f7xx_hal_i2c.o(i.I2C_ITSlaveSequentialCplt) refers to stm32f7xx_hal_i2c.o(i.HAL_I2C_SlaveTxCpltCallback) for HAL_I2C_SlaveTxCpltCallback
    stm32f7xx_hal_i2c.o(i.I2C_ITSlaveSequentialCplt) refers to stm32f7xx_hal_i2c.o(i.HAL_I2C_SlaveRxCpltCallback) for HAL_I2C_SlaveRxCpltCallback
    stm32f7xx_hal_i2c.o(i.I2C_IsAcknowledgeFailed) refers to stm32f7xx_hal.o(i.HAL_GetTick) for HAL_GetTick
    stm32f7xx_hal_i2c.o(i.I2C_IsAcknowledgeFailed) refers to stm32f7xx_hal_i2c.o(i.I2C_Flush_TXDR) for I2C_Flush_TXDR
    stm32f7xx_hal_i2c.o(i.I2C_Master_ISR_DMA) refers to stm32f7xx_hal_i2c.o(i.I2C_Enable_IRQ) for I2C_Enable_IRQ
    stm32f7xx_hal_i2c.o(i.I2C_Master_ISR_DMA) refers to stm32f7xx_hal_i2c.o(i.I2C_Flush_TXDR) for I2C_Flush_TXDR
    stm32f7xx_hal_i2c.o(i.I2C_Master_ISR_DMA) refers to stm32f7xx_hal_i2c.o(i.I2C_TransferConfig) for I2C_TransferConfig
    stm32f7xx_hal_i2c.o(i.I2C_Master_ISR_DMA) refers to stm32f7xx_hal_i2c.o(i.I2C_ITError) for I2C_ITError
    stm32f7xx_hal_i2c.o(i.I2C_Master_ISR_DMA) refers to stm32f7xx_hal_i2c.o(i.I2C_ITMasterCplt) for I2C_ITMasterCplt
    stm32f7xx_hal_i2c.o(i.I2C_Master_ISR_IT) refers to stm32f7xx_hal_i2c.o(i.I2C_Flush_TXDR) for I2C_Flush_TXDR
    stm32f7xx_hal_i2c.o(i.I2C_Master_ISR_IT) refers to stm32f7xx_hal_i2c.o(i.I2C_TransferConfig) for I2C_TransferConfig
    stm32f7xx_hal_i2c.o(i.I2C_Master_ISR_IT) refers to stm32f7xx_hal_i2c.o(i.I2C_ITMasterSequentialCplt) for I2C_ITMasterSequentialCplt
    stm32f7xx_hal_i2c.o(i.I2C_Master_ISR_IT) refers to stm32f7xx_hal_i2c.o(i.I2C_ITError) for I2C_ITError
    stm32f7xx_hal_i2c.o(i.I2C_Master_ISR_IT) refers to stm32f7xx_hal_i2c.o(i.I2C_ITMasterCplt) for I2C_ITMasterCplt
    stm32f7xx_hal_i2c.o(i.I2C_RequestMemoryRead) refers to stm32f7xx_hal_i2c.o(i.I2C_TransferConfig) for I2C_TransferConfig
    stm32f7xx_hal_i2c.o(i.I2C_RequestMemoryRead) refers to stm32f7xx_hal_i2c.o(i.I2C_WaitOnTXISFlagUntilTimeout) for I2C_WaitOnTXISFlagUntilTimeout
    stm32f7xx_hal_i2c.o(i.I2C_RequestMemoryRead) refers to stm32f7xx_hal_i2c.o(i.I2C_WaitOnFlagUntilTimeout) for I2C_WaitOnFlagUntilTimeout
    stm32f7xx_hal_i2c.o(i.I2C_RequestMemoryWrite) refers to stm32f7xx_hal_i2c.o(i.I2C_TransferConfig) for I2C_TransferConfig
    stm32f7xx_hal_i2c.o(i.I2C_RequestMemoryWrite) refers to stm32f7xx_hal_i2c.o(i.I2C_WaitOnTXISFlagUntilTimeout) for I2C_WaitOnTXISFlagUntilTimeout
    stm32f7xx_hal_i2c.o(i.I2C_RequestMemoryWrite) refers to stm32f7xx_hal_i2c.o(i.I2C_WaitOnFlagUntilTimeout) for I2C_WaitOnFlagUntilTimeout
    stm32f7xx_hal_i2c.o(i.I2C_Slave_ISR_DMA) refers to stm32f7xx_hal_i2c.o(i.I2C_ITSlaveCplt) for I2C_ITSlaveCplt
    stm32f7xx_hal_i2c.o(i.I2C_Slave_ISR_IT) refers to stm32f7xx_hal_i2c.o(i.I2C_ITListenCplt) for I2C_ITListenCplt
    stm32f7xx_hal_i2c.o(i.I2C_Slave_ISR_IT) refers to stm32f7xx_hal_i2c.o(i.I2C_Flush_TXDR) for I2C_Flush_TXDR
    stm32f7xx_hal_i2c.o(i.I2C_Slave_ISR_IT) refers to stm32f7xx_hal_i2c.o(i.I2C_ITSlaveSequentialCplt) for I2C_ITSlaveSequentialCplt
    stm32f7xx_hal_i2c.o(i.I2C_Slave_ISR_IT) refers to stm32f7xx_hal_i2c.o(i.I2C_ITAddrCplt) for I2C_ITAddrCplt
    stm32f7xx_hal_i2c.o(i.I2C_Slave_ISR_IT) refers to stm32f7xx_hal_i2c.o(i.I2C_ITSlaveCplt) for I2C_ITSlaveCplt
    stm32f7xx_hal_i2c.o(i.I2C_WaitOnFlagUntilTimeout) refers to stm32f7xx_hal.o(i.HAL_GetTick) for HAL_GetTick
    stm32f7xx_hal_i2c.o(i.I2C_WaitOnRXNEFlagUntilTimeout) refers to stm32f7xx_hal_i2c.o(i.I2C_IsAcknowledgeFailed) for I2C_IsAcknowledgeFailed
    stm32f7xx_hal_i2c.o(i.I2C_WaitOnRXNEFlagUntilTimeout) refers to stm32f7xx_hal.o(i.HAL_GetTick) for HAL_GetTick
    stm32f7xx_hal_i2c.o(i.I2C_WaitOnSTOPFlagUntilTimeout) refers to stm32f7xx_hal_i2c.o(i.I2C_IsAcknowledgeFailed) for I2C_IsAcknowledgeFailed
    stm32f7xx_hal_i2c.o(i.I2C_WaitOnSTOPFlagUntilTimeout) refers to stm32f7xx_hal.o(i.HAL_GetTick) for HAL_GetTick
    stm32f7xx_hal_i2c.o(i.I2C_WaitOnTXISFlagUntilTimeout) refers to stm32f7xx_hal_i2c.o(i.I2C_IsAcknowledgeFailed) for I2C_IsAcknowledgeFailed
    stm32f7xx_hal_i2c.o(i.I2C_WaitOnTXISFlagUntilTimeout) refers to stm32f7xx_hal.o(i.HAL_GetTick) for HAL_GetTick
    stm32f7xx_hal_ltdc.o(i.HAL_LTDC_ConfigLayer) refers to rt_memcpy_w.o(.text) for __aeabi_memcpy4
    stm32f7xx_hal_ltdc.o(i.HAL_LTDC_ConfigLayer) refers to stm32f7xx_hal_ltdc.o(i.LTDC_SetConfig) for LTDC_SetConfig
    stm32f7xx_hal_ltdc.o(i.HAL_LTDC_ConfigLayer_NoReload) refers to rt_memcpy_w.o(.text) for __aeabi_memcpy4
    stm32f7xx_hal_ltdc.o(i.HAL_LTDC_ConfigLayer_NoReload) refers to stm32f7xx_hal_ltdc.o(i.LTDC_SetConfig) for LTDC_SetConfig
    stm32f7xx_hal_ltdc.o(i.HAL_LTDC_DeInit) refers to stm32f7xx_hal_ltdc.o(i.HAL_LTDC_MspDeInit) for HAL_LTDC_MspDeInit
    stm32f7xx_hal_ltdc.o(i.HAL_LTDC_IRQHandler) refers to stm32f7xx_hal_ltdc.o(i.HAL_LTDC_ErrorCallback) for HAL_LTDC_ErrorCallback
    stm32f7xx_hal_ltdc.o(i.HAL_LTDC_IRQHandler) refers to stm32f7xx_hal_ltdc.o(i.HAL_LTDC_LineEventCallback) for HAL_LTDC_LineEventCallback
    stm32f7xx_hal_ltdc.o(i.HAL_LTDC_IRQHandler) refers to stm32f7xx_hal_ltdc.o(i.HAL_LTDC_ReloadEventCallback) for HAL_LTDC_ReloadEventCallback
    stm32f7xx_hal_ltdc.o(i.HAL_LTDC_Init) refers to stm32f7xx_hal_ltdc.o(i.HAL_LTDC_MspInit) for HAL_LTDC_MspInit
    stm32f7xx_hal_ltdc.o(i.HAL_LTDC_SetAddress) refers to stm32f7xx_hal_ltdc.o(i.LTDC_SetConfig) for LTDC_SetConfig
    stm32f7xx_hal_ltdc.o(i.HAL_LTDC_SetAddress_NoReload) refers to stm32f7xx_hal_ltdc.o(i.LTDC_SetConfig) for LTDC_SetConfig
    stm32f7xx_hal_ltdc.o(i.HAL_LTDC_SetAlpha) refers to stm32f7xx_hal_ltdc.o(i.LTDC_SetConfig) for LTDC_SetConfig
    stm32f7xx_hal_ltdc.o(i.HAL_LTDC_SetAlpha_NoReload) refers to stm32f7xx_hal_ltdc.o(i.LTDC_SetConfig) for LTDC_SetConfig
    stm32f7xx_hal_ltdc.o(i.HAL_LTDC_SetPixelFormat) refers to stm32f7xx_hal_ltdc.o(i.LTDC_SetConfig) for LTDC_SetConfig
    stm32f7xx_hal_ltdc.o(i.HAL_LTDC_SetPixelFormat_NoReload) refers to stm32f7xx_hal_ltdc.o(i.LTDC_SetConfig) for LTDC_SetConfig
    stm32f7xx_hal_ltdc.o(i.HAL_LTDC_SetWindowPosition) refers to stm32f7xx_hal_ltdc.o(i.LTDC_SetConfig) for LTDC_SetConfig
    stm32f7xx_hal_ltdc.o(i.HAL_LTDC_SetWindowPosition_NoReload) refers to stm32f7xx_hal_ltdc.o(i.LTDC_SetConfig) for LTDC_SetConfig
    stm32f7xx_hal_ltdc.o(i.HAL_LTDC_SetWindowSize) refers to stm32f7xx_hal_ltdc.o(i.LTDC_SetConfig) for LTDC_SetConfig
    stm32f7xx_hal_ltdc.o(i.HAL_LTDC_SetWindowSize_NoReload) refers to stm32f7xx_hal_ltdc.o(i.LTDC_SetConfig) for LTDC_SetConfig
    stm32f7xx_hal_nor.o(i.HAL_NOR_DeInit) refers to stm32f7xx_hal_nor.o(i.HAL_NOR_MspDeInit) for HAL_NOR_MspDeInit
    stm32f7xx_hal_nor.o(i.HAL_NOR_DeInit) refers to stm32f7xx_ll_fmc.o(i.FMC_NORSRAM_DeInit) for FMC_NORSRAM_DeInit
    stm32f7xx_hal_nor.o(i.HAL_NOR_Erase_Block) refers to stm32f7xx_hal_nor.o(.data) for uwNORMemoryDataWidth
    stm32f7xx_hal_nor.o(i.HAL_NOR_Erase_Chip) refers to stm32f7xx_hal_nor.o(.data) for uwNORMemoryDataWidth
    stm32f7xx_hal_nor.o(i.HAL_NOR_GetStatus) refers to stm32f7xx_hal_nor.o(i.HAL_NOR_MspWait) for HAL_NOR_MspWait
    stm32f7xx_hal_nor.o(i.HAL_NOR_GetStatus) refers to stm32f7xx_hal.o(i.HAL_GetTick) for HAL_GetTick
    stm32f7xx_hal_nor.o(i.HAL_NOR_Init) refers to stm32f7xx_hal_nor.o(i.HAL_NOR_MspInit) for HAL_NOR_MspInit
    stm32f7xx_hal_nor.o(i.HAL_NOR_Init) refers to stm32f7xx_ll_fmc.o(i.FMC_NORSRAM_Init) for FMC_NORSRAM_Init
    stm32f7xx_hal_nor.o(i.HAL_NOR_Init) refers to stm32f7xx_ll_fmc.o(i.FMC_NORSRAM_Timing_Init) for FMC_NORSRAM_Timing_Init
    stm32f7xx_hal_nor.o(i.HAL_NOR_Init) refers to stm32f7xx_ll_fmc.o(i.FMC_NORSRAM_Extended_Timing_Init) for FMC_NORSRAM_Extended_Timing_Init
    stm32f7xx_hal_nor.o(i.HAL_NOR_Init) refers to stm32f7xx_hal_nor.o(.data) for uwNORMemoryDataWidth
    stm32f7xx_hal_nor.o(i.HAL_NOR_Program) refers to stm32f7xx_hal_nor.o(.data) for uwNORMemoryDataWidth
    stm32f7xx_hal_nor.o(i.HAL_NOR_ProgramBuffer) refers to stm32f7xx_hal_nor.o(.data) for uwNORMemoryDataWidth
    stm32f7xx_hal_nor.o(i.HAL_NOR_Read) refers to stm32f7xx_hal_nor.o(.data) for uwNORMemoryDataWidth
    stm32f7xx_hal_nor.o(i.HAL_NOR_ReadBuffer) refers to stm32f7xx_hal_nor.o(.data) for uwNORMemoryDataWidth
    stm32f7xx_hal_nor.o(i.HAL_NOR_Read_CFI) refers to stm32f7xx_hal_nor.o(.data) for uwNORMemoryDataWidth
    stm32f7xx_hal_nor.o(i.HAL_NOR_Read_ID) refers to stm32f7xx_hal_nor.o(.data) for uwNORMemoryDataWidth
    stm32f7xx_hal_nor.o(i.HAL_NOR_WriteOperation_Disable) refers to stm32f7xx_ll_fmc.o(i.FMC_NORSRAM_WriteOperation_Disable) for FMC_NORSRAM_WriteOperation_Disable
    stm32f7xx_hal_nor.o(i.HAL_NOR_WriteOperation_Enable) refers to stm32f7xx_ll_fmc.o(i.FMC_NORSRAM_WriteOperation_Enable) for FMC_NORSRAM_WriteOperation_Enable
    stm32f7xx_hal_pwr.o(i.HAL_PWR_PVD_IRQHandler) refers to stm32f7xx_hal_pwr.o(i.HAL_PWR_PVDCallback) for HAL_PWR_PVDCallback
    stm32f7xx_hal_pwr_ex.o(i.HAL_PWREx_ControlVoltageScaling) refers to stm32f7xx_hal.o(i.HAL_GetTick) for HAL_GetTick
    stm32f7xx_hal_pwr_ex.o(i.HAL_PWREx_DisableBkUpReg) refers to stm32f7xx_hal.o(i.HAL_GetTick) for HAL_GetTick
    stm32f7xx_hal_pwr_ex.o(i.HAL_PWREx_DisableOverDrive) refers to stm32f7xx_hal.o(i.HAL_GetTick) for HAL_GetTick
    stm32f7xx_hal_pwr_ex.o(i.HAL_PWREx_EnableBkUpReg) refers to stm32f7xx_hal.o(i.HAL_GetTick) for HAL_GetTick
    stm32f7xx_hal_pwr_ex.o(i.HAL_PWREx_EnableOverDrive) refers to stm32f7xx_hal.o(i.HAL_GetTick) for HAL_GetTick
    stm32f7xx_hal_pwr_ex.o(i.HAL_PWREx_EnterUnderDriveSTOPMode) refers to stm32f7xx_hal.o(i.HAL_GetTick) for HAL_GetTick
    stm32f7xx_hal_qspi.o(i.HAL_QSPI_Abort) refers to stm32f7xx_hal.o(i.HAL_GetTick) for HAL_GetTick
    stm32f7xx_hal_qspi.o(i.HAL_QSPI_Abort) refers to stm32f7xx_hal_dma.o(i.HAL_DMA_Abort) for HAL_DMA_Abort
    stm32f7xx_hal_qspi.o(i.HAL_QSPI_Abort) refers to stm32f7xx_hal_qspi.o(i.QSPI_WaitFlagStateUntilTimeout) for QSPI_WaitFlagStateUntilTimeout
    stm32f7xx_hal_qspi.o(i.HAL_QSPI_Abort_IT) refers to stm32f7xx_hal_dma.o(i.HAL_DMA_Abort_IT) for HAL_DMA_Abort_IT
    stm32f7xx_hal_qspi.o(i.HAL_QSPI_Abort_IT) refers to stm32f7xx_hal_qspi.o(i.QSPI_DMAAbortCplt) for QSPI_DMAAbortCplt
    stm32f7xx_hal_qspi.o(i.HAL_QSPI_AutoPolling) refers to stm32f7xx_hal.o(i.HAL_GetTick) for HAL_GetTick
    stm32f7xx_hal_qspi.o(i.HAL_QSPI_AutoPolling) refers to stm32f7xx_hal_qspi.o(i.QSPI_WaitFlagStateUntilTimeout) for QSPI_WaitFlagStateUntilTimeout
    stm32f7xx_hal_qspi.o(i.HAL_QSPI_AutoPolling) refers to stm32f7xx_hal_qspi.o(i.QSPI_Config) for QSPI_Config
    stm32f7xx_hal_qspi.o(i.HAL_QSPI_AutoPolling_IT) refers to stm32f7xx_hal.o(i.HAL_GetTick) for HAL_GetTick
    stm32f7xx_hal_qspi.o(i.HAL_QSPI_AutoPolling_IT) refers to stm32f7xx_hal_qspi.o(i.QSPI_WaitFlagStateUntilTimeout) for QSPI_WaitFlagStateUntilTimeout
    stm32f7xx_hal_qspi.o(i.HAL_QSPI_AutoPolling_IT) refers to stm32f7xx_hal_qspi.o(i.QSPI_Config) for QSPI_Config
    stm32f7xx_hal_qspi.o(i.HAL_QSPI_Command) refers to stm32f7xx_hal.o(i.HAL_GetTick) for HAL_GetTick
    stm32f7xx_hal_qspi.o(i.HAL_QSPI_Command) refers to stm32f7xx_hal_qspi.o(i.QSPI_WaitFlagStateUntilTimeout) for QSPI_WaitFlagStateUntilTimeout
    stm32f7xx_hal_qspi.o(i.HAL_QSPI_Command) refers to stm32f7xx_hal_qspi.o(i.QSPI_Config) for QSPI_Config
    stm32f7xx_hal_qspi.o(i.HAL_QSPI_Command_IT) refers to stm32f7xx_hal.o(i.HAL_GetTick) for HAL_GetTick
    stm32f7xx_hal_qspi.o(i.HAL_QSPI_Command_IT) refers to stm32f7xx_hal_qspi.o(i.QSPI_WaitFlagStateUntilTimeout) for QSPI_WaitFlagStateUntilTimeout
    stm32f7xx_hal_qspi.o(i.HAL_QSPI_Command_IT) refers to stm32f7xx_hal_qspi.o(i.QSPI_Config) for QSPI_Config
    stm32f7xx_hal_qspi.o(i.HAL_QSPI_DeInit) refers to stm32f7xx_hal_qspi.o(i.HAL_QSPI_MspDeInit) for HAL_QSPI_MspDeInit
    stm32f7xx_hal_qspi.o(i.HAL_QSPI_IRQHandler) refers to stm32f7xx_hal_qspi.o(i.HAL_QSPI_FifoThresholdCallback) for HAL_QSPI_FifoThresholdCallback
    stm32f7xx_hal_qspi.o(i.HAL_QSPI_IRQHandler) refers to stm32f7xx_hal_qspi.o(i.HAL_QSPI_Abort_IT) for HAL_QSPI_Abort_IT
    stm32f7xx_hal_qspi.o(i.HAL_QSPI_IRQHandler) refers to stm32f7xx_hal_qspi.o(i.HAL_QSPI_TxCpltCallback) for HAL_QSPI_TxCpltCallback
    stm32f7xx_hal_qspi.o(i.HAL_QSPI_IRQHandler) refers to stm32f7xx_hal_qspi.o(i.HAL_QSPI_RxCpltCallback) for HAL_QSPI_RxCpltCallback
    stm32f7xx_hal_qspi.o(i.HAL_QSPI_IRQHandler) refers to stm32f7xx_hal_qspi.o(i.HAL_QSPI_CmdCpltCallback) for HAL_QSPI_CmdCpltCallback
    stm32f7xx_hal_qspi.o(i.HAL_QSPI_IRQHandler) refers to stm32f7xx_hal_qspi.o(i.HAL_QSPI_AbortCpltCallback) for HAL_QSPI_AbortCpltCallback
    stm32f7xx_hal_qspi.o(i.HAL_QSPI_IRQHandler) refers to stm32f7xx_hal_qspi.o(i.HAL_QSPI_ErrorCallback) for HAL_QSPI_ErrorCallback
    stm32f7xx_hal_qspi.o(i.HAL_QSPI_IRQHandler) refers to stm32f7xx_hal_qspi.o(i.HAL_QSPI_StatusMatchCallback) for HAL_QSPI_StatusMatchCallback
    stm32f7xx_hal_qspi.o(i.HAL_QSPI_IRQHandler) refers to stm32f7xx_hal_dma.o(i.HAL_DMA_Abort_IT) for HAL_DMA_Abort_IT
    stm32f7xx_hal_qspi.o(i.HAL_QSPI_IRQHandler) refers to stm32f7xx_hal_qspi.o(i.HAL_QSPI_TimeOutCallback) for HAL_QSPI_TimeOutCallback
    stm32f7xx_hal_qspi.o(i.HAL_QSPI_IRQHandler) refers to stm32f7xx_hal_qspi.o(i.QSPI_DMAAbortCplt) for QSPI_DMAAbortCplt
    stm32f7xx_hal_qspi.o(i.HAL_QSPI_Init) refers to stm32f7xx_hal.o(i.HAL_GetTick) for HAL_GetTick
    stm32f7xx_hal_qspi.o(i.HAL_QSPI_Init) refers to stm32f7xx_hal_qspi.o(i.HAL_QSPI_MspInit) for HAL_QSPI_MspInit
    stm32f7xx_hal_qspi.o(i.HAL_QSPI_Init) refers to stm32f7xx_hal_qspi.o(i.HAL_QSPI_SetTimeout) for HAL_QSPI_SetTimeout
    stm32f7xx_hal_qspi.o(i.HAL_QSPI_Init) refers to stm32f7xx_hal_qspi.o(i.QSPI_WaitFlagStateUntilTimeout) for QSPI_WaitFlagStateUntilTimeout
    stm32f7xx_hal_qspi.o(i.HAL_QSPI_MemoryMapped) refers to stm32f7xx_hal.o(i.HAL_GetTick) for HAL_GetTick
    stm32f7xx_hal_qspi.o(i.HAL_QSPI_MemoryMapped) refers to stm32f7xx_hal_qspi.o(i.QSPI_WaitFlagStateUntilTimeout) for QSPI_WaitFlagStateUntilTimeout
    stm32f7xx_hal_qspi.o(i.HAL_QSPI_MemoryMapped) refers to stm32f7xx_hal_qspi.o(i.QSPI_Config) for QSPI_Config
    stm32f7xx_hal_qspi.o(i.HAL_QSPI_Receive) refers to stm32f7xx_hal.o(i.HAL_GetTick) for HAL_GetTick
    stm32f7xx_hal_qspi.o(i.HAL_QSPI_Receive) refers to stm32f7xx_hal_qspi.o(i.QSPI_WaitFlagStateUntilTimeout) for QSPI_WaitFlagStateUntilTimeout
    stm32f7xx_hal_qspi.o(i.HAL_QSPI_Receive) refers to stm32f7xx_hal_qspi.o(i.HAL_QSPI_Abort) for HAL_QSPI_Abort
    stm32f7xx_hal_qspi.o(i.HAL_QSPI_Receive_DMA) refers to stm32f7xx_hal_dma.o(i.HAL_DMA_Start_IT) for HAL_DMA_Start_IT
    stm32f7xx_hal_qspi.o(i.HAL_QSPI_Receive_DMA) refers to stm32f7xx_hal_qspi.o(i.QSPI_DMARxCplt) for QSPI_DMARxCplt
    stm32f7xx_hal_qspi.o(i.HAL_QSPI_Receive_DMA) refers to stm32f7xx_hal_qspi.o(i.QSPI_DMARxHalfCplt) for QSPI_DMARxHalfCplt
    stm32f7xx_hal_qspi.o(i.HAL_QSPI_Receive_DMA) refers to stm32f7xx_hal_qspi.o(i.QSPI_DMAError) for QSPI_DMAError
    stm32f7xx_hal_qspi.o(i.HAL_QSPI_Transmit) refers to stm32f7xx_hal.o(i.HAL_GetTick) for HAL_GetTick
    stm32f7xx_hal_qspi.o(i.HAL_QSPI_Transmit) refers to stm32f7xx_hal_qspi.o(i.QSPI_WaitFlagStateUntilTimeout) for QSPI_WaitFlagStateUntilTimeout
    stm32f7xx_hal_qspi.o(i.HAL_QSPI_Transmit) refers to stm32f7xx_hal_qspi.o(i.HAL_QSPI_Abort) for HAL_QSPI_Abort
    stm32f7xx_hal_qspi.o(i.HAL_QSPI_Transmit_DMA) refers to stm32f7xx_hal_dma.o(i.HAL_DMA_Start_IT) for HAL_DMA_Start_IT
    stm32f7xx_hal_qspi.o(i.HAL_QSPI_Transmit_DMA) refers to stm32f7xx_hal_qspi.o(i.QSPI_DMATxCplt) for QSPI_DMATxCplt
    stm32f7xx_hal_qspi.o(i.HAL_QSPI_Transmit_DMA) refers to stm32f7xx_hal_qspi.o(i.QSPI_DMATxHalfCplt) for QSPI_DMATxHalfCplt
    stm32f7xx_hal_qspi.o(i.HAL_QSPI_Transmit_DMA) refers to stm32f7xx_hal_qspi.o(i.QSPI_DMAError) for QSPI_DMAError
    stm32f7xx_hal_qspi.o(i.QSPI_DMAAbortCplt) refers to stm32f7xx_hal_qspi.o(i.HAL_QSPI_ErrorCallback) for HAL_QSPI_ErrorCallback
    stm32f7xx_hal_qspi.o(i.QSPI_DMAError) refers to stm32f7xx_hal_dma.o(i.HAL_DMA_GetError) for HAL_DMA_GetError
    stm32f7xx_hal_qspi.o(i.QSPI_DMAError) refers to stm32f7xx_hal_qspi.o(i.HAL_QSPI_Abort_IT) for HAL_QSPI_Abort_IT
    stm32f7xx_hal_qspi.o(i.QSPI_DMARxHalfCplt) refers to stm32f7xx_hal_qspi.o(i.HAL_QSPI_RxHalfCpltCallback) for HAL_QSPI_RxHalfCpltCallback
    stm32f7xx_hal_qspi.o(i.QSPI_DMATxHalfCplt) refers to stm32f7xx_hal_qspi.o(i.HAL_QSPI_TxHalfCpltCallback) for HAL_QSPI_TxHalfCpltCallback
    stm32f7xx_hal_qspi.o(i.QSPI_WaitFlagStateUntilTimeout) refers to stm32f7xx_hal.o(i.HAL_GetTick) for HAL_GetTick
    stm32f7xx_hal_rcc.o(i.HAL_RCC_ClockConfig) refers to stm32f7xx_hal.o(i.HAL_GetTick) for HAL_GetTick
    stm32f7xx_hal_rcc.o(i.HAL_RCC_ClockConfig) refers to stm32f7xx_hal_rcc.o(i.HAL_RCC_GetSysClockFreq) for HAL_RCC_GetSysClockFreq
    stm32f7xx_hal_rcc.o(i.HAL_RCC_ClockConfig) refers to stm32f7xx_hal.o(i.HAL_InitTick) for HAL_InitTick
    stm32f7xx_hal_rcc.o(i.HAL_RCC_ClockConfig) refers to system_stm32f7xx.o(.constdata) for AHBPrescTable
    stm32f7xx_hal_rcc.o(i.HAL_RCC_ClockConfig) refers to system_stm32f7xx.o(.data) for SystemCoreClock
    stm32f7xx_hal_rcc.o(i.HAL_RCC_DeInit) refers to system_stm32f7xx.o(.data) for SystemCoreClock
    stm32f7xx_hal_rcc.o(i.HAL_RCC_GetHCLKFreq) refers to system_stm32f7xx.o(.data) for SystemCoreClock
    stm32f7xx_hal_rcc.o(i.HAL_RCC_GetPCLK1Freq) refers to stm32f7xx_hal_rcc.o(i.HAL_RCC_GetHCLKFreq) for HAL_RCC_GetHCLKFreq
    stm32f7xx_hal_rcc.o(i.HAL_RCC_GetPCLK1Freq) refers to system_stm32f7xx.o(.constdata) for APBPrescTable
    stm32f7xx_hal_rcc.o(i.HAL_RCC_GetPCLK2Freq) refers to stm32f7xx_hal_rcc.o(i.HAL_RCC_GetHCLKFreq) for HAL_RCC_GetHCLKFreq
    stm32f7xx_hal_rcc.o(i.HAL_RCC_GetPCLK2Freq) refers to system_stm32f7xx.o(.constdata) for APBPrescTable
    stm32f7xx_hal_rcc.o(i.HAL_RCC_MCOConfig) refers to stm32f7xx_hal_gpio.o(i.HAL_GPIO_Init) for HAL_GPIO_Init
    stm32f7xx_hal_rcc.o(i.HAL_RCC_NMI_IRQHandler) refers to stm32f7xx_hal_rcc.o(i.HAL_RCC_CSSCallback) for HAL_RCC_CSSCallback
    stm32f7xx_hal_rcc.o(i.HAL_RCC_OscConfig) refers to stm32f7xx_hal.o(i.HAL_GetTick) for HAL_GetTick
    stm32f7xx_hal_rcc_ex.o(i.HAL_RCCEx_PeriphCLKConfig) refers to stm32f7xx_hal.o(i.HAL_GetTick) for HAL_GetTick
    stm32f7xx_hal_rng.o(i.HAL_RNG_DeInit) refers to stm32f7xx_hal_rng.o(i.HAL_RNG_MspDeInit) for HAL_RNG_MspDeInit
    stm32f7xx_hal_rng.o(i.HAL_RNG_GenerateRandomNumber) refers to stm32f7xx_hal.o(i.HAL_GetTick) for HAL_GetTick
    stm32f7xx_hal_rng.o(i.HAL_RNG_GetRandomNumber) refers to stm32f7xx_hal_rng.o(i.HAL_RNG_GenerateRandomNumber) for HAL_RNG_GenerateRandomNumber
    stm32f7xx_hal_rng.o(i.HAL_RNG_IRQHandler) refers to stm32f7xx_hal_rng.o(i.HAL_RNG_ErrorCallback) for HAL_RNG_ErrorCallback
    stm32f7xx_hal_rng.o(i.HAL_RNG_IRQHandler) refers to stm32f7xx_hal_rng.o(i.HAL_RNG_ReadyDataCallback) for HAL_RNG_ReadyDataCallback
    stm32f7xx_hal_rng.o(i.HAL_RNG_Init) refers to stm32f7xx_hal_rng.o(i.HAL_RNG_MspInit) for HAL_RNG_MspInit
    stm32f7xx_hal_rtc.o(i.HAL_RTC_AlarmIRQHandler) refers to stm32f7xx_hal_rtc.o(i.HAL_RTC_AlarmAEventCallback) for HAL_RTC_AlarmAEventCallback
    stm32f7xx_hal_rtc.o(i.HAL_RTC_AlarmIRQHandler) refers to stm32f7xx_hal_rtc_ex.o(i.HAL_RTCEx_AlarmBEventCallback) for HAL_RTCEx_AlarmBEventCallback
    stm32f7xx_hal_rtc.o(i.HAL_RTC_DeInit) refers to stm32f7xx_hal_rtc.o(i.RTC_EnterInitMode) for RTC_EnterInitMode
    stm32f7xx_hal_rtc.o(i.HAL_RTC_DeInit) refers to stm32f7xx_hal.o(i.HAL_GetTick) for HAL_GetTick
    stm32f7xx_hal_rtc.o(i.HAL_RTC_DeInit) refers to stm32f7xx_hal_rtc.o(i.HAL_RTC_WaitForSynchro) for HAL_RTC_WaitForSynchro
    stm32f7xx_hal_rtc.o(i.HAL_RTC_DeInit) refers to rtc.o(i.HAL_RTC_MspDeInit) for HAL_RTC_MspDeInit
    stm32f7xx_hal_rtc.o(i.HAL_RTC_DeactivateAlarm) refers to stm32f7xx_hal.o(i.HAL_GetTick) for HAL_GetTick
    stm32f7xx_hal_rtc.o(i.HAL_RTC_GetAlarm) refers to stm32f7xx_hal_rtc.o(i.RTC_Bcd2ToByte) for RTC_Bcd2ToByte
    stm32f7xx_hal_rtc.o(i.HAL_RTC_GetDate) refers to stm32f7xx_hal_rtc.o(i.RTC_Bcd2ToByte) for RTC_Bcd2ToByte
    stm32f7xx_hal_rtc.o(i.HAL_RTC_GetTime) refers to stm32f7xx_hal_rtc.o(i.RTC_Bcd2ToByte) for RTC_Bcd2ToByte
    stm32f7xx_hal_rtc.o(i.HAL_RTC_Init) refers to rtc.o(i.HAL_RTC_MspInit) for HAL_RTC_MspInit
    stm32f7xx_hal_rtc.o(i.HAL_RTC_Init) refers to stm32f7xx_hal_rtc.o(i.RTC_EnterInitMode) for RTC_EnterInitMode
    stm32f7xx_hal_rtc.o(i.HAL_RTC_PollForAlarmAEvent) refers to stm32f7xx_hal.o(i.HAL_GetTick) for HAL_GetTick
    stm32f7xx_hal_rtc.o(i.HAL_RTC_SetAlarm) refers to stm32f7xx_hal_rtc.o(i.RTC_ByteToBcd2) for RTC_ByteToBcd2
    stm32f7xx_hal_rtc.o(i.HAL_RTC_SetAlarm) refers to stm32f7xx_hal_rtc.o(i.RTC_Bcd2ToByte) for RTC_Bcd2ToByte
    stm32f7xx_hal_rtc.o(i.HAL_RTC_SetAlarm) refers to stm32f7xx_hal.o(i.HAL_GetTick) for HAL_GetTick
    stm32f7xx_hal_rtc.o(i.HAL_RTC_SetAlarm_IT) refers to stm32f7xx_hal_rtc.o(i.RTC_ByteToBcd2) for RTC_ByteToBcd2
    stm32f7xx_hal_rtc.o(i.HAL_RTC_SetAlarm_IT) refers to stm32f7xx_hal_rtc.o(i.RTC_Bcd2ToByte) for RTC_Bcd2ToByte
    stm32f7xx_hal_rtc.o(i.HAL_RTC_SetAlarm_IT) refers to stm32f7xx_hal.o(i.HAL_GetTick) for HAL_GetTick
    stm32f7xx_hal_rtc.o(i.HAL_RTC_SetDate) refers to stm32f7xx_hal_rtc.o(i.RTC_ByteToBcd2) for RTC_ByteToBcd2
    stm32f7xx_hal_rtc.o(i.HAL_RTC_SetDate) refers to stm32f7xx_hal_rtc.o(i.RTC_Bcd2ToByte) for RTC_Bcd2ToByte
    stm32f7xx_hal_rtc.o(i.HAL_RTC_SetDate) refers to stm32f7xx_hal_rtc.o(i.RTC_EnterInitMode) for RTC_EnterInitMode
    stm32f7xx_hal_rtc.o(i.HAL_RTC_SetDate) refers to stm32f7xx_hal_rtc.o(i.HAL_RTC_WaitForSynchro) for HAL_RTC_WaitForSynchro
    stm32f7xx_hal_rtc.o(i.HAL_RTC_SetTime) refers to stm32f7xx_hal_rtc.o(i.RTC_ByteToBcd2) for RTC_ByteToBcd2
    stm32f7xx_hal_rtc.o(i.HAL_RTC_SetTime) refers to stm32f7xx_hal_rtc.o(i.RTC_Bcd2ToByte) for RTC_Bcd2ToByte
    stm32f7xx_hal_rtc.o(i.HAL_RTC_SetTime) refers to stm32f7xx_hal_rtc.o(i.RTC_EnterInitMode) for RTC_EnterInitMode
    stm32f7xx_hal_rtc.o(i.HAL_RTC_SetTime) refers to stm32f7xx_hal_rtc.o(i.HAL_RTC_WaitForSynchro) for HAL_RTC_WaitForSynchro
    stm32f7xx_hal_rtc.o(i.HAL_RTC_WaitForSynchro) refers to stm32f7xx_hal.o(i.HAL_GetTick) for HAL_GetTick
    stm32f7xx_hal_rtc.o(i.RTC_EnterInitMode) refers to stm32f7xx_hal.o(i.HAL_GetTick) for HAL_GetTick
    stm32f7xx_hal_rtc_ex.o(i.HAL_RTCEx_DeactivateRefClock) refers to stm32f7xx_hal_rtc.o(i.RTC_EnterInitMode) for RTC_EnterInitMode
    stm32f7xx_hal_rtc_ex.o(i.HAL_RTCEx_DeactivateWakeUpTimer) refers to stm32f7xx_hal.o(i.HAL_GetTick) for HAL_GetTick
    stm32f7xx_hal_rtc_ex.o(i.HAL_RTCEx_GetTimeStamp) refers to stm32f7xx_hal_rtc.o(i.RTC_Bcd2ToByte) for RTC_Bcd2ToByte
    stm32f7xx_hal_rtc_ex.o(i.HAL_RTCEx_PollForAlarmBEvent) refers to stm32f7xx_hal.o(i.HAL_GetTick) for HAL_GetTick
    stm32f7xx_hal_rtc_ex.o(i.HAL_RTCEx_PollForTamper1Event) refers to stm32f7xx_hal.o(i.HAL_GetTick) for HAL_GetTick
    stm32f7xx_hal_rtc_ex.o(i.HAL_RTCEx_PollForTamper2Event) refers to stm32f7xx_hal.o(i.HAL_GetTick) for HAL_GetTick
    stm32f7xx_hal_rtc_ex.o(i.HAL_RTCEx_PollForTamper3Event) refers to stm32f7xx_hal.o(i.HAL_GetTick) for HAL_GetTick
    stm32f7xx_hal_rtc_ex.o(i.HAL_RTCEx_PollForTimeStampEvent) refers to stm32f7xx_hal.o(i.HAL_GetTick) for HAL_GetTick
    stm32f7xx_hal_rtc_ex.o(i.HAL_RTCEx_PollForWakeUpTimerEvent) refers to stm32f7xx_hal.o(i.HAL_GetTick) for HAL_GetTick
    stm32f7xx_hal_rtc_ex.o(i.HAL_RTCEx_SetRefClock) refers to stm32f7xx_hal_rtc.o(i.RTC_EnterInitMode) for RTC_EnterInitMode
    stm32f7xx_hal_rtc_ex.o(i.HAL_RTCEx_SetSmoothCalib) refers to stm32f7xx_hal.o(i.HAL_GetTick) for HAL_GetTick
    stm32f7xx_hal_rtc_ex.o(i.HAL_RTCEx_SetSynchroShift) refers to stm32f7xx_hal.o(i.HAL_GetTick) for HAL_GetTick
    stm32f7xx_hal_rtc_ex.o(i.HAL_RTCEx_SetSynchroShift) refers to stm32f7xx_hal_rtc.o(i.HAL_RTC_WaitForSynchro) for HAL_RTC_WaitForSynchro
    stm32f7xx_hal_rtc_ex.o(i.HAL_RTCEx_SetWakeUpTimer) refers to stm32f7xx_hal.o(i.HAL_GetTick) for HAL_GetTick
    stm32f7xx_hal_rtc_ex.o(i.HAL_RTCEx_SetWakeUpTimer_IT) refers to stm32f7xx_hal.o(i.HAL_GetTick) for HAL_GetTick
    stm32f7xx_hal_rtc_ex.o(i.HAL_RTCEx_TamperTimeStampIRQHandler) refers to stm32f7xx_hal_rtc_ex.o(i.HAL_RTCEx_TimeStampEventCallback) for HAL_RTCEx_TimeStampEventCallback
    stm32f7xx_hal_rtc_ex.o(i.HAL_RTCEx_TamperTimeStampIRQHandler) refers to stm32f7xx_hal_rtc_ex.o(i.HAL_RTCEx_Tamper1EventCallback) for HAL_RTCEx_Tamper1EventCallback
    stm32f7xx_hal_rtc_ex.o(i.HAL_RTCEx_TamperTimeStampIRQHandler) refers to stm32f7xx_hal_rtc_ex.o(i.HAL_RTCEx_Tamper2EventCallback) for HAL_RTCEx_Tamper2EventCallback
    stm32f7xx_hal_rtc_ex.o(i.HAL_RTCEx_TamperTimeStampIRQHandler) refers to stm32f7xx_hal_rtc_ex.o(i.HAL_RTCEx_Tamper3EventCallback) for HAL_RTCEx_Tamper3EventCallback
    stm32f7xx_hal_rtc_ex.o(i.HAL_RTCEx_WakeUpTimerIRQHandler) refers to stm32f7xx_hal_rtc_ex.o(i.HAL_RTCEx_WakeUpTimerEventCallback) for HAL_RTCEx_WakeUpTimerEventCallback
    stm32f7xx_hal_sai.o(i.HAL_SAI_Abort) refers to stm32f7xx_hal_dma.o(i.HAL_DMA_Abort) for HAL_DMA_Abort
    stm32f7xx_hal_sai.o(i.HAL_SAI_Abort) refers to stm32f7xx_hal_sai.o(i.SAI_Disable) for SAI_Disable
    stm32f7xx_hal_sai.o(i.HAL_SAI_DMAStop) refers to stm32f7xx_hal_dma.o(i.HAL_DMA_Abort) for HAL_DMA_Abort
    stm32f7xx_hal_sai.o(i.HAL_SAI_DMAStop) refers to stm32f7xx_hal_sai.o(i.SAI_Disable) for SAI_Disable
    stm32f7xx_hal_sai.o(i.HAL_SAI_DeInit) refers to stm32f7xx_hal_sai.o(i.SAI_Disable) for SAI_Disable
    stm32f7xx_hal_sai.o(i.HAL_SAI_DeInit) refers to stm32f7xx_hal_sai.o(i.HAL_SAI_MspDeInit) for HAL_SAI_MspDeInit
    stm32f7xx_hal_sai.o(i.HAL_SAI_IRQHandler) refers to stm32f7xx_hal_sai.o(i.HAL_SAI_ErrorCallback) for HAL_SAI_ErrorCallback
    stm32f7xx_hal_sai.o(i.HAL_SAI_IRQHandler) refers to stm32f7xx_hal_dma.o(i.HAL_DMA_Abort_IT) for HAL_DMA_Abort_IT
    stm32f7xx_hal_sai.o(i.HAL_SAI_IRQHandler) refers to stm32f7xx_hal_sai.o(i.HAL_SAI_Abort) for HAL_SAI_Abort
    stm32f7xx_hal_sai.o(i.HAL_SAI_IRQHandler) refers to stm32f7xx_hal_sai.o(i.SAI_DMAAbort) for SAI_DMAAbort
    stm32f7xx_hal_sai.o(i.HAL_SAI_Init) refers to stm32f7xx_hal_sai.o(i.HAL_SAI_MspInit) for HAL_SAI_MspInit
    stm32f7xx_hal_sai.o(i.HAL_SAI_Init) refers to stm32f7xx_hal_sai.o(i.SAI_Disable) for SAI_Disable
    stm32f7xx_hal_sai.o(i.HAL_SAI_Init) refers to stm32f7xx_hal_rcc_ex.o(i.HAL_RCCEx_GetPeriphCLKFreq) for HAL_RCCEx_GetPeriphCLKFreq
    stm32f7xx_hal_sai.o(i.HAL_SAI_InitProtocol) refers to stm32f7xx_hal_sai.o(i.SAI_InitI2S) for SAI_InitI2S
    stm32f7xx_hal_sai.o(i.HAL_SAI_InitProtocol) refers to stm32f7xx_hal_sai.o(i.SAI_InitPCM) for SAI_InitPCM
    stm32f7xx_hal_sai.o(i.HAL_SAI_InitProtocol) refers to stm32f7xx_hal_sai.o(i.HAL_SAI_Init) for HAL_SAI_Init
    stm32f7xx_hal_sai.o(i.HAL_SAI_Receive) refers to stm32f7xx_hal.o(i.HAL_GetTick) for HAL_GetTick
    stm32f7xx_hal_sai.o(i.HAL_SAI_Receive) refers to stm32f7xx_hal_sai.o(i.SAI_Disable) for SAI_Disable
    stm32f7xx_hal_sai.o(i.HAL_SAI_Receive_DMA) refers to stm32f7xx_hal_dma.o(i.HAL_DMA_Start_IT) for HAL_DMA_Start_IT
    stm32f7xx_hal_sai.o(i.HAL_SAI_Receive_DMA) refers to stm32f7xx_hal_sai.o(i.SAI_InterruptFlag) for SAI_InterruptFlag
    stm32f7xx_hal_sai.o(i.HAL_SAI_Receive_DMA) refers to stm32f7xx_hal_sai.o(i.SAI_DMARxHalfCplt) for SAI_DMARxHalfCplt
    stm32f7xx_hal_sai.o(i.HAL_SAI_Receive_DMA) refers to stm32f7xx_hal_sai.o(i.SAI_DMARxCplt) for SAI_DMARxCplt
    stm32f7xx_hal_sai.o(i.HAL_SAI_Receive_DMA) refers to stm32f7xx_hal_sai.o(i.SAI_DMAError) for SAI_DMAError
    stm32f7xx_hal_sai.o(i.HAL_SAI_Receive_IT) refers to stm32f7xx_hal_sai.o(i.SAI_InterruptFlag) for SAI_InterruptFlag
    stm32f7xx_hal_sai.o(i.HAL_SAI_Receive_IT) refers to stm32f7xx_hal_sai.o(i.SAI_Receive_IT8Bit) for SAI_Receive_IT8Bit
    stm32f7xx_hal_sai.o(i.HAL_SAI_Receive_IT) refers to stm32f7xx_hal_sai.o(i.SAI_Receive_IT16Bit) for SAI_Receive_IT16Bit
    stm32f7xx_hal_sai.o(i.HAL_SAI_Receive_IT) refers to stm32f7xx_hal_sai.o(i.SAI_Receive_IT32Bit) for SAI_Receive_IT32Bit
    stm32f7xx_hal_sai.o(i.HAL_SAI_Transmit) refers to stm32f7xx_hal.o(i.HAL_GetTick) for HAL_GetTick
    stm32f7xx_hal_sai.o(i.HAL_SAI_Transmit) refers to stm32f7xx_hal_sai.o(i.SAI_FillFifo) for SAI_FillFifo
    stm32f7xx_hal_sai.o(i.HAL_SAI_Transmit) refers to stm32f7xx_hal_sai.o(i.SAI_Disable) for SAI_Disable
    stm32f7xx_hal_sai.o(i.HAL_SAI_Transmit_DMA) refers to stm32f7xx_hal_dma.o(i.HAL_DMA_Start_IT) for HAL_DMA_Start_IT
    stm32f7xx_hal_sai.o(i.HAL_SAI_Transmit_DMA) refers to stm32f7xx_hal_sai.o(i.SAI_InterruptFlag) for SAI_InterruptFlag
    stm32f7xx_hal_sai.o(i.HAL_SAI_Transmit_DMA) refers to stm32f7xx_hal_sai.o(i.SAI_DMATxHalfCplt) for SAI_DMATxHalfCplt
    stm32f7xx_hal_sai.o(i.HAL_SAI_Transmit_DMA) refers to stm32f7xx_hal_sai.o(i.SAI_DMATxCplt) for SAI_DMATxCplt
    stm32f7xx_hal_sai.o(i.HAL_SAI_Transmit_DMA) refers to stm32f7xx_hal_sai.o(i.SAI_DMAError) for SAI_DMAError
    stm32f7xx_hal_sai.o(i.HAL_SAI_Transmit_IT) refers to stm32f7xx_hal_sai.o(i.SAI_FillFifo) for SAI_FillFifo
    stm32f7xx_hal_sai.o(i.HAL_SAI_Transmit_IT) refers to stm32f7xx_hal_sai.o(i.SAI_InterruptFlag) for SAI_InterruptFlag
    stm32f7xx_hal_sai.o(i.HAL_SAI_Transmit_IT) refers to stm32f7xx_hal_sai.o(i.SAI_Transmit_IT8Bit) for SAI_Transmit_IT8Bit
    stm32f7xx_hal_sai.o(i.HAL_SAI_Transmit_IT) refers to stm32f7xx_hal_sai.o(i.SAI_Transmit_IT16Bit) for SAI_Transmit_IT16Bit
    stm32f7xx_hal_sai.o(i.HAL_SAI_Transmit_IT) refers to stm32f7xx_hal_sai.o(i.SAI_Transmit_IT32Bit) for SAI_Transmit_IT32Bit
    stm32f7xx_hal_sai.o(i.SAI_DMAAbort) refers to stm32f7xx_hal_sai.o(i.SAI_Disable) for SAI_Disable
    stm32f7xx_hal_sai.o(i.SAI_DMAAbort) refers to stm32f7xx_hal_sai.o(i.HAL_SAI_ErrorCallback) for HAL_SAI_ErrorCallback
    stm32f7xx_hal_sai.o(i.SAI_DMAError) refers to stm32f7xx_hal_sai.o(i.SAI_Disable) for SAI_Disable
    stm32f7xx_hal_sai.o(i.SAI_DMAError) refers to stm32f7xx_hal_sai.o(i.HAL_SAI_ErrorCallback) for HAL_SAI_ErrorCallback
    stm32f7xx_hal_sai.o(i.SAI_DMARxCplt) refers to stm32f7xx_hal_sai.o(i.SAI_InterruptFlag) for SAI_InterruptFlag
    stm32f7xx_hal_sai.o(i.SAI_DMARxCplt) refers to stm32f7xx_hal_sai.o(i.HAL_SAI_RxCpltCallback) for HAL_SAI_RxCpltCallback
    stm32f7xx_hal_sai.o(i.SAI_DMARxHalfCplt) refers to stm32f7xx_hal_sai.o(i.HAL_SAI_RxHalfCpltCallback) for HAL_SAI_RxHalfCpltCallback
    stm32f7xx_hal_sai.o(i.SAI_DMATxCplt) refers to stm32f7xx_hal_sai.o(i.SAI_InterruptFlag) for SAI_InterruptFlag
    stm32f7xx_hal_sai.o(i.SAI_DMATxCplt) refers to stm32f7xx_hal_sai.o(i.HAL_SAI_TxCpltCallback) for HAL_SAI_TxCpltCallback
    stm32f7xx_hal_sai.o(i.SAI_DMATxHalfCplt) refers to stm32f7xx_hal_sai.o(i.HAL_SAI_TxHalfCpltCallback) for HAL_SAI_TxHalfCpltCallback
    stm32f7xx_hal_sai.o(i.SAI_Disable) refers to system_stm32f7xx.o(.data) for SystemCoreClock
    stm32f7xx_hal_sai.o(i.SAI_Receive_IT16Bit) refers to stm32f7xx_hal_sai.o(i.SAI_InterruptFlag) for SAI_InterruptFlag
    stm32f7xx_hal_sai.o(i.SAI_Receive_IT16Bit) refers to stm32f7xx_hal_sai.o(i.HAL_SAI_RxCpltCallback) for HAL_SAI_RxCpltCallback
    stm32f7xx_hal_sai.o(i.SAI_Receive_IT32Bit) refers to stm32f7xx_hal_sai.o(i.SAI_InterruptFlag) for SAI_InterruptFlag
    stm32f7xx_hal_sai.o(i.SAI_Receive_IT32Bit) refers to stm32f7xx_hal_sai.o(i.HAL_SAI_RxCpltCallback) for HAL_SAI_RxCpltCallback
    stm32f7xx_hal_sai.o(i.SAI_Receive_IT8Bit) refers to stm32f7xx_hal_sai.o(i.SAI_InterruptFlag) for SAI_InterruptFlag
    stm32f7xx_hal_sai.o(i.SAI_Receive_IT8Bit) refers to stm32f7xx_hal_sai.o(i.HAL_SAI_RxCpltCallback) for HAL_SAI_RxCpltCallback
    stm32f7xx_hal_sai.o(i.SAI_Transmit_IT16Bit) refers to stm32f7xx_hal_sai.o(i.SAI_InterruptFlag) for SAI_InterruptFlag
    stm32f7xx_hal_sai.o(i.SAI_Transmit_IT16Bit) refers to stm32f7xx_hal_sai.o(i.HAL_SAI_TxCpltCallback) for HAL_SAI_TxCpltCallback
    stm32f7xx_hal_sai.o(i.SAI_Transmit_IT32Bit) refers to stm32f7xx_hal_sai.o(i.SAI_InterruptFlag) for SAI_InterruptFlag
    stm32f7xx_hal_sai.o(i.SAI_Transmit_IT32Bit) refers to stm32f7xx_hal_sai.o(i.HAL_SAI_TxCpltCallback) for HAL_SAI_TxCpltCallback
    stm32f7xx_hal_sai.o(i.SAI_Transmit_IT8Bit) refers to stm32f7xx_hal_sai.o(i.SAI_InterruptFlag) for SAI_InterruptFlag
    stm32f7xx_hal_sai.o(i.SAI_Transmit_IT8Bit) refers to stm32f7xx_hal_sai.o(i.HAL_SAI_TxCpltCallback) for HAL_SAI_TxCpltCallback
    stm32f7xx_hal_sd.o(i.HAL_SD_CheckReadOperation) refers to stm32f7xx_hal_sd.o(i.HAL_SD_StopTransfer) for HAL_SD_StopTransfer
    stm32f7xx_hal_sd.o(i.HAL_SD_CheckWriteOperation) refers to stm32f7xx_hal_sd.o(i.HAL_SD_StopTransfer) for HAL_SD_StopTransfer
    stm32f7xx_hal_sd.o(i.HAL_SD_CheckWriteOperation) refers to stm32f7xx_hal_sd.o(i.HAL_SD_GetStatus) for HAL_SD_GetStatus
    stm32f7xx_hal_sd.o(i.HAL_SD_DeInit) refers to stm32f7xx_hal_sd.o(i.SD_PowerOFF) for SD_PowerOFF
    stm32f7xx_hal_sd.o(i.HAL_SD_DeInit) refers to stm32f7xx_hal_sd.o(i.HAL_SD_MspDeInit) for HAL_SD_MspDeInit
    stm32f7xx_hal_sd.o(i.HAL_SD_Erase) refers to stm32f7xx_ll_sdmmc.o(i.SDMMC_GetResponse) for SDMMC_GetResponse
    stm32f7xx_hal_sd.o(i.HAL_SD_Erase) refers to lludivv7m.o(.text) for __aeabi_uldivmod
    stm32f7xx_hal_sd.o(i.HAL_SD_Erase) refers to stm32f7xx_ll_sdmmc.o(i.SDMMC_SendCommand) for SDMMC_SendCommand
    stm32f7xx_hal_sd.o(i.HAL_SD_Erase) refers to stm32f7xx_hal_sd.o(i.SD_CmdResp1Error) for SD_CmdResp1Error
    stm32f7xx_hal_sd.o(i.HAL_SD_Erase) refers to stm32f7xx_hal_sd.o(i.SD_IsCardProgramming) for SD_IsCardProgramming
    stm32f7xx_hal_sd.o(i.HAL_SD_GetCardStatus) refers to stm32f7xx_hal_sd.o(i.HAL_SD_SendSDStatus) for HAL_SD_SendSDStatus
    stm32f7xx_hal_sd.o(i.HAL_SD_GetStatus) refers to stm32f7xx_hal_sd.o(i.SD_GetState) for SD_GetState
    stm32f7xx_hal_sd.o(i.HAL_SD_HighSpeed) refers to rt_memclr_w.o(.text) for __aeabi_memclr4
    stm32f7xx_hal_sd.o(i.HAL_SD_HighSpeed) refers to stm32f7xx_hal_sd.o(i.SD_FindSCR) for SD_FindSCR
    stm32f7xx_hal_sd.o(i.HAL_SD_HighSpeed) refers to stm32f7xx_ll_sdmmc.o(i.SDMMC_SendCommand) for SDMMC_SendCommand
    stm32f7xx_hal_sd.o(i.HAL_SD_HighSpeed) refers to stm32f7xx_hal_sd.o(i.SD_CmdResp1Error) for SD_CmdResp1Error
    stm32f7xx_hal_sd.o(i.HAL_SD_HighSpeed) refers to stm32f7xx_ll_sdmmc.o(i.SDMMC_DataConfig) for SDMMC_DataConfig
    stm32f7xx_hal_sd.o(i.HAL_SD_HighSpeed) refers to stm32f7xx_ll_sdmmc.o(i.SDMMC_ReadFIFO) for SDMMC_ReadFIFO
    stm32f7xx_hal_sd.o(i.HAL_SD_IRQHandler) refers to stm32f7xx_hal_sd.o(i.HAL_SD_XferCpltCallback) for HAL_SD_XferCpltCallback
    stm32f7xx_hal_sd.o(i.HAL_SD_IRQHandler) refers to stm32f7xx_hal_sd.o(i.HAL_SD_XferErrorCallback) for HAL_SD_XferErrorCallback
    stm32f7xx_hal_sd.o(i.HAL_SD_Init) refers to stm32f7xx_hal_sd.o(i.HAL_SD_MspInit) for HAL_SD_MspInit
    stm32f7xx_hal_sd.o(i.HAL_SD_Init) refers to stm32f7xx_ll_sdmmc.o(i.SDMMC_Init) for SDMMC_Init
    stm32f7xx_hal_sd.o(i.HAL_SD_Init) refers to stm32f7xx_hal_sd.o(i.SD_PowerON) for SD_PowerON
    stm32f7xx_hal_sd.o(i.HAL_SD_Init) refers to stm32f7xx_hal_sd.o(i.SD_Initialize_Cards) for SD_Initialize_Cards
    stm32f7xx_hal_sd.o(i.HAL_SD_Init) refers to stm32f7xx_hal_sd.o(i.HAL_SD_Get_CardInfo) for HAL_SD_Get_CardInfo
    stm32f7xx_hal_sd.o(i.HAL_SD_Init) refers to stm32f7xx_hal_sd.o(i.SD_Select_Deselect) for SD_Select_Deselect
    stm32f7xx_hal_sd.o(i.HAL_SD_ReadBlocks) refers to lludivv7m.o(.text) for __aeabi_uldivmod
    stm32f7xx_hal_sd.o(i.HAL_SD_ReadBlocks) refers to stm32f7xx_ll_sdmmc.o(i.SDMMC_SendCommand) for SDMMC_SendCommand
    stm32f7xx_hal_sd.o(i.HAL_SD_ReadBlocks) refers to stm32f7xx_hal_sd.o(i.SD_CmdResp1Error) for SD_CmdResp1Error
    stm32f7xx_hal_sd.o(i.HAL_SD_ReadBlocks) refers to stm32f7xx_ll_sdmmc.o(i.SDMMC_DataConfig) for SDMMC_DataConfig
    stm32f7xx_hal_sd.o(i.HAL_SD_ReadBlocks) refers to stm32f7xx_ll_sdmmc.o(i.SDMMC_ReadFIFO) for SDMMC_ReadFIFO
    stm32f7xx_hal_sd.o(i.HAL_SD_ReadBlocks) refers to stm32f7xx_hal_sd.o(i.HAL_SD_StopTransfer) for HAL_SD_StopTransfer
    stm32f7xx_hal_sd.o(i.HAL_SD_ReadBlocks_DMA) refers to stm32f7xx_hal_dma.o(i.HAL_DMA_Start_IT) for HAL_DMA_Start_IT
    stm32f7xx_hal_sd.o(i.HAL_SD_ReadBlocks_DMA) refers to lludivv7m.o(.text) for __aeabi_uldivmod
    stm32f7xx_hal_sd.o(i.HAL_SD_ReadBlocks_DMA) refers to stm32f7xx_ll_sdmmc.o(i.SDMMC_SendCommand) for SDMMC_SendCommand
    stm32f7xx_hal_sd.o(i.HAL_SD_ReadBlocks_DMA) refers to stm32f7xx_hal_sd.o(i.SD_CmdResp1Error) for SD_CmdResp1Error
    stm32f7xx_hal_sd.o(i.HAL_SD_ReadBlocks_DMA) refers to stm32f7xx_ll_sdmmc.o(i.SDMMC_DataConfig) for SDMMC_DataConfig
    stm32f7xx_hal_sd.o(i.HAL_SD_ReadBlocks_DMA) refers to stm32f7xx_hal_sd.o(i.SD_DMA_RxCplt) for SD_DMA_RxCplt
    stm32f7xx_hal_sd.o(i.HAL_SD_ReadBlocks_DMA) refers to stm32f7xx_hal_sd.o(i.SD_DMA_RxError) for SD_DMA_RxError
    stm32f7xx_hal_sd.o(i.HAL_SD_SendSDStatus) refers to stm32f7xx_ll_sdmmc.o(i.SDMMC_GetResponse) for SDMMC_GetResponse
    stm32f7xx_hal_sd.o(i.HAL_SD_SendSDStatus) refers to stm32f7xx_ll_sdmmc.o(i.SDMMC_SendCommand) for SDMMC_SendCommand
    stm32f7xx_hal_sd.o(i.HAL_SD_SendSDStatus) refers to stm32f7xx_hal_sd.o(i.SD_CmdResp1Error) for SD_CmdResp1Error
    stm32f7xx_hal_sd.o(i.HAL_SD_SendSDStatus) refers to stm32f7xx_ll_sdmmc.o(i.SDMMC_DataConfig) for SDMMC_DataConfig
    stm32f7xx_hal_sd.o(i.HAL_SD_SendSDStatus) refers to stm32f7xx_ll_sdmmc.o(i.SDMMC_ReadFIFO) for SDMMC_ReadFIFO
    stm32f7xx_hal_sd.o(i.HAL_SD_StopTransfer) refers to stm32f7xx_ll_sdmmc.o(i.SDMMC_SendCommand) for SDMMC_SendCommand
    stm32f7xx_hal_sd.o(i.HAL_SD_StopTransfer) refers to stm32f7xx_hal_sd.o(i.SD_CmdResp1Error) for SD_CmdResp1Error
    stm32f7xx_hal_sd.o(i.HAL_SD_WideBusOperation_Config) refers to stm32f7xx_hal_sd.o(i.SD_WideBus_Enable) for SD_WideBus_Enable
    stm32f7xx_hal_sd.o(i.HAL_SD_WideBusOperation_Config) refers to stm32f7xx_hal_sd.o(i.SD_WideBus_Disable) for SD_WideBus_Disable
    stm32f7xx_hal_sd.o(i.HAL_SD_WideBusOperation_Config) refers to stm32f7xx_ll_sdmmc.o(i.SDMMC_Init) for SDMMC_Init
    stm32f7xx_hal_sd.o(i.HAL_SD_WriteBlocks) refers to lludivv7m.o(.text) for __aeabi_uldivmod
    stm32f7xx_hal_sd.o(i.HAL_SD_WriteBlocks) refers to stm32f7xx_ll_sdmmc.o(i.SDMMC_SendCommand) for SDMMC_SendCommand
    stm32f7xx_hal_sd.o(i.HAL_SD_WriteBlocks) refers to stm32f7xx_hal_sd.o(i.SD_CmdResp1Error) for SD_CmdResp1Error
    stm32f7xx_hal_sd.o(i.HAL_SD_WriteBlocks) refers to stm32f7xx_ll_sdmmc.o(i.SDMMC_DataConfig) for SDMMC_DataConfig
    stm32f7xx_hal_sd.o(i.HAL_SD_WriteBlocks) refers to stm32f7xx_ll_sdmmc.o(i.SDMMC_WriteFIFO) for SDMMC_WriteFIFO
    stm32f7xx_hal_sd.o(i.HAL_SD_WriteBlocks) refers to stm32f7xx_hal_sd.o(i.HAL_SD_StopTransfer) for HAL_SD_StopTransfer
    stm32f7xx_hal_sd.o(i.HAL_SD_WriteBlocks) refers to stm32f7xx_hal_sd.o(i.SD_IsCardProgramming) for SD_IsCardProgramming
    stm32f7xx_hal_sd.o(i.HAL_SD_WriteBlocks_DMA) refers to stm32f7xx_hal_dma.o(i.HAL_DMA_Start_IT) for HAL_DMA_Start_IT
    stm32f7xx_hal_sd.o(i.HAL_SD_WriteBlocks_DMA) refers to lludivv7m.o(.text) for __aeabi_uldivmod
    stm32f7xx_hal_sd.o(i.HAL_SD_WriteBlocks_DMA) refers to stm32f7xx_ll_sdmmc.o(i.SDMMC_SendCommand) for SDMMC_SendCommand
    stm32f7xx_hal_sd.o(i.HAL_SD_WriteBlocks_DMA) refers to stm32f7xx_hal_sd.o(i.SD_CmdResp1Error) for SD_CmdResp1Error
    stm32f7xx_hal_sd.o(i.HAL_SD_WriteBlocks_DMA) refers to stm32f7xx_ll_sdmmc.o(i.SDMMC_DataConfig) for SDMMC_DataConfig
    stm32f7xx_hal_sd.o(i.HAL_SD_WriteBlocks_DMA) refers to stm32f7xx_hal_sd.o(i.SD_DMA_TxCplt) for SD_DMA_TxCplt
    stm32f7xx_hal_sd.o(i.HAL_SD_WriteBlocks_DMA) refers to stm32f7xx_hal_sd.o(i.SD_DMA_TxError) for SD_DMA_TxError
    stm32f7xx_hal_sd.o(i.SD_CmdResp1Error) refers to stm32f7xx_ll_sdmmc.o(i.SDMMC_GetCommandResponse) for SDMMC_GetCommandResponse
    stm32f7xx_hal_sd.o(i.SD_CmdResp1Error) refers to stm32f7xx_ll_sdmmc.o(i.SDMMC_GetResponse) for SDMMC_GetResponse
    stm32f7xx_hal_sd.o(i.SD_CmdResp6Error) refers to stm32f7xx_ll_sdmmc.o(i.SDMMC_GetCommandResponse) for SDMMC_GetCommandResponse
    stm32f7xx_hal_sd.o(i.SD_CmdResp6Error) refers to stm32f7xx_ll_sdmmc.o(i.SDMMC_GetResponse) for SDMMC_GetResponse
    stm32f7xx_hal_sd.o(i.SD_DMA_RxCplt) refers to stm32f7xx_hal_dma.o(i.HAL_DMA_Abort) for HAL_DMA_Abort
    stm32f7xx_hal_sd.o(i.SD_DMA_RxCplt) refers to stm32f7xx_hal_sd.o(i.HAL_SD_DMA_RxCpltCallback) for HAL_SD_DMA_RxCpltCallback
    stm32f7xx_hal_sd.o(i.SD_DMA_RxError) refers to stm32f7xx_hal_sd.o(i.HAL_SD_DMA_RxErrorCallback) for HAL_SD_DMA_RxErrorCallback
    stm32f7xx_hal_sd.o(i.SD_DMA_TxCplt) refers to stm32f7xx_hal_dma.o(i.HAL_DMA_Abort) for HAL_DMA_Abort
    stm32f7xx_hal_sd.o(i.SD_DMA_TxCplt) refers to stm32f7xx_hal_sd.o(i.HAL_SD_DMA_TxCpltCallback) for HAL_SD_DMA_TxCpltCallback
    stm32f7xx_hal_sd.o(i.SD_DMA_TxError) refers to stm32f7xx_hal_sd.o(i.HAL_SD_DMA_TxErrorCallback) for HAL_SD_DMA_TxErrorCallback
    stm32f7xx_hal_sd.o(i.SD_FindSCR) refers to stm32f7xx_ll_sdmmc.o(i.SDMMC_SendCommand) for SDMMC_SendCommand
    stm32f7xx_hal_sd.o(i.SD_FindSCR) refers to stm32f7xx_hal_sd.o(i.SD_CmdResp1Error) for SD_CmdResp1Error
    stm32f7xx_hal_sd.o(i.SD_FindSCR) refers to stm32f7xx_ll_sdmmc.o(i.SDMMC_DataConfig) for SDMMC_DataConfig
    stm32f7xx_hal_sd.o(i.SD_FindSCR) refers to stm32f7xx_ll_sdmmc.o(i.SDMMC_ReadFIFO) for SDMMC_ReadFIFO
    stm32f7xx_hal_sd.o(i.SD_GetState) refers to stm32f7xx_hal_sd.o(i.SD_SendStatus) for SD_SendStatus
    stm32f7xx_hal_sd.o(i.SD_Initialize_Cards) refers to stm32f7xx_ll_sdmmc.o(i.SDMMC_GetPowerState) for SDMMC_GetPowerState
    stm32f7xx_hal_sd.o(i.SD_Initialize_Cards) refers to stm32f7xx_ll_sdmmc.o(i.SDMMC_SendCommand) for SDMMC_SendCommand
    stm32f7xx_hal_sd.o(i.SD_Initialize_Cards) refers to stm32f7xx_hal_sd.o(i.SD_CmdResp2Error) for SD_CmdResp2Error
    stm32f7xx_hal_sd.o(i.SD_Initialize_Cards) refers to stm32f7xx_ll_sdmmc.o(i.SDMMC_GetResponse) for SDMMC_GetResponse
    stm32f7xx_hal_sd.o(i.SD_Initialize_Cards) refers to stm32f7xx_hal_sd.o(i.SD_CmdResp6Error) for SD_CmdResp6Error
    stm32f7xx_hal_sd.o(i.SD_IsCardProgramming) refers to stm32f7xx_ll_sdmmc.o(i.SDMMC_SendCommand) for SDMMC_SendCommand
    stm32f7xx_hal_sd.o(i.SD_IsCardProgramming) refers to stm32f7xx_ll_sdmmc.o(i.SDMMC_GetCommandResponse) for SDMMC_GetCommandResponse
    stm32f7xx_hal_sd.o(i.SD_IsCardProgramming) refers to stm32f7xx_ll_sdmmc.o(i.SDMMC_GetResponse) for SDMMC_GetResponse
    stm32f7xx_hal_sd.o(i.SD_PowerOFF) refers to stm32f7xx_ll_sdmmc.o(i.SDMMC_PowerState_OFF) for SDMMC_PowerState_OFF
    stm32f7xx_hal_sd.o(i.SD_PowerON) refers to stm32f7xx_ll_sdmmc.o(i.SDMMC_PowerState_ON) for SDMMC_PowerState_ON
    stm32f7xx_hal_sd.o(i.SD_PowerON) refers to stm32f7xx_hal.o(i.HAL_Delay) for HAL_Delay
    stm32f7xx_hal_sd.o(i.SD_PowerON) refers to stm32f7xx_ll_sdmmc.o(i.SDMMC_SendCommand) for SDMMC_SendCommand
    stm32f7xx_hal_sd.o(i.SD_PowerON) refers to stm32f7xx_hal_sd.o(i.SD_CmdError) for SD_CmdError
    stm32f7xx_hal_sd.o(i.SD_PowerON) refers to stm32f7xx_hal_sd.o(i.SD_CmdResp7Error) for SD_CmdResp7Error
    stm32f7xx_hal_sd.o(i.SD_PowerON) refers to stm32f7xx_hal_sd.o(i.SD_CmdResp1Error) for SD_CmdResp1Error
    stm32f7xx_hal_sd.o(i.SD_PowerON) refers to stm32f7xx_hal_sd.o(i.SD_CmdResp3Error) for SD_CmdResp3Error
    stm32f7xx_hal_sd.o(i.SD_PowerON) refers to stm32f7xx_ll_sdmmc.o(i.SDMMC_GetResponse) for SDMMC_GetResponse
    stm32f7xx_hal_sd.o(i.SD_Select_Deselect) refers to stm32f7xx_ll_sdmmc.o(i.SDMMC_SendCommand) for SDMMC_SendCommand
    stm32f7xx_hal_sd.o(i.SD_Select_Deselect) refers to stm32f7xx_hal_sd.o(i.SD_CmdResp1Error) for SD_CmdResp1Error
    stm32f7xx_hal_sd.o(i.SD_SendStatus) refers to stm32f7xx_ll_sdmmc.o(i.SDMMC_SendCommand) for SDMMC_SendCommand
    stm32f7xx_hal_sd.o(i.SD_SendStatus) refers to stm32f7xx_hal_sd.o(i.SD_CmdResp1Error) for SD_CmdResp1Error
    stm32f7xx_hal_sd.o(i.SD_SendStatus) refers to stm32f7xx_ll_sdmmc.o(i.SDMMC_GetResponse) for SDMMC_GetResponse
    stm32f7xx_hal_sd.o(i.SD_WideBus_Disable) refers to stm32f7xx_ll_sdmmc.o(i.SDMMC_GetResponse) for SDMMC_GetResponse
    stm32f7xx_hal_sd.o(i.SD_WideBus_Disable) refers to stm32f7xx_hal_sd.o(i.SD_FindSCR) for SD_FindSCR
    stm32f7xx_hal_sd.o(i.SD_WideBus_Disable) refers to stm32f7xx_ll_sdmmc.o(i.SDMMC_SendCommand) for SDMMC_SendCommand
    stm32f7xx_hal_sd.o(i.SD_WideBus_Disable) refers to stm32f7xx_hal_sd.o(i.SD_CmdResp1Error) for SD_CmdResp1Error
    stm32f7xx_hal_sd.o(i.SD_WideBus_Enable) refers to stm32f7xx_ll_sdmmc.o(i.SDMMC_GetResponse) for SDMMC_GetResponse
    stm32f7xx_hal_sd.o(i.SD_WideBus_Enable) refers to stm32f7xx_hal_sd.o(i.SD_FindSCR) for SD_FindSCR
    stm32f7xx_hal_sd.o(i.SD_WideBus_Enable) refers to stm32f7xx_ll_sdmmc.o(i.SDMMC_SendCommand) for SDMMC_SendCommand
    stm32f7xx_hal_sd.o(i.SD_WideBus_Enable) refers to stm32f7xx_hal_sd.o(i.SD_CmdResp1Error) for SD_CmdResp1Error
    stm32f7xx_hal_sdram.o(i.HAL_SDRAM_DeInit) refers to stm32f7xx_hal_sdram.o(i.HAL_SDRAM_MspDeInit) for HAL_SDRAM_MspDeInit
    stm32f7xx_hal_sdram.o(i.HAL_SDRAM_DeInit) refers to stm32f7xx_ll_fmc.o(i.FMC_SDRAM_DeInit) for FMC_SDRAM_DeInit
    stm32f7xx_hal_sdram.o(i.HAL_SDRAM_GetModeStatus) refers to stm32f7xx_ll_fmc.o(i.FMC_SDRAM_GetModeStatus) for FMC_SDRAM_GetModeStatus
    stm32f7xx_hal_sdram.o(i.HAL_SDRAM_IRQHandler) refers to stm32f7xx_hal_sdram.o(i.HAL_SDRAM_RefreshErrorCallback) for HAL_SDRAM_RefreshErrorCallback
    stm32f7xx_hal_sdram.o(i.HAL_SDRAM_Init) refers to stm32f7xx_hal_sdram.o(i.HAL_SDRAM_MspInit) for HAL_SDRAM_MspInit
    stm32f7xx_hal_sdram.o(i.HAL_SDRAM_Init) refers to stm32f7xx_ll_fmc.o(i.FMC_SDRAM_Init) for FMC_SDRAM_Init
    stm32f7xx_hal_sdram.o(i.HAL_SDRAM_Init) refers to stm32f7xx_ll_fmc.o(i.FMC_SDRAM_Timing_Init) for FMC_SDRAM_Timing_Init
    stm32f7xx_hal_sdram.o(i.HAL_SDRAM_ProgramRefreshRate) refers to stm32f7xx_ll_fmc.o(i.FMC_SDRAM_ProgramRefreshRate) for FMC_SDRAM_ProgramRefreshRate
    stm32f7xx_hal_sdram.o(i.HAL_SDRAM_Read_DMA) refers to stm32f7xx_hal_dma.o(i.HAL_DMA_Start_IT) for HAL_DMA_Start_IT
    stm32f7xx_hal_sdram.o(i.HAL_SDRAM_Read_DMA) refers to stm32f7xx_hal_sdram.o(i.HAL_SDRAM_DMA_XferCpltCallback) for HAL_SDRAM_DMA_XferCpltCallback
    stm32f7xx_hal_sdram.o(i.HAL_SDRAM_Read_DMA) refers to stm32f7xx_hal_sdram.o(i.HAL_SDRAM_DMA_XferErrorCallback) for HAL_SDRAM_DMA_XferErrorCallback
    stm32f7xx_hal_sdram.o(i.HAL_SDRAM_SendCommand) refers to stm32f7xx_ll_fmc.o(i.FMC_SDRAM_SendCommand) for FMC_SDRAM_SendCommand
    stm32f7xx_hal_sdram.o(i.HAL_SDRAM_SetAutoRefreshNumber) refers to stm32f7xx_ll_fmc.o(i.FMC_SDRAM_SetAutoRefreshNumber) for FMC_SDRAM_SetAutoRefreshNumber
    stm32f7xx_hal_sdram.o(i.HAL_SDRAM_WriteProtection_Disable) refers to stm32f7xx_ll_fmc.o(i.FMC_SDRAM_WriteProtection_Disable) for FMC_SDRAM_WriteProtection_Disable
    stm32f7xx_hal_sdram.o(i.HAL_SDRAM_WriteProtection_Enable) refers to stm32f7xx_ll_fmc.o(i.FMC_SDRAM_WriteProtection_Enable) for FMC_SDRAM_WriteProtection_Enable
    stm32f7xx_hal_sdram.o(i.HAL_SDRAM_Write_DMA) refers to stm32f7xx_hal_dma.o(i.HAL_DMA_Start_IT) for HAL_DMA_Start_IT
    stm32f7xx_hal_sdram.o(i.HAL_SDRAM_Write_DMA) refers to stm32f7xx_hal_sdram.o(i.HAL_SDRAM_DMA_XferCpltCallback) for HAL_SDRAM_DMA_XferCpltCallback
    stm32f7xx_hal_sdram.o(i.HAL_SDRAM_Write_DMA) refers to stm32f7xx_hal_sdram.o(i.HAL_SDRAM_DMA_XferErrorCallback) for HAL_SDRAM_DMA_XferErrorCallback
    stm32f7xx_hal_tim.o(i.HAL_TIM_Base_DeInit) refers to stm32f7xx_hal_tim.o(i.HAL_TIM_Base_MspDeInit) for HAL_TIM_Base_MspDeInit
    stm32f7xx_hal_tim.o(i.HAL_TIM_Base_Init) refers to stm32f7xx_hal_tim.o(i.HAL_TIM_Base_MspInit) for HAL_TIM_Base_MspInit
    stm32f7xx_hal_tim.o(i.HAL_TIM_Base_Init) refers to stm32f7xx_hal_tim.o(i.TIM_Base_SetConfig) for TIM_Base_SetConfig
    stm32f7xx_hal_tim.o(i.HAL_TIM_Base_Start_DMA) refers to stm32f7xx_hal_dma.o(i.HAL_DMA_Start_IT) for HAL_DMA_Start_IT
    stm32f7xx_hal_tim.o(i.HAL_TIM_Base_Start_DMA) refers to stm32f7xx_hal_tim.o(i.TIM_DMAPeriodElapsedCplt) for TIM_DMAPeriodElapsedCplt
    stm32f7xx_hal_tim.o(i.HAL_TIM_Base_Start_DMA) refers to stm32f7xx_hal_tim.o(i.TIM_DMAError) for TIM_DMAError
    stm32f7xx_hal_tim.o(i.HAL_TIM_ConfigClockSource) refers to stm32f7xx_hal_tim.o(i.TIM_ETR_SetConfig) for TIM_ETR_SetConfig
    stm32f7xx_hal_tim.o(i.HAL_TIM_ConfigClockSource) refers to stm32f7xx_hal_tim.o(i.TIM_TI1_ConfigInputStage) for TIM_TI1_ConfigInputStage
    stm32f7xx_hal_tim.o(i.HAL_TIM_ConfigClockSource) refers to stm32f7xx_hal_tim.o(i.TIM_ITRx_SetConfig) for TIM_ITRx_SetConfig
    stm32f7xx_hal_tim.o(i.HAL_TIM_ConfigClockSource) refers to stm32f7xx_hal_tim.o(i.TIM_TI2_ConfigInputStage) for TIM_TI2_ConfigInputStage
    stm32f7xx_hal_tim.o(i.HAL_TIM_ConfigOCrefClear) refers to stm32f7xx_hal_tim.o(i.TIM_ETR_SetConfig) for TIM_ETR_SetConfig
    stm32f7xx_hal_tim.o(i.HAL_TIM_DMABurst_ReadStart) refers to stm32f7xx_hal_dma.o(i.HAL_DMA_Start_IT) for HAL_DMA_Start_IT
    stm32f7xx_hal_tim.o(i.HAL_TIM_DMABurst_ReadStart) refers to stm32f7xx_hal_tim.o(i.TIM_DMAPeriodElapsedCplt) for TIM_DMAPeriodElapsedCplt
    stm32f7xx_hal_tim.o(i.HAL_TIM_DMABurst_ReadStart) refers to stm32f7xx_hal_tim.o(i.TIM_DMAError) for TIM_DMAError
    stm32f7xx_hal_tim.o(i.HAL_TIM_DMABurst_ReadStart) refers to stm32f7xx_hal_tim.o(i.TIM_DMACaptureCplt) for TIM_DMACaptureCplt
    stm32f7xx_hal_tim.o(i.HAL_TIM_DMABurst_ReadStart) refers to stm32f7xx_hal_tim_ex.o(i.TIMEx_DMACommutationCplt) for TIMEx_DMACommutationCplt
    stm32f7xx_hal_tim.o(i.HAL_TIM_DMABurst_ReadStart) refers to stm32f7xx_hal_tim.o(i.TIM_DMATriggerCplt) for TIM_DMATriggerCplt
    stm32f7xx_hal_tim.o(i.HAL_TIM_DMABurst_ReadStop) refers to stm32f7xx_hal_dma.o(i.HAL_DMA_Abort) for HAL_DMA_Abort
    stm32f7xx_hal_tim.o(i.HAL_TIM_DMABurst_WriteStart) refers to stm32f7xx_hal_dma.o(i.HAL_DMA_Start_IT) for HAL_DMA_Start_IT
    stm32f7xx_hal_tim.o(i.HAL_TIM_DMABurst_WriteStart) refers to stm32f7xx_hal_tim.o(i.TIM_DMAPeriodElapsedCplt) for TIM_DMAPeriodElapsedCplt
    stm32f7xx_hal_tim.o(i.HAL_TIM_DMABurst_WriteStart) refers to stm32f7xx_hal_tim.o(i.TIM_DMAError) for TIM_DMAError
    stm32f7xx_hal_tim.o(i.HAL_TIM_DMABurst_WriteStart) refers to stm32f7xx_hal_tim.o(i.TIM_DMADelayPulseCplt) for TIM_DMADelayPulseCplt
    stm32f7xx_hal_tim.o(i.HAL_TIM_DMABurst_WriteStart) refers to stm32f7xx_hal_tim_ex.o(i.TIMEx_DMACommutationCplt) for TIMEx_DMACommutationCplt
    stm32f7xx_hal_tim.o(i.HAL_TIM_DMABurst_WriteStart) refers to stm32f7xx_hal_tim.o(i.TIM_DMATriggerCplt) for TIM_DMATriggerCplt
    stm32f7xx_hal_tim.o(i.HAL_TIM_DMABurst_WriteStop) refers to stm32f7xx_hal_dma.o(i.HAL_DMA_Abort) for HAL_DMA_Abort
    stm32f7xx_hal_tim.o(i.HAL_TIM_Encoder_DeInit) refers to stm32f7xx_hal_tim.o(i.HAL_TIM_Encoder_MspDeInit) for HAL_TIM_Encoder_MspDeInit
    stm32f7xx_hal_tim.o(i.HAL_TIM_Encoder_Init) refers to stm32f7xx_hal_tim.o(i.HAL_TIM_Encoder_MspInit) for HAL_TIM_Encoder_MspInit
    stm32f7xx_hal_tim.o(i.HAL_TIM_Encoder_Init) refers to stm32f7xx_hal_tim.o(i.TIM_Base_SetConfig) for TIM_Base_SetConfig
    stm32f7xx_hal_tim.o(i.HAL_TIM_Encoder_Start) refers to stm32f7xx_hal_tim.o(i.TIM_CCxChannelCmd) for TIM_CCxChannelCmd
    stm32f7xx_hal_tim.o(i.HAL_TIM_Encoder_Start_DMA) refers to stm32f7xx_hal_dma.o(i.HAL_DMA_Start_IT) for HAL_DMA_Start_IT
    stm32f7xx_hal_tim.o(i.HAL_TIM_Encoder_Start_DMA) refers to stm32f7xx_hal_tim.o(i.TIM_CCxChannelCmd) for TIM_CCxChannelCmd
    stm32f7xx_hal_tim.o(i.HAL_TIM_Encoder_Start_DMA) refers to stm32f7xx_hal_tim.o(i.TIM_DMACaptureCplt) for TIM_DMACaptureCplt
    stm32f7xx_hal_tim.o(i.HAL_TIM_Encoder_Start_DMA) refers to stm32f7xx_hal_tim.o(i.TIM_DMAError) for TIM_DMAError
    stm32f7xx_hal_tim.o(i.HAL_TIM_Encoder_Start_IT) refers to stm32f7xx_hal_tim.o(i.TIM_CCxChannelCmd) for TIM_CCxChannelCmd
    stm32f7xx_hal_tim.o(i.HAL_TIM_Encoder_Stop) refers to stm32f7xx_hal_tim.o(i.TIM_CCxChannelCmd) for TIM_CCxChannelCmd
    stm32f7xx_hal_tim.o(i.HAL_TIM_Encoder_Stop_DMA) refers to stm32f7xx_hal_tim.o(i.TIM_CCxChannelCmd) for TIM_CCxChannelCmd
    stm32f7xx_hal_tim.o(i.HAL_TIM_Encoder_Stop_IT) refers to stm32f7xx_hal_tim.o(i.TIM_CCxChannelCmd) for TIM_CCxChannelCmd
    stm32f7xx_hal_tim.o(i.HAL_TIM_IC_ConfigChannel) refers to stm32f7xx_hal_tim.o(i.TIM_TI1_SetConfig) for TIM_TI1_SetConfig
    stm32f7xx_hal_tim.o(i.HAL_TIM_IC_ConfigChannel) refers to stm32f7xx_hal_tim.o(i.TIM_TI2_SetConfig) for TIM_TI2_SetConfig
    stm32f7xx_hal_tim.o(i.HAL_TIM_IC_ConfigChannel) refers to stm32f7xx_hal_tim.o(i.TIM_TI3_SetConfig) for TIM_TI3_SetConfig
    stm32f7xx_hal_tim.o(i.HAL_TIM_IC_ConfigChannel) refers to stm32f7xx_hal_tim.o(i.TIM_TI4_SetConfig) for TIM_TI4_SetConfig
    stm32f7xx_hal_tim.o(i.HAL_TIM_IC_DeInit) refers to stm32f7xx_hal_tim.o(i.HAL_TIM_IC_MspDeInit) for HAL_TIM_IC_MspDeInit
    stm32f7xx_hal_tim.o(i.HAL_TIM_IC_Init) refers to stm32f7xx_hal_tim.o(i.HAL_TIM_IC_MspInit) for HAL_TIM_IC_MspInit
    stm32f7xx_hal_tim.o(i.HAL_TIM_IC_Init) refers to stm32f7xx_hal_tim.o(i.TIM_Base_SetConfig) for TIM_Base_SetConfig
    stm32f7xx_hal_tim.o(i.HAL_TIM_IC_Start) refers to stm32f7xx_hal_tim.o(i.TIM_CCxChannelCmd) for TIM_CCxChannelCmd
    stm32f7xx_hal_tim.o(i.HAL_TIM_IC_Start_DMA) refers to stm32f7xx_hal_dma.o(i.HAL_DMA_Start_IT) for HAL_DMA_Start_IT
    stm32f7xx_hal_tim.o(i.HAL_TIM_IC_Start_DMA) refers to stm32f7xx_hal_tim.o(i.TIM_CCxChannelCmd) for TIM_CCxChannelCmd
    stm32f7xx_hal_tim.o(i.HAL_TIM_IC_Start_DMA) refers to stm32f7xx_hal_tim.o(i.TIM_DMACaptureCplt) for TIM_DMACaptureCplt
    stm32f7xx_hal_tim.o(i.HAL_TIM_IC_Start_DMA) refers to stm32f7xx_hal_tim.o(i.TIM_DMAError) for TIM_DMAError
    stm32f7xx_hal_tim.o(i.HAL_TIM_IC_Start_IT) refers to stm32f7xx_hal_tim.o(i.TIM_CCxChannelCmd) for TIM_CCxChannelCmd
    stm32f7xx_hal_tim.o(i.HAL_TIM_IC_Stop) refers to stm32f7xx_hal_tim.o(i.TIM_CCxChannelCmd) for TIM_CCxChannelCmd
    stm32f7xx_hal_tim.o(i.HAL_TIM_IC_Stop_DMA) refers to stm32f7xx_hal_tim.o(i.TIM_CCxChannelCmd) for TIM_CCxChannelCmd
    stm32f7xx_hal_tim.o(i.HAL_TIM_IC_Stop_IT) refers to stm32f7xx_hal_tim.o(i.TIM_CCxChannelCmd) for TIM_CCxChannelCmd
    stm32f7xx_hal_tim.o(i.HAL_TIM_IRQHandler) refers to stm32f7xx_hal_tim.o(i.HAL_TIM_IC_CaptureCallback) for HAL_TIM_IC_CaptureCallback
    stm32f7xx_hal_tim.o(i.HAL_TIM_IRQHandler) refers to stm32f7xx_hal_tim.o(i.HAL_TIM_OC_DelayElapsedCallback) for HAL_TIM_OC_DelayElapsedCallback
    stm32f7xx_hal_tim.o(i.HAL_TIM_IRQHandler) refers to stm32f7xx_hal_tim.o(i.HAL_TIM_PWM_PulseFinishedCallback) for HAL_TIM_PWM_PulseFinishedCallback
    stm32f7xx_hal_tim.o(i.HAL_TIM_IRQHandler) refers to stm32f7xx_hal_tim.o(i.HAL_TIM_PeriodElapsedCallback) for HAL_TIM_PeriodElapsedCallback
    stm32f7xx_hal_tim.o(i.HAL_TIM_IRQHandler) refers to stm32f7xx_hal_tim_ex.o(i.HAL_TIMEx_BreakCallback) for HAL_TIMEx_BreakCallback
    stm32f7xx_hal_tim.o(i.HAL_TIM_IRQHandler) refers to stm32f7xx_hal_tim.o(i.HAL_TIM_TriggerCallback) for HAL_TIM_TriggerCallback
    stm32f7xx_hal_tim.o(i.HAL_TIM_IRQHandler) refers to stm32f7xx_hal_tim_ex.o(i.HAL_TIMEx_CommutationCallback) for HAL_TIMEx_CommutationCallback
    stm32f7xx_hal_tim.o(i.HAL_TIM_OC_ConfigChannel) refers to stm32f7xx_hal_tim.o(i.TIM_OC1_SetConfig) for TIM_OC1_SetConfig
    stm32f7xx_hal_tim.o(i.HAL_TIM_OC_ConfigChannel) refers to stm32f7xx_hal_tim.o(i.TIM_OC2_SetConfig) for TIM_OC2_SetConfig
    stm32f7xx_hal_tim.o(i.HAL_TIM_OC_ConfigChannel) refers to stm32f7xx_hal_tim.o(i.TIM_OC3_SetConfig) for TIM_OC3_SetConfig
    stm32f7xx_hal_tim.o(i.HAL_TIM_OC_ConfigChannel) refers to stm32f7xx_hal_tim.o(i.TIM_OC4_SetConfig) for TIM_OC4_SetConfig
    stm32f7xx_hal_tim.o(i.HAL_TIM_OC_DeInit) refers to stm32f7xx_hal_tim.o(i.HAL_TIM_OC_MspDeInit) for HAL_TIM_OC_MspDeInit
    stm32f7xx_hal_tim.o(i.HAL_TIM_OC_Init) refers to stm32f7xx_hal_tim.o(i.HAL_TIM_OC_MspInit) for HAL_TIM_OC_MspInit
    stm32f7xx_hal_tim.o(i.HAL_TIM_OC_Init) refers to stm32f7xx_hal_tim.o(i.TIM_Base_SetConfig) for TIM_Base_SetConfig
    stm32f7xx_hal_tim.o(i.HAL_TIM_OC_Start) refers to stm32f7xx_hal_tim.o(i.TIM_CCxChannelCmd) for TIM_CCxChannelCmd
    stm32f7xx_hal_tim.o(i.HAL_TIM_OC_Start_DMA) refers to stm32f7xx_hal_dma.o(i.HAL_DMA_Start_IT) for HAL_DMA_Start_IT
    stm32f7xx_hal_tim.o(i.HAL_TIM_OC_Start_DMA) refers to stm32f7xx_hal_tim.o(i.TIM_CCxChannelCmd) for TIM_CCxChannelCmd
    stm32f7xx_hal_tim.o(i.HAL_TIM_OC_Start_DMA) refers to stm32f7xx_hal_tim.o(i.TIM_DMADelayPulseCplt) for TIM_DMADelayPulseCplt
    stm32f7xx_hal_tim.o(i.HAL_TIM_OC_Start_DMA) refers to stm32f7xx_hal_tim.o(i.TIM_DMAError) for TIM_DMAError
    stm32f7xx_hal_tim.o(i.HAL_TIM_OC_Start_IT) refers to stm32f7xx_hal_tim.o(i.TIM_CCxChannelCmd) for TIM_CCxChannelCmd
    stm32f7xx_hal_tim.o(i.HAL_TIM_OC_Stop) refers to stm32f7xx_hal_tim.o(i.TIM_CCxChannelCmd) for TIM_CCxChannelCmd
    stm32f7xx_hal_tim.o(i.HAL_TIM_OC_Stop_DMA) refers to stm32f7xx_hal_tim.o(i.TIM_CCxChannelCmd) for TIM_CCxChannelCmd
    stm32f7xx_hal_tim.o(i.HAL_TIM_OC_Stop_IT) refers to stm32f7xx_hal_tim.o(i.TIM_CCxChannelCmd) for TIM_CCxChannelCmd
    stm32f7xx_hal_tim.o(i.HAL_TIM_OnePulse_ConfigChannel) refers to stm32f7xx_hal_tim.o(i.TIM_OC1_SetConfig) for TIM_OC1_SetConfig
    stm32f7xx_hal_tim.o(i.HAL_TIM_OnePulse_ConfigChannel) refers to stm32f7xx_hal_tim.o(i.TIM_OC2_SetConfig) for TIM_OC2_SetConfig
    stm32f7xx_hal_tim.o(i.HAL_TIM_OnePulse_ConfigChannel) refers to stm32f7xx_hal_tim.o(i.TIM_TI1_SetConfig) for TIM_TI1_SetConfig
    stm32f7xx_hal_tim.o(i.HAL_TIM_OnePulse_ConfigChannel) refers to stm32f7xx_hal_tim.o(i.TIM_TI2_SetConfig) for TIM_TI2_SetConfig
    stm32f7xx_hal_tim.o(i.HAL_TIM_OnePulse_DeInit) refers to stm32f7xx_hal_tim.o(i.HAL_TIM_OnePulse_MspDeInit) for HAL_TIM_OnePulse_MspDeInit
    stm32f7xx_hal_tim.o(i.HAL_TIM_OnePulse_Init) refers to stm32f7xx_hal_tim.o(i.HAL_TIM_OnePulse_MspInit) for HAL_TIM_OnePulse_MspInit
    stm32f7xx_hal_tim.o(i.HAL_TIM_OnePulse_Init) refers to stm32f7xx_hal_tim.o(i.TIM_Base_SetConfig) for TIM_Base_SetConfig
    stm32f7xx_hal_tim.o(i.HAL_TIM_OnePulse_Start) refers to stm32f7xx_hal_tim.o(i.TIM_CCxChannelCmd) for TIM_CCxChannelCmd
    stm32f7xx_hal_tim.o(i.HAL_TIM_OnePulse_Start_IT) refers to stm32f7xx_hal_tim.o(i.TIM_CCxChannelCmd) for TIM_CCxChannelCmd
    stm32f7xx_hal_tim.o(i.HAL_TIM_OnePulse_Stop) refers to stm32f7xx_hal_tim.o(i.TIM_CCxChannelCmd) for TIM_CCxChannelCmd
    stm32f7xx_hal_tim.o(i.HAL_TIM_OnePulse_Stop_IT) refers to stm32f7xx_hal_tim.o(i.TIM_CCxChannelCmd) for TIM_CCxChannelCmd
    stm32f7xx_hal_tim.o(i.HAL_TIM_PWM_ConfigChannel) refers to stm32f7xx_hal_tim.o(i.TIM_OC1_SetConfig) for TIM_OC1_SetConfig
    stm32f7xx_hal_tim.o(i.HAL_TIM_PWM_ConfigChannel) refers to stm32f7xx_hal_tim.o(i.TIM_OC2_SetConfig) for TIM_OC2_SetConfig
    stm32f7xx_hal_tim.o(i.HAL_TIM_PWM_ConfigChannel) refers to stm32f7xx_hal_tim.o(i.TIM_OC3_SetConfig) for TIM_OC3_SetConfig
    stm32f7xx_hal_tim.o(i.HAL_TIM_PWM_ConfigChannel) refers to stm32f7xx_hal_tim.o(i.TIM_OC4_SetConfig) for TIM_OC4_SetConfig
    stm32f7xx_hal_tim.o(i.HAL_TIM_PWM_DeInit) refers to stm32f7xx_hal_tim.o(i.HAL_TIM_PWM_MspDeInit) for HAL_TIM_PWM_MspDeInit
    stm32f7xx_hal_tim.o(i.HAL_TIM_PWM_Init) refers to stm32f7xx_hal_tim.o(i.HAL_TIM_PWM_MspInit) for HAL_TIM_PWM_MspInit
    stm32f7xx_hal_tim.o(i.HAL_TIM_PWM_Init) refers to stm32f7xx_hal_tim.o(i.TIM_Base_SetConfig) for TIM_Base_SetConfig
    stm32f7xx_hal_tim.o(i.HAL_TIM_PWM_Start) refers to stm32f7xx_hal_tim.o(i.TIM_CCxChannelCmd) for TIM_CCxChannelCmd
    stm32f7xx_hal_tim.o(i.HAL_TIM_PWM_Start_DMA) refers to stm32f7xx_hal_dma.o(i.HAL_DMA_Start_IT) for HAL_DMA_Start_IT
    stm32f7xx_hal_tim.o(i.HAL_TIM_PWM_Start_DMA) refers to stm32f7xx_hal_tim.o(i.TIM_CCxChannelCmd) for TIM_CCxChannelCmd
    stm32f7xx_hal_tim.o(i.HAL_TIM_PWM_Start_DMA) refers to stm32f7xx_hal_tim.o(i.TIM_DMADelayPulseCplt) for TIM_DMADelayPulseCplt
    stm32f7xx_hal_tim.o(i.HAL_TIM_PWM_Start_DMA) refers to stm32f7xx_hal_tim.o(i.TIM_DMAError) for TIM_DMAError
    stm32f7xx_hal_tim.o(i.HAL_TIM_PWM_Start_IT) refers to stm32f7xx_hal_tim.o(i.TIM_CCxChannelCmd) for TIM_CCxChannelCmd
    stm32f7xx_hal_tim.o(i.HAL_TIM_PWM_Stop) refers to stm32f7xx_hal_tim.o(i.TIM_CCxChannelCmd) for TIM_CCxChannelCmd
    stm32f7xx_hal_tim.o(i.HAL_TIM_PWM_Stop_DMA) refers to stm32f7xx_hal_tim.o(i.TIM_CCxChannelCmd) for TIM_CCxChannelCmd
    stm32f7xx_hal_tim.o(i.HAL_TIM_PWM_Stop_IT) refers to stm32f7xx_hal_tim.o(i.TIM_CCxChannelCmd) for TIM_CCxChannelCmd
    stm32f7xx_hal_tim.o(i.HAL_TIM_SlaveConfigSynchronization) refers to stm32f7xx_hal_tim.o(i.TIM_ETR_SetConfig) for TIM_ETR_SetConfig
    stm32f7xx_hal_tim.o(i.HAL_TIM_SlaveConfigSynchronization) refers to stm32f7xx_hal_tim.o(i.TIM_TI1_ConfigInputStage) for TIM_TI1_ConfigInputStage
    stm32f7xx_hal_tim.o(i.HAL_TIM_SlaveConfigSynchronization) refers to stm32f7xx_hal_tim.o(i.TIM_TI2_ConfigInputStage) for TIM_TI2_ConfigInputStage
    stm32f7xx_hal_tim.o(i.HAL_TIM_SlaveConfigSynchronization_IT) refers to stm32f7xx_hal_tim.o(i.TIM_SlaveTimer_SetConfig) for TIM_SlaveTimer_SetConfig
    stm32f7xx_hal_tim.o(i.TIM_DMACaptureCplt) refers to stm32f7xx_hal_tim.o(i.HAL_TIM_IC_CaptureCallback) for HAL_TIM_IC_CaptureCallback
    stm32f7xx_hal_tim.o(i.TIM_DMADelayPulseCplt) refers to stm32f7xx_hal_tim.o(i.HAL_TIM_PWM_PulseFinishedCallback) for HAL_TIM_PWM_PulseFinishedCallback
    stm32f7xx_hal_tim.o(i.TIM_DMAError) refers to stm32f7xx_hal_tim.o(i.HAL_TIM_ErrorCallback) for HAL_TIM_ErrorCallback
    stm32f7xx_hal_tim.o(i.TIM_DMAPeriodElapsedCplt) refers to stm32f7xx_hal_tim.o(i.HAL_TIM_PeriodElapsedCallback) for HAL_TIM_PeriodElapsedCallback
    stm32f7xx_hal_tim.o(i.TIM_DMATriggerCplt) refers to stm32f7xx_hal_tim.o(i.HAL_TIM_TriggerCallback) for HAL_TIM_TriggerCallback
    stm32f7xx_hal_tim.o(i.TIM_SlaveTimer_SetConfig) refers to stm32f7xx_hal_tim.o(i.TIM_ETR_SetConfig) for TIM_ETR_SetConfig
    stm32f7xx_hal_tim.o(i.TIM_SlaveTimer_SetConfig) refers to stm32f7xx_hal_tim.o(i.TIM_TI1_ConfigInputStage) for TIM_TI1_ConfigInputStage
    stm32f7xx_hal_tim.o(i.TIM_SlaveTimer_SetConfig) refers to stm32f7xx_hal_tim.o(i.TIM_TI2_ConfigInputStage) for TIM_TI2_ConfigInputStage
    stm32f7xx_hal_tim_ex.o(i.HAL_TIMEx_ConfigCommutationEvent_DMA) refers to stm32f7xx_hal_tim_ex.o(i.TIMEx_DMACommutationCplt) for TIMEx_DMACommutationCplt
    stm32f7xx_hal_tim_ex.o(i.HAL_TIMEx_ConfigCommutationEvent_DMA) refers to stm32f7xx_hal_tim.o(i.TIM_DMAError) for TIM_DMAError
    stm32f7xx_hal_tim_ex.o(i.HAL_TIMEx_HallSensor_DeInit) refers to stm32f7xx_hal_tim_ex.o(i.HAL_TIMEx_HallSensor_MspDeInit) for HAL_TIMEx_HallSensor_MspDeInit
    stm32f7xx_hal_tim_ex.o(i.HAL_TIMEx_HallSensor_Init) refers to stm32f7xx_hal_tim_ex.o(i.HAL_TIMEx_HallSensor_MspInit) for HAL_TIMEx_HallSensor_MspInit
    stm32f7xx_hal_tim_ex.o(i.HAL_TIMEx_HallSensor_Init) refers to stm32f7xx_hal_tim.o(i.TIM_Base_SetConfig) for TIM_Base_SetConfig
    stm32f7xx_hal_tim_ex.o(i.HAL_TIMEx_HallSensor_Init) refers to stm32f7xx_hal_tim.o(i.TIM_TI1_SetConfig) for TIM_TI1_SetConfig
    stm32f7xx_hal_tim_ex.o(i.HAL_TIMEx_HallSensor_Init) refers to stm32f7xx_hal_tim.o(i.TIM_OC2_SetConfig) for TIM_OC2_SetConfig
    stm32f7xx_hal_tim_ex.o(i.HAL_TIMEx_HallSensor_Start) refers to stm32f7xx_hal_tim.o(i.TIM_CCxChannelCmd) for TIM_CCxChannelCmd
    stm32f7xx_hal_tim_ex.o(i.HAL_TIMEx_HallSensor_Start_DMA) refers to stm32f7xx_hal_tim.o(i.TIM_CCxChannelCmd) for TIM_CCxChannelCmd
    stm32f7xx_hal_tim_ex.o(i.HAL_TIMEx_HallSensor_Start_DMA) refers to stm32f7xx_hal_dma.o(i.HAL_DMA_Start_IT) for HAL_DMA_Start_IT
    stm32f7xx_hal_tim_ex.o(i.HAL_TIMEx_HallSensor_Start_DMA) refers to stm32f7xx_hal_tim.o(i.TIM_DMACaptureCplt) for TIM_DMACaptureCplt
    stm32f7xx_hal_tim_ex.o(i.HAL_TIMEx_HallSensor_Start_DMA) refers to stm32f7xx_hal_tim.o(i.TIM_DMAError) for TIM_DMAError
    stm32f7xx_hal_tim_ex.o(i.HAL_TIMEx_HallSensor_Start_IT) refers to stm32f7xx_hal_tim.o(i.TIM_CCxChannelCmd) for TIM_CCxChannelCmd
    stm32f7xx_hal_tim_ex.o(i.HAL_TIMEx_HallSensor_Stop) refers to stm32f7xx_hal_tim.o(i.TIM_CCxChannelCmd) for TIM_CCxChannelCmd
    stm32f7xx_hal_tim_ex.o(i.HAL_TIMEx_HallSensor_Stop_DMA) refers to stm32f7xx_hal_tim.o(i.TIM_CCxChannelCmd) for TIM_CCxChannelCmd
    stm32f7xx_hal_tim_ex.o(i.HAL_TIMEx_HallSensor_Stop_IT) refers to stm32f7xx_hal_tim.o(i.TIM_CCxChannelCmd) for TIM_CCxChannelCmd
    stm32f7xx_hal_tim_ex.o(i.HAL_TIMEx_OCN_Start) refers to stm32f7xx_hal_tim_ex.o(i.TIM_CCxNChannelCmd) for TIM_CCxNChannelCmd
    stm32f7xx_hal_tim_ex.o(i.HAL_TIMEx_OCN_Start_DMA) refers to stm32f7xx_hal_dma.o(i.HAL_DMA_Start_IT) for HAL_DMA_Start_IT
    stm32f7xx_hal_tim_ex.o(i.HAL_TIMEx_OCN_Start_DMA) refers to stm32f7xx_hal_tim_ex.o(i.TIM_CCxNChannelCmd) for TIM_CCxNChannelCmd
    stm32f7xx_hal_tim_ex.o(i.HAL_TIMEx_OCN_Start_DMA) refers to stm32f7xx_hal_tim.o(i.TIM_DMADelayPulseCplt) for TIM_DMADelayPulseCplt
    stm32f7xx_hal_tim_ex.o(i.HAL_TIMEx_OCN_Start_DMA) refers to stm32f7xx_hal_tim.o(i.TIM_DMAError) for TIM_DMAError
    stm32f7xx_hal_tim_ex.o(i.HAL_TIMEx_OCN_Start_IT) refers to stm32f7xx_hal_tim_ex.o(i.TIM_CCxNChannelCmd) for TIM_CCxNChannelCmd
    stm32f7xx_hal_tim_ex.o(i.HAL_TIMEx_OCN_Stop) refers to stm32f7xx_hal_tim_ex.o(i.TIM_CCxNChannelCmd) for TIM_CCxNChannelCmd
    stm32f7xx_hal_tim_ex.o(i.HAL_TIMEx_OCN_Stop_DMA) refers to stm32f7xx_hal_tim_ex.o(i.TIM_CCxNChannelCmd) for TIM_CCxNChannelCmd
    stm32f7xx_hal_tim_ex.o(i.HAL_TIMEx_OCN_Stop_IT) refers to stm32f7xx_hal_tim_ex.o(i.TIM_CCxNChannelCmd) for TIM_CCxNChannelCmd
    stm32f7xx_hal_tim_ex.o(i.HAL_TIMEx_OnePulseN_Start) refers to stm32f7xx_hal_tim_ex.o(i.TIM_CCxNChannelCmd) for TIM_CCxNChannelCmd
    stm32f7xx_hal_tim_ex.o(i.HAL_TIMEx_OnePulseN_Start_IT) refers to stm32f7xx_hal_tim_ex.o(i.TIM_CCxNChannelCmd) for TIM_CCxNChannelCmd
    stm32f7xx_hal_tim_ex.o(i.HAL_TIMEx_OnePulseN_Stop) refers to stm32f7xx_hal_tim_ex.o(i.TIM_CCxNChannelCmd) for TIM_CCxNChannelCmd
    stm32f7xx_hal_tim_ex.o(i.HAL_TIMEx_OnePulseN_Stop_IT) refers to stm32f7xx_hal_tim_ex.o(i.TIM_CCxNChannelCmd) for TIM_CCxNChannelCmd
    stm32f7xx_hal_tim_ex.o(i.HAL_TIMEx_PWMN_Start) refers to stm32f7xx_hal_tim_ex.o(i.TIM_CCxNChannelCmd) for TIM_CCxNChannelCmd
    stm32f7xx_hal_tim_ex.o(i.HAL_TIMEx_PWMN_Start_DMA) refers to stm32f7xx_hal_dma.o(i.HAL_DMA_Start_IT) for HAL_DMA_Start_IT
    stm32f7xx_hal_tim_ex.o(i.HAL_TIMEx_PWMN_Start_DMA) refers to stm32f7xx_hal_tim_ex.o(i.TIM_CCxNChannelCmd) for TIM_CCxNChannelCmd
    stm32f7xx_hal_tim_ex.o(i.HAL_TIMEx_PWMN_Start_DMA) refers to stm32f7xx_hal_tim.o(i.TIM_DMADelayPulseCplt) for TIM_DMADelayPulseCplt
    stm32f7xx_hal_tim_ex.o(i.HAL_TIMEx_PWMN_Start_DMA) refers to stm32f7xx_hal_tim.o(i.TIM_DMAError) for TIM_DMAError
    stm32f7xx_hal_tim_ex.o(i.HAL_TIMEx_PWMN_Start_IT) refers to stm32f7xx_hal_tim_ex.o(i.TIM_CCxNChannelCmd) for TIM_CCxNChannelCmd
    stm32f7xx_hal_tim_ex.o(i.HAL_TIMEx_PWMN_Stop) refers to stm32f7xx_hal_tim_ex.o(i.TIM_CCxNChannelCmd) for TIM_CCxNChannelCmd
    stm32f7xx_hal_tim_ex.o(i.HAL_TIMEx_PWMN_Stop_DMA) refers to stm32f7xx_hal_tim_ex.o(i.TIM_CCxNChannelCmd) for TIM_CCxNChannelCmd
    stm32f7xx_hal_tim_ex.o(i.HAL_TIMEx_PWMN_Stop_IT) refers to stm32f7xx_hal_tim_ex.o(i.TIM_CCxNChannelCmd) for TIM_CCxNChannelCmd
    stm32f7xx_hal_tim_ex.o(i.HAL_TIM_ConfigOCrefClear) refers to stm32f7xx_hal_tim.o(i.TIM_ETR_SetConfig) for TIM_ETR_SetConfig
    stm32f7xx_hal_tim_ex.o(i.HAL_TIM_OC_ConfigChannel) refers to stm32f7xx_hal_tim.o(i.TIM_OC1_SetConfig) for TIM_OC1_SetConfig
    stm32f7xx_hal_tim_ex.o(i.HAL_TIM_OC_ConfigChannel) refers to stm32f7xx_hal_tim.o(i.TIM_OC2_SetConfig) for TIM_OC2_SetConfig
    stm32f7xx_hal_tim_ex.o(i.HAL_TIM_OC_ConfigChannel) refers to stm32f7xx_hal_tim.o(i.TIM_OC3_SetConfig) for TIM_OC3_SetConfig
    stm32f7xx_hal_tim_ex.o(i.HAL_TIM_OC_ConfigChannel) refers to stm32f7xx_hal_tim.o(i.TIM_OC4_SetConfig) for TIM_OC4_SetConfig
    stm32f7xx_hal_tim_ex.o(i.HAL_TIM_OC_ConfigChannel) refers to stm32f7xx_hal_tim_ex.o(i.TIM_OC5_SetConfig) for TIM_OC5_SetConfig
    stm32f7xx_hal_tim_ex.o(i.HAL_TIM_OC_ConfigChannel) refers to stm32f7xx_hal_tim_ex.o(i.TIM_OC6_SetConfig) for TIM_OC6_SetConfig
    stm32f7xx_hal_tim_ex.o(i.HAL_TIM_PWM_ConfigChannel) refers to stm32f7xx_hal_tim.o(i.TIM_OC1_SetConfig) for TIM_OC1_SetConfig
    stm32f7xx_hal_tim_ex.o(i.HAL_TIM_PWM_ConfigChannel) refers to stm32f7xx_hal_tim.o(i.TIM_OC2_SetConfig) for TIM_OC2_SetConfig
    stm32f7xx_hal_tim_ex.o(i.HAL_TIM_PWM_ConfigChannel) refers to stm32f7xx_hal_tim.o(i.TIM_OC3_SetConfig) for TIM_OC3_SetConfig
    stm32f7xx_hal_tim_ex.o(i.HAL_TIM_PWM_ConfigChannel) refers to stm32f7xx_hal_tim.o(i.TIM_OC4_SetConfig) for TIM_OC4_SetConfig
    stm32f7xx_hal_tim_ex.o(i.HAL_TIM_PWM_ConfigChannel) refers to stm32f7xx_hal_tim_ex.o(i.TIM_OC5_SetConfig) for TIM_OC5_SetConfig
    stm32f7xx_hal_tim_ex.o(i.HAL_TIM_PWM_ConfigChannel) refers to stm32f7xx_hal_tim_ex.o(i.TIM_OC6_SetConfig) for TIM_OC6_SetConfig
    stm32f7xx_hal_tim_ex.o(i.TIMEx_DMACommutationCplt) refers to stm32f7xx_hal_tim_ex.o(i.HAL_TIMEx_CommutationCallback) for HAL_TIMEx_CommutationCallback
    stm32f7xx_hal_uart.o(i.HAL_HalfDuplex_Init) refers to stm32f7xx_hal_uart.o(i.HAL_UART_MspInit) for HAL_UART_MspInit
    stm32f7xx_hal_uart.o(i.HAL_HalfDuplex_Init) refers to stm32f7xx_hal_uart.o(i.UART_SetConfig) for UART_SetConfig
    stm32f7xx_hal_uart.o(i.HAL_HalfDuplex_Init) refers to stm32f7xx_hal_uart.o(i.UART_AdvFeatureConfig) for UART_AdvFeatureConfig
    stm32f7xx_hal_uart.o(i.HAL_HalfDuplex_Init) refers to stm32f7xx_hal_uart.o(i.UART_CheckIdleState) for UART_CheckIdleState
    stm32f7xx_hal_uart.o(i.HAL_LIN_Init) refers to stm32f7xx_hal_uart.o(i.HAL_UART_MspInit) for HAL_UART_MspInit
    stm32f7xx_hal_uart.o(i.HAL_LIN_Init) refers to stm32f7xx_hal_uart.o(i.UART_SetConfig) for UART_SetConfig
    stm32f7xx_hal_uart.o(i.HAL_LIN_Init) refers to stm32f7xx_hal_uart.o(i.UART_AdvFeatureConfig) for UART_AdvFeatureConfig
    stm32f7xx_hal_uart.o(i.HAL_LIN_Init) refers to stm32f7xx_hal_uart.o(i.UART_CheckIdleState) for UART_CheckIdleState
    stm32f7xx_hal_uart.o(i.HAL_MultiProcessorEx_AddressLength_Set) refers to stm32f7xx_hal_uart.o(i.UART_CheckIdleState) for UART_CheckIdleState
    stm32f7xx_hal_uart.o(i.HAL_MultiProcessor_DisableMuteMode) refers to stm32f7xx_hal_uart.o(i.UART_CheckIdleState) for UART_CheckIdleState
    stm32f7xx_hal_uart.o(i.HAL_MultiProcessor_EnableMuteMode) refers to stm32f7xx_hal_uart.o(i.UART_CheckIdleState) for UART_CheckIdleState
    stm32f7xx_hal_uart.o(i.HAL_MultiProcessor_Init) refers to stm32f7xx_hal_uart.o(i.HAL_UART_MspInit) for HAL_UART_MspInit
    stm32f7xx_hal_uart.o(i.HAL_MultiProcessor_Init) refers to stm32f7xx_hal_uart.o(i.UART_SetConfig) for UART_SetConfig
    stm32f7xx_hal_uart.o(i.HAL_MultiProcessor_Init) refers to stm32f7xx_hal_uart.o(i.UART_AdvFeatureConfig) for UART_AdvFeatureConfig
    stm32f7xx_hal_uart.o(i.HAL_MultiProcessor_Init) refers to stm32f7xx_hal_uart.o(i.UART_CheckIdleState) for UART_CheckIdleState
    stm32f7xx_hal_uart.o(i.HAL_RS485Ex_Init) refers to stm32f7xx_hal_uart.o(i.HAL_UART_MspInit) for HAL_UART_MspInit
    stm32f7xx_hal_uart.o(i.HAL_RS485Ex_Init) refers to stm32f7xx_hal_uart.o(i.UART_SetConfig) for UART_SetConfig
    stm32f7xx_hal_uart.o(i.HAL_RS485Ex_Init) refers to stm32f7xx_hal_uart.o(i.UART_AdvFeatureConfig) for UART_AdvFeatureConfig
    stm32f7xx_hal_uart.o(i.HAL_RS485Ex_Init) refers to stm32f7xx_hal_uart.o(i.UART_CheckIdleState) for UART_CheckIdleState
    stm32f7xx_hal_uart.o(i.HAL_UART_DMAStop) refers to stm32f7xx_hal_dma.o(i.HAL_DMA_Abort) for HAL_DMA_Abort
    stm32f7xx_hal_uart.o(i.HAL_UART_DMAStop) refers to stm32f7xx_hal_uart.o(i.UART_EndTxTransfer) for UART_EndTxTransfer
    stm32f7xx_hal_uart.o(i.HAL_UART_DMAStop) refers to stm32f7xx_hal_uart.o(i.UART_EndRxTransfer) for UART_EndRxTransfer
    stm32f7xx_hal_uart.o(i.HAL_UART_DeInit) refers to stm32f7xx_hal_uart.o(i.HAL_UART_MspDeInit) for HAL_UART_MspDeInit
    stm32f7xx_hal_uart.o(i.HAL_UART_IRQHandler) refers to stm32f7xx_hal_uart.o(i.UART_Receive_IT) for UART_Receive_IT
    stm32f7xx_hal_uart.o(i.HAL_UART_IRQHandler) refers to stm32f7xx_hal_uart.o(i.UART_EndRxTransfer) for UART_EndRxTransfer
    stm32f7xx_hal_uart.o(i.HAL_UART_IRQHandler) refers to stm32f7xx_hal_dma.o(i.HAL_DMA_Abort_IT) for HAL_DMA_Abort_IT
    stm32f7xx_hal_uart.o(i.HAL_UART_IRQHandler) refers to stm32f7xx_hal_uart.o(i.HAL_UART_ErrorCallback) for HAL_UART_ErrorCallback
    stm32f7xx_hal_uart.o(i.HAL_UART_IRQHandler) refers to stm32f7xx_hal_uart.o(i.UART_Transmit_IT) for UART_Transmit_IT
    stm32f7xx_hal_uart.o(i.HAL_UART_IRQHandler) refers to stm32f7xx_hal_uart.o(i.UART_EndTransmit_IT) for UART_EndTransmit_IT
    stm32f7xx_hal_uart.o(i.HAL_UART_IRQHandler) refers to stm32f7xx_hal_uart.o(i.UART_DMAAbortOnError) for UART_DMAAbortOnError
    stm32f7xx_hal_uart.o(i.HAL_UART_Init) refers to stm32f7xx_hal_uart.o(i.HAL_UART_MspInit) for HAL_UART_MspInit
    stm32f7xx_hal_uart.o(i.HAL_UART_Init) refers to stm32f7xx_hal_uart.o(i.UART_SetConfig) for UART_SetConfig
    stm32f7xx_hal_uart.o(i.HAL_UART_Init) refers to stm32f7xx_hal_uart.o(i.UART_AdvFeatureConfig) for UART_AdvFeatureConfig
    stm32f7xx_hal_uart.o(i.HAL_UART_Init) refers to stm32f7xx_hal_uart.o(i.UART_CheckIdleState) for UART_CheckIdleState
    stm32f7xx_hal_uart.o(i.HAL_UART_Receive) refers to stm32f7xx_hal.o(i.HAL_GetTick) for HAL_GetTick
    stm32f7xx_hal_uart.o(i.HAL_UART_Receive) refers to stm32f7xx_hal_uart.o(i.UART_WaitOnFlagUntilTimeout) for UART_WaitOnFlagUntilTimeout
    stm32f7xx_hal_uart.o(i.HAL_UART_Receive_DMA) refers to stm32f7xx_hal_dma.o(i.HAL_DMA_Start_IT) for HAL_DMA_Start_IT
    stm32f7xx_hal_uart.o(i.HAL_UART_Receive_DMA) refers to stm32f7xx_hal_uart.o(i.UART_DMAReceiveCplt) for UART_DMAReceiveCplt
    stm32f7xx_hal_uart.o(i.HAL_UART_Receive_DMA) refers to stm32f7xx_hal_uart.o(i.UART_DMARxHalfCplt) for UART_DMARxHalfCplt
    stm32f7xx_hal_uart.o(i.HAL_UART_Receive_DMA) refers to stm32f7xx_hal_uart.o(i.UART_DMAError) for UART_DMAError
    stm32f7xx_hal_uart.o(i.HAL_UART_Transmit) refers to stm32f7xx_hal.o(i.HAL_GetTick) for HAL_GetTick
    stm32f7xx_hal_uart.o(i.HAL_UART_Transmit) refers to stm32f7xx_hal_uart.o(i.UART_WaitOnFlagUntilTimeout) for UART_WaitOnFlagUntilTimeout
    stm32f7xx_hal_uart.o(i.HAL_UART_Transmit_DMA) refers to stm32f7xx_hal_dma.o(i.HAL_DMA_Start_IT) for HAL_DMA_Start_IT
    stm32f7xx_hal_uart.o(i.HAL_UART_Transmit_DMA) refers to stm32f7xx_hal_uart.o(i.UART_DMATransmitCplt) for UART_DMATransmitCplt
    stm32f7xx_hal_uart.o(i.HAL_UART_Transmit_DMA) refers to stm32f7xx_hal_uart.o(i.UART_DMATxHalfCplt) for UART_DMATxHalfCplt
    stm32f7xx_hal_uart.o(i.HAL_UART_Transmit_DMA) refers to stm32f7xx_hal_uart.o(i.UART_DMAError) for UART_DMAError
    stm32f7xx_hal_uart.o(i.UART_CheckIdleState) refers to stm32f7xx_hal.o(i.HAL_GetTick) for HAL_GetTick
    stm32f7xx_hal_uart.o(i.UART_CheckIdleState) refers to stm32f7xx_hal_uart.o(i.UART_WaitOnFlagUntilTimeout) for UART_WaitOnFlagUntilTimeout
    stm32f7xx_hal_uart.o(i.UART_DMAAbortOnError) refers to stm32f7xx_hal_uart.o(i.HAL_UART_ErrorCallback) for HAL_UART_ErrorCallback
    stm32f7xx_hal_uart.o(i.UART_DMAError) refers to stm32f7xx_hal_uart.o(i.UART_EndTxTransfer) for UART_EndTxTransfer
    stm32f7xx_hal_uart.o(i.UART_DMAError) refers to stm32f7xx_hal_uart.o(i.UART_EndRxTransfer) for UART_EndRxTransfer
    stm32f7xx_hal_uart.o(i.UART_DMAError) refers to stm32f7xx_hal_uart.o(i.HAL_UART_ErrorCallback) for HAL_UART_ErrorCallback
    stm32f7xx_hal_uart.o(i.UART_DMAReceiveCplt) refers to stm32f7xx_hal_uart.o(i.HAL_UART_RxCpltCallback) for HAL_UART_RxCpltCallback
    stm32f7xx_hal_uart.o(i.UART_DMARxHalfCplt) refers to stm32f7xx_hal_uart.o(i.HAL_UART_RxHalfCpltCallback) for HAL_UART_RxHalfCpltCallback
    stm32f7xx_hal_uart.o(i.UART_DMATransmitCplt) refers to stm32f7xx_hal_uart.o(i.HAL_UART_TxCpltCallback) for HAL_UART_TxCpltCallback
    stm32f7xx_hal_uart.o(i.UART_DMATxHalfCplt) refers to stm32f7xx_hal_uart.o(i.HAL_UART_TxHalfCpltCallback) for HAL_UART_TxHalfCpltCallback
    stm32f7xx_hal_uart.o(i.UART_EndTransmit_IT) refers to stm32f7xx_hal_uart.o(i.HAL_UART_TxCpltCallback) for HAL_UART_TxCpltCallback
    stm32f7xx_hal_uart.o(i.UART_Receive_IT) refers to stm32f7xx_hal_uart.o(i.HAL_UART_RxCpltCallback) for HAL_UART_RxCpltCallback
    stm32f7xx_hal_uart.o(i.UART_SetConfig) refers to stm32f7xx_hal_rcc.o(i.HAL_RCC_GetPCLK1Freq) for HAL_RCC_GetPCLK1Freq
    stm32f7xx_hal_uart.o(i.UART_SetConfig) refers to stm32f7xx_hal_rcc.o(i.HAL_RCC_GetPCLK2Freq) for HAL_RCC_GetPCLK2Freq
    stm32f7xx_hal_uart.o(i.UART_SetConfig) refers to stm32f7xx_hal_rcc.o(i.HAL_RCC_GetSysClockFreq) for HAL_RCC_GetSysClockFreq
    stm32f7xx_hal_uart.o(i.UART_WaitOnFlagUntilTimeout) refers to stm32f7xx_hal.o(i.HAL_GetTick) for HAL_GetTick
    stm32f7xx_ll_fmc.o(i.FMC_NAND_GetECC) refers to stm32f7xx_hal.o(i.HAL_GetTick) for HAL_GetTick
    stm32f7xx_ll_fmc.o(i.FMC_SDRAM_SendCommand) refers to stm32f7xx_hal.o(i.HAL_GetTick) for HAL_GetTick
    rtc.o(i.MX_RTC_Init) refers to stm32f7xx_hal_rtc.o(i.HAL_RTC_Init) for HAL_RTC_Init
    rtc.o(i.MX_RTC_Init) refers to stm32f7xx_hal_rtc.o(i.HAL_RTC_SetTime) for HAL_RTC_SetTime
    rtc.o(i.MX_RTC_Init) refers to stm32f7xx_hal_rtc.o(i.HAL_RTC_SetDate) for HAL_RTC_SetDate
    rtc.o(i.MX_RTC_Init) refers to rtc.o(.bss) for hrtc
    gpio_1.o(i.MX_GPIO_Init) refers to stm32f7xx_hal_gpio.o(i.HAL_GPIO_WritePin) for HAL_GPIO_WritePin
    gpio_1.o(i.MX_GPIO_Init) refers to stm32f7xx_hal_gpio.o(i.HAL_GPIO_Init) for HAL_GPIO_Init
    sensor.o(i._Z13startTransmitv) refers to stm32f7xx_hal_gpio.o(i.HAL_GPIO_WritePin) for HAL_GPIO_WritePin
    sensor.o(i._Z13startTransmitv) refers to sensor.o(i._Z5delayj) for delay(unsigned)
    sensor.o(i._Z8readDataPhi) refers to sensor.o(i._Z5delayj) for delay(unsigned)
    sensor.o(i._Z8readDataPhi) refers to stm32f7xx_hal_gpio.o(i.HAL_GPIO_WritePin) for HAL_GPIO_WritePin
    sensor.o(i._Z8readDataPhi) refers to stm32f7xx_hal_gpio.o(i.HAL_GPIO_ReadPin) for HAL_GPIO_ReadPin
    sensor.o(i._Z8writeCmdh) refers to sensor.o(i._Z13startTransmitv) for startTransmit()
    sensor.o(i._Z8writeCmdh) refers to sensor.o(i._Z9writeDatah) for writeData(unsigned char)
    sensor.o(i._Z9writeDatah) refers to stm32f7xx_hal_gpio.o(i.HAL_GPIO_WritePin) for HAL_GPIO_WritePin
    sensor.o(i._Z9writeDatah) refers to sensor.o(i._Z5delayj) for delay(unsigned)
    sensor.o(i._ZN6sensor5resetEv) refers to stm32f7xx_hal_gpio.o(i.HAL_GPIO_WritePin) for HAL_GPIO_WritePin
    sensor.o(i._ZN6sensor5resetEv) refers to sensor.o(i._Z5delayj) for delay(unsigned)
    sensor.o(i._ZN6sensor7getHumiEv) refers to sensor.o(i._Z8readDataPhi) for readData(unsigned char*, int)
    sensor.o(i._ZN6sensor7getHumiEv) refers to dflt_clz.o(x$fpl$dflt) for __aeabi_i2d
    sensor.o(i._ZN6sensor7getHumiEv) refers to dmul.o(x$fpl$dmul) for __aeabi_dmul
    sensor.o(i._ZN6sensor7getHumiEv) refers to daddsub_clz.o(x$fpl$dsub) for __aeabi_dsub
    sensor.o(i._ZN6sensor7getHumiEv) refers to dleqf.o(x$fpl$dleqf) for __aeabi_cdcmple
    sensor.o(i._ZN6sensor7getHumiEv) refers to daddsub_clz.o(x$fpl$dadd) for __aeabi_dadd
    sensor.o(i._ZN6sensor7getHumiEv) refers to dfix.o(x$fpl$dfix) for __aeabi_d2iz
    sensor.o(i._ZN6sensor7getTempEv) refers to sensor.o(i._Z8readDataPhi) for readData(unsigned char*, int)
    sensor.o(i._ZN6sensor7getTempEv) refers to dflt_clz.o(x$fpl$dflt) for __aeabi_i2d
    sensor.o(i._ZN6sensor7getTempEv) refers to dmul.o(x$fpl$dmul) for __aeabi_dmul
    sensor.o(i._ZN6sensor7getTempEv) refers to daddsub_clz.o(x$fpl$dsub) for __aeabi_dsub
    sensor.o(i._ZN6sensor7getTempEv) refers to dleqf.o(x$fpl$dleqf) for __aeabi_cdcmple
    sensor.o(i._ZN6sensor7getTempEv) refers to daddsub_clz.o(x$fpl$dadd) for __aeabi_dadd
    sensor.o(i._ZN6sensor7getTempEv) refers to dfix.o(x$fpl$dfix) for __aeabi_d2iz
    sensor.o(i._ZN6sensor8trigHumiEv) refers to sensor.o(i._Z8writeCmdh) for writeCmd(unsigned char)
    sensor.o(i._ZN6sensor8trigTempEv) refers to sensor.o(i._Z8writeCmdh) for writeCmd(unsigned char)
    sensor.o(i._ZN6sensor9humiReadyEv) refers to stm32f7xx_hal_gpio.o(i.HAL_GPIO_ReadPin) for HAL_GPIO_ReadPin
    sensor.o(i._ZN6sensor9tempReadyEv) refers to stm32f7xx_hal_gpio.o(i.HAL_GPIO_ReadPin) for HAL_GPIO_ReadPin
    sensor.o(.ARM.exidx) refers to sensor.o(i._Z5delayj) for i._Z5delayj
    sensor.o(.ARM.exidx) refers to sensor.o(i._Z13startTransmitv) for i._Z13startTransmitv
    sensor.o(.ARM.exidx) refers to sensor.o(i._Z9writeDatah) for i._Z9writeDatah
    sensor.o(.ARM.exidx) refers to sensor.o(i._Z8readDataPhi) for i._Z8readDataPhi
    sensor.o(.ARM.exidx) refers to sensor.o(i._Z8writeCmdh) for i._Z8writeCmdh
    sensor.o(.ARM.exidx) refers to sensor.o(i._ZN6sensorC1Ev) for i._ZN6sensorC1Ev
    sensor.o(.ARM.exidx) refers to sensor.o(i._ZN6sensorD1Ev) for i._ZN6sensorD1Ev
    sensor.o(.ARM.exidx) refers to sensor.o(i._ZN6sensor8trigTempEv) for i._ZN6sensor8trigTempEv
    sensor.o(.ARM.exidx) refers to sensor.o(i._ZN6sensor8trigHumiEv) for i._ZN6sensor8trigHumiEv
    sensor.o(.ARM.exidx) refers to sensor.o(i._ZN6sensor9tempReadyEv) for i._ZN6sensor9tempReadyEv
    sensor.o(.ARM.exidx) refers to sensor.o(i._ZN6sensor9humiReadyEv) for i._ZN6sensor9humiReadyEv
    sensor.o(.ARM.exidx) refers to sensor.o(i._ZN6sensor7getTempEv) for i._ZN6sensor7getTempEv
    sensor.o(.ARM.exidx) refers to sensor.o(i._ZN6sensor7getHumiEv) for i._ZN6sensor7getHumiEv
    sensor.o(.ARM.exidx) refers to sensor.o(i._ZN6sensor5resetEv) for i._ZN6sensor5resetEv
    opsocket.o(i._ZN8opSocket10getOpStateEv) refers to stm32f7xx_hal_gpio.o(i.HAL_GPIO_ReadPin) for HAL_GPIO_ReadPin
    opsocket.o(i._ZN8opSocket10setOpStateEb) refers to stm32f7xx_hal_gpio.o(i.HAL_GPIO_WritePin) for HAL_GPIO_WritePin
    opsocket.o(.ARM.exidx) refers to opsocket.o(i._ZN8opSocket10setOpStateEb) for i._ZN8opSocket10setOpStateEb
    opsocket.o(.ARM.exidx) refers to opsocket.o(i._ZN8opSocket10getOpStateEv) for i._ZN8opSocket10getOpStateEv
    actuator.o(i._ZN8actuator10disconnectEv) refers to opsocket.o(i._ZN8opSocket10setOpStateEb) for opSocket::setOpState(bool)
    actuator.o(i._ZN8actuator8getStateEv) refers to opsocket.o(i._ZN8opSocket10getOpStateEv) for opSocket::getOpState()
    actuator.o(i._ZN8actuator8setStateEb) refers to opsocket.o(i._ZN8opSocket10setOpStateEb) for opSocket::setOpState(bool)
    actuator.o(.ARM.exidx) refers to actuator.o(i._ZN8actuator10disconnectEv) for i._ZN8actuator10disconnectEv
    actuator.o(.ARM.exidx) refers to actuator.o(i._ZN8actuator8setStateEb) for i._ZN8actuator8setStateEb
    actuator.o(.ARM.exidx) refers to actuator.o(i._ZN8actuator8getStateEv) for i._ZN8actuator8getStateEv
    actuator.o(.ARM.exidx) refers to actuator.o(i._ZN8actuator11setOpSocketERK8opSocket) for i._ZN8actuator11setOpSocketERK8opSocket
    actuator.o(.ARM.exidx) refers to actuator.o(i._ZN8actuator11getOpSocketEv) for i._ZN8actuator11getOpSocketEv
    clocktime.o(i._ZN9clockTime5isDayERS_S0_) refers to clocktime.o(i._ZN9clockTime6equalsERS_) for clockTime::equals(clockTime&)
    clocktime.o(i._ZN9clockTime5isDayERS_S0_) refers to clocktime.o(i._ZN9clockTime6incMinEv) for clockTime::incMin()
    clocktime.o(i._ZN9clockTime5isDayERS_S0_) refers to clocktime.o(i._ZN9clockTime6getMinEv) for clockTime::getMin()
    clocktime.o(i._ZN9clockTime5isDayERS_S0_) refers to clocktime.o(i._ZN9clockTime7incHourEv) for clockTime::incHour()
    clocktime.o(.ARM.exidx) refers to clocktime.o(i._ZN9clockTime6incMinEv) for i._ZN9clockTime6incMinEv
    clocktime.o(.ARM.exidx) refers to clocktime.o(i._ZN9clockTime7incHourEv) for i._ZN9clockTime7incHourEv
    clocktime.o(.ARM.exidx) refers to clocktime.o(i._ZN9clockTime6getMinEv) for i._ZN9clockTime6getMinEv
    clocktime.o(.ARM.exidx) refers to clocktime.o(i._ZN9clockTime7getHourEv) for i._ZN9clockTime7getHourEv
    clocktime.o(.ARM.exidx) refers to clocktime.o(i._ZN9clockTime6equalsERS_) for i._ZN9clockTime6equalsERS_
    clocktime.o(.ARM.exidx) refers to clocktime.o(i._ZN9clockTime5isDayERS_S0_) for i._ZN9clockTime5isDayERS_S0_
    abstractpartition.o(i._ZN8touchgfx17AbstractPartition10allocateAtEtt) refers to abort.o(.text) for abort
    abstractpartition.o(i._ZN8touchgfx17AbstractPartition7indexOfEPKv) refers to abort.o(.text) for abort
    abstractpartition.o(i._ZN8touchgfx17AbstractPartition8allocateEt) refers to abort.o(.text) for abort
    abstractpartition.o(i._ZN8touchgfx17AbstractPartitionC2Ev) refers to abstractpartition.o(.constdata__ZTVN8touchgfx17AbstractPartitionE) for vtable for touchgfx::AbstractPartition
    abstractpartition.o(i._ZN8touchgfx17AbstractPartitionD0Ev) refers to delete.o(i._ZdlPv) for operator delete (void*)
    abstractpartition.o(.ARM.exidx) refers to abstractpartition.o(i._ZN8touchgfx17AbstractPartitionD2Ev) for i._ZN8touchgfx17AbstractPartitionD2Ev
    abstractpartition.o(.ARM.exidx) refers to abstractpartition.o(i._ZN8touchgfx17AbstractPartitionD0Ev) for i._ZN8touchgfx17AbstractPartitionD0Ev
    abstractpartition.o(.ARM.exidx) refers to abstractpartition.o(i._ZN8touchgfx17AbstractPartition8allocateEt) for i._ZN8touchgfx17AbstractPartition8allocateEt
    abstractpartition.o(.ARM.exidx) refers to abstractpartition.o(i._ZN8touchgfx17AbstractPartition10allocateAtEtt) for i._ZN8touchgfx17AbstractPartition10allocateAtEtt
    abstractpartition.o(.ARM.exidx) refers to abstractpartition.o(i._ZNK8touchgfx17AbstractPartition18getAllocationCountEv) for i._ZNK8touchgfx17AbstractPartition18getAllocationCountEv
    abstractpartition.o(.ARM.exidx) refers to abstractpartition.o(i._ZN8touchgfx17AbstractPartition7indexOfEPKv) for i._ZN8touchgfx17AbstractPartition7indexOfEPKv
    abstractpartition.o(.ARM.exidx) refers to abstractpartition.o(i._ZN8touchgfx17AbstractPartition5clearEv) for i._ZN8touchgfx17AbstractPartition5clearEv
    abstractpartition.o(.ARM.exidx) refers to abstractpartition.o(i._ZN8touchgfx17AbstractPartitionC2Ev) for i._ZN8touchgfx17AbstractPartitionC2Ev
    lcd16bpp.o(i._ZN8touchgfx8LCD16bpp16blitCopyARGB8888EPKjRKNS_4RectES5_h) refers to displaytransformation.o(i._ZN8touchgfx21DisplayTransformation29transformDisplayToFrameBufferERNS_4RectE) for touchgfx::DisplayTransformation::transformDisplayToFrameBuffer(touchgfx::Rect&)
    lcd16bpp.o(i._ZN8touchgfx8LCD16bpp16blitCopyARGB8888EPKjRKNS_4RectES5_h) refers to displaytransformation.o(i._ZN8touchgfx21DisplayTransformation29transformDisplayToFrameBufferERNS_4RectERKS1_) for touchgfx::DisplayTransformation::transformDisplayToFrameBuffer(touchgfx::Rect&, const touchgfx::Rect&)
    lcd16bpp.o(i._ZN8touchgfx8LCD16bpp16blitCopyARGB8888EPKjRKNS_4RectES5_h) refers to hal.o(.data) for touchgfx::HAL::instance
    lcd16bpp.o(i._ZN8touchgfx8LCD16bpp17drawPartialBitmapERKNS_6BitmapEssRKNS_4RectEhb) refers to bitmap.o(i._ZNK8touchgfx6Bitmap9getHeightEv) for touchgfx::Bitmap::getHeight() const
    lcd16bpp.o(i._ZN8touchgfx8LCD16bpp17drawPartialBitmapERKNS_6BitmapEssRKNS_4RectEhb) refers to bitmap.o(i._ZNK8touchgfx6Bitmap8getWidthEv) for touchgfx::Bitmap::getWidth() const
    lcd16bpp.o(i._ZN8touchgfx8LCD16bpp17drawPartialBitmapERKNS_6BitmapEssRKNS_4RectEhb) refers to datetimesettingsscreenviewbase.o(i._ZN8touchgfx4RectC1Essss) for touchgfx::Rect::Rect(short, short, short, short)
    lcd16bpp.o(i._ZN8touchgfx8LCD16bpp17drawPartialBitmapERKNS_6BitmapEssRKNS_4RectEhb) refers to bitmap.o(i._ZNK8touchgfx6Bitmap9getFormatEv) for touchgfx::Bitmap::getFormat() const
    lcd16bpp.o(i._ZN8touchgfx8LCD16bpp17drawPartialBitmapERKNS_6BitmapEssRKNS_4RectEhb) refers to bitmap.o(i._ZNK8touchgfx6Bitmap7getDataEv) for touchgfx::Bitmap::getData() const
    lcd16bpp.o(i._ZN8touchgfx8LCD16bpp17drawPartialBitmapERKNS_6BitmapEssRKNS_4RectEhb) refers to bitmap.o(i._ZNK8touchgfx6Bitmap12getAlphaDataEv) for touchgfx::Bitmap::getAlphaData() const
    lcd16bpp.o(i._ZN8touchgfx8LCD16bpp17drawPartialBitmapERKNS_6BitmapEssRKNS_4RectEhb) refers to bitmap.o(i._ZNK8touchgfx6Bitmap20hasTransparentPixelsEv) for touchgfx::Bitmap::hasTransparentPixels() const
    lcd16bpp.o(i._ZN8touchgfx8LCD16bpp17drawPartialBitmapERKNS_6BitmapEssRKNS_4RectEhb) refers to bitmap.o(i._ZNK8touchgfx6Bitmap12getSolidRectEv) for touchgfx::Bitmap::getSolidRect() const
    lcd16bpp.o(i._ZN8touchgfx8LCD16bpp17drawPartialBitmapERKNS_6BitmapEssRKNS_4RectEhb) refers to application.o(i._ZN8touchgfx4RectaNERKS0_) for touchgfx::Rect::operator &=(const touchgfx::Rect&)
    lcd16bpp.o(i._ZN8touchgfx8LCD16bpp17drawPartialBitmapERKNS_6BitmapEssRKNS_4RectEhb) refers to lcd16bpp.o(i._ZNK8touchgfx4Rect7isEmptyEv) for touchgfx::Rect::isEmpty() const
    lcd16bpp.o(i._ZN8touchgfx8LCD16bpp17drawPartialBitmapERKNS_6BitmapEssRKNS_4RectEhb) refers to abort.o(.text) for abort
    lcd16bpp.o(i._ZN8touchgfx8LCD16bpp17drawPartialBitmapERKNS_6BitmapEssRKNS_4RectEhb) refers to lcd16bpp.o(i._ZN8touchgfx8LCD16bpp16blitCopyARGB8888EPKjRKNS_4RectES5_h) for touchgfx::LCD16bpp::blitCopyARGB8888(const unsigned*, const touchgfx::Rect&, const touchgfx::Rect&, unsigned char)
    lcd16bpp.o(i._ZN8touchgfx8LCD16bpp17drawPartialBitmapERKNS_6BitmapEssRKNS_4RectEhb) refers to lcd16bpp.o(i._ZN8touchgfx8LCD16bpp21blitCopyAlphaPerPixelEPKtPKhRKNS_4RectES7_h) for touchgfx::LCD16bpp::blitCopyAlphaPerPixel(const unsigned short*, const unsigned char*, const touchgfx::Rect&, const touchgfx::Rect&, unsigned char)
    lcd16bpp.o(i._ZN8touchgfx8LCD16bpp17drawPartialBitmapERKNS_6BitmapEssRKNS_4RectEhb) refers to lcd16bpp.o(i._ZNK8touchgfx4Rect5rightEv) for touchgfx::Rect::right() const
    lcd16bpp.o(i._ZN8touchgfx8LCD16bpp17drawPartialBitmapERKNS_6BitmapEssRKNS_4RectEhb) refers to lcd16bpp.o(i._ZNK8touchgfx4Rect6bottomEv) for touchgfx::Rect::bottom() const
    lcd16bpp.o(i._ZN8touchgfx8LCD16bpp21blitCopyAlphaPerPixelEPKtPKhRKNS_4RectES7_h) refers to displaytransformation.o(i._ZN8touchgfx21DisplayTransformation29transformDisplayToFrameBufferERNS_4RectE) for touchgfx::DisplayTransformation::transformDisplayToFrameBuffer(touchgfx::Rect&)
    lcd16bpp.o(i._ZN8touchgfx8LCD16bpp21blitCopyAlphaPerPixelEPKtPKhRKNS_4RectES7_h) refers to displaytransformation.o(i._ZN8touchgfx21DisplayTransformation29transformDisplayToFrameBufferERNS_4RectERKS1_) for touchgfx::DisplayTransformation::transformDisplayToFrameBuffer(touchgfx::Rect&, const touchgfx::Rect&)
    lcd16bpp.o(i._ZN8touchgfx8LCD16bpp21blitCopyAlphaPerPixelEPKtPKhRKNS_4RectES7_h) refers to hal.o(.data) for touchgfx::HAL::instance
    lcd16bpp.o(i._ZN8touchgfx8LCD16bpp22drawTextureMapScanLineERKNS_14DrawingSurfaceERKNS_9GradientsEPKNS_4EdgeES9_RKNS_14TextureSurfaceERKNS_4RectESF_tht) refers to datetimesettingsscreenviewbase.o(i._ZN8touchgfx4RectC1Essss) for touchgfx::Rect::Rect(short, short, short, short)
    lcd16bpp.o(i._ZN8touchgfx8LCD16bpp22drawTextureMapScanLineERKNS_14DrawingSurfaceERKNS_9GradientsEPKNS_4EdgeES9_RKNS_14TextureSurfaceERKNS_4RectESF_tht) refers to displaytransformation.o(i._ZN8touchgfx21DisplayTransformation29transformDisplayToFrameBufferERNS_4RectE) for touchgfx::DisplayTransformation::transformDisplayToFrameBuffer(touchgfx::Rect&)
    lcd16bpp.o(i._ZN8touchgfx8LCD16bpp22drawTextureMapScanLineERKNS_14DrawingSurfaceERKNS_9GradientsEPKNS_4EdgeES9_RKNS_14TextureSurfaceERKNS_4RectESF_tht) refers to lcd16bpp.o(i._ZNK8touchgfx4Rect5rightEv) for touchgfx::Rect::right() const
    lcd16bpp.o(i._ZN8touchgfx8LCD16bpp22drawTextureMapScanLineERKNS_14DrawingSurfaceERKNS_9GradientsEPKNS_4EdgeES9_RKNS_14TextureSurfaceERKNS_4RectESF_tht) refers to lcd16bpp.o(i._ZN8touchgfx17floatToFixed16_16Ef) for touchgfx::floatToFixed16_16(float)
    lcd16bpp.o(i._ZN8touchgfx8LCD16bpp22drawTextureMapScanLineERKNS_14DrawingSurfaceERKNS_9GradientsEPKNS_4EdgeES9_RKNS_14TextureSurfaceERKNS_4RectESF_tht) refers to lcd16bpp.o(i._ZN8touchgfx26LCD16bilinearInterpolate2DEffffff) for touchgfx::LCD16bilinearInterpolate2D(float, float, float, float, float, float)
    lcd16bpp.o(i._ZN8touchgfx8LCD16bpp22drawTextureMapScanLineERKNS_14DrawingSurfaceERKNS_9GradientsEPKNS_4EdgeES9_RKNS_14TextureSurfaceERKNS_4RectESF_tht) refers to lcd16bpp.o(i._ZN8touchgfx26LCD16bilinearInterpolate2DEffffffh) for touchgfx::LCD16bilinearInterpolate2D(float, float, float, float, float, float, unsigned char)
    lcd16bpp.o(i._ZN8touchgfx8LCD16bpp22drawTextureMapScanLineERKNS_14DrawingSurfaceERKNS_9GradientsEPKNS_4EdgeES9_RKNS_14TextureSurfaceERKNS_4RectESF_tht) refers to lcd16bpp.o(i._ZN8touchgfx14expand_rgb_565Et) for touchgfx::expand_rgb_565(unsigned short)
    lcd16bpp.o(i._ZN8touchgfx8LCD16bpp29copyFrameBufferRegionToMemoryERKNS_4RectE) refers to displaytransformation.o(i._ZN8touchgfx21DisplayTransformation29transformDisplayToFrameBufferERNS_4RectE) for touchgfx::DisplayTransformation::transformDisplayToFrameBuffer(touchgfx::Rect&)
    lcd16bpp.o(i._ZN8touchgfx8LCD16bpp29copyFrameBufferRegionToMemoryERKNS_4RectE) refers to abort.o(.text) for abort
    lcd16bpp.o(i._ZN8touchgfx8LCD16bpp29copyFrameBufferRegionToMemoryERKNS_4RectE) refers to hal.o(.data) for touchgfx::HAL::instance
    lcd16bpp.o(i._ZN8touchgfx8LCD16bpp8blitCopyEPKhNS_6Bitmap12BitmapFormatERKNS_4RectES7_hb) refers to lcd16bpp.o(i._ZN8touchgfx8LCD16bpp16blitCopyARGB8888EPKjRKNS_4RectES5_h) for touchgfx::LCD16bpp::blitCopyARGB8888(const unsigned*, const touchgfx::Rect&, const touchgfx::Rect&, unsigned char)
    lcd16bpp.o(i._ZN8touchgfx8LCD16bpp8blitCopyEPKhNS_6Bitmap12BitmapFormatERKNS_4RectES7_hb) refers to abort.o(.text) for abort
    lcd16bpp.o(i._ZN8touchgfx8LCD16bpp8blitCopyEPKtRKNS_4RectES5_hb) refers to displaytransformation.o(i._ZN8touchgfx21DisplayTransformation29transformDisplayToFrameBufferERNS_4RectE) for touchgfx::DisplayTransformation::transformDisplayToFrameBuffer(touchgfx::Rect&)
    lcd16bpp.o(i._ZN8touchgfx8LCD16bpp8blitCopyEPKtRKNS_4RectES5_hb) refers to displaytransformation.o(i._ZN8touchgfx21DisplayTransformation29transformDisplayToFrameBufferERNS_4RectERKS1_) for touchgfx::DisplayTransformation::transformDisplayToFrameBuffer(touchgfx::Rect&, const touchgfx::Rect&)
    lcd16bpp.o(i._ZN8touchgfx8LCD16bpp8blitCopyEPKtRKNS_4RectES5_hb) refers to hal.o(.data) for touchgfx::HAL::instance
    lcd16bpp.o(i._ZN8touchgfx8LCD16bpp8fillRectERKNS_4RectENS_9colortypeEh) refers to lcd16bpp.o(i._ZNK8touchgfx4Rect7isEmptyEv) for touchgfx::Rect::isEmpty() const
    lcd16bpp.o(i._ZN8touchgfx8LCD16bpp8fillRectERKNS_4RectENS_9colortypeEh) refers to displaytransformation.o(i._ZN8touchgfx21DisplayTransformation29transformDisplayToFrameBufferERNS_4RectE) for touchgfx::DisplayTransformation::transformDisplayToFrameBuffer(touchgfx::Rect&)
    lcd16bpp.o(i._ZN8touchgfx8LCD16bpp8fillRectERKNS_4RectENS_9colortypeEh) refers to hal.o(.data) for touchgfx::HAL::instance
    lcd16bpp.o(i._ZN8touchgfx8LCD16bpp8nextLineEbNS_12TextRotationE) refers to hal.o(.data) for touchgfx::HAL::FRAME_BUFFER_WIDTH
    lcd16bpp.o(i._ZN8touchgfx8LCD16bpp9drawGlyphEPtNS_4RectEssttRKS2_PKNS_9GlyphNodeEPKhNS_9colortypeEhhNS_12TextRotationE) refers to lcd16bpp.o(i._ZNK8touchgfx4Rect5rightEv) for touchgfx::Rect::right() const
    lcd16bpp.o(i._ZN8touchgfx8LCD16bpp9drawGlyphEPtNS_4RectEssttRKS2_PKNS_9GlyphNodeEPKhNS_9colortypeEhhNS_12TextRotationE) refers to lcd16bpp.o(i._ZNK8touchgfx4Rect6bottomEv) for touchgfx::Rect::bottom() const
    lcd16bpp.o(i._ZN8touchgfx8LCD16bpp9drawGlyphEPtNS_4RectEssttRKS2_PKNS_9GlyphNodeEPKhNS_9colortypeEhhNS_12TextRotationE) refers to lcd.o(i._ZN8touchgfx3LCD5realXERKNS_4RectEssNS_12TextRotationE) for touchgfx::LCD::realX(const touchgfx::Rect&, short, short, touchgfx::TextRotation)
    lcd16bpp.o(i._ZN8touchgfx8LCD16bpp9drawGlyphEPtNS_4RectEssttRKS2_PKNS_9GlyphNodeEPKhNS_9colortypeEhhNS_12TextRotationE) refers to lcd.o(i._ZN8touchgfx3LCD5realYERKNS_4RectEssNS_12TextRotationE) for touchgfx::LCD::realY(const touchgfx::Rect&, short, short, touchgfx::TextRotation)
    lcd16bpp.o(i._ZN8touchgfx8LCD16bpp9drawGlyphEPtNS_4RectEssttRKS2_PKNS_9GlyphNodeEPKhNS_9colortypeEhhNS_12TextRotationE) refers to displaytransformation.o(i._ZN8touchgfx21DisplayTransformation29transformDisplayToFrameBufferERsS1_) for touchgfx::DisplayTransformation::transformDisplayToFrameBuffer(short&, short&)
    lcd16bpp.o(i._ZN8touchgfx8LCD16bpp9drawGlyphEPtNS_4RectEssttRKS2_PKNS_9GlyphNodeEPKhNS_9colortypeEhhNS_12TextRotationE) refers to lcd16bpp.o(i._ZN8touchgfx8LCD16bpp9nextPixelEbNS_12TextRotationE) for touchgfx::LCD16bpp::nextPixel(bool, touchgfx::TextRotation)
    lcd16bpp.o(i._ZN8touchgfx8LCD16bpp9drawGlyphEPtNS_4RectEssttRKS2_PKNS_9GlyphNodeEPKhNS_9colortypeEhhNS_12TextRotationE) refers to lcd16bpp.o(i._ZN8touchgfx8LCD16bpp8nextLineEbNS_12TextRotationE) for touchgfx::LCD16bpp::nextLine(bool, touchgfx::TextRotation)
    lcd16bpp.o(i._ZN8touchgfx8LCD16bpp9drawGlyphEPtNS_4RectEssttRKS2_PKNS_9GlyphNodeEPKhNS_9colortypeEhhNS_12TextRotationE) refers to hal.o(.data) for touchgfx::HAL::DISPLAY_ROTATION
    lcd16bpp.o(i._ZN8touchgfx8LCD16bpp9nextPixelEbNS_12TextRotationE) refers to hal.o(.data) for touchgfx::HAL::FRAME_BUFFER_WIDTH
    lcd16bpp.o(.ARM.exidx) refers to lcd16bpp.o(i._ZN8touchgfx8LCD16bpp4initEv) for i._ZN8touchgfx8LCD16bpp4initEv
    lcd16bpp.o(.ARM.exidx) refers to lcd16bpp.o(i._ZN8touchgfx8LCD16bpp21blitCopyAlphaPerPixelEPKtPKhRKNS_4RectES7_h) for i._ZN8touchgfx8LCD16bpp21blitCopyAlphaPerPixelEPKtPKhRKNS_4RectES7_h
    lcd16bpp.o(.ARM.exidx) refers to lcd16bpp.o(i._ZN8touchgfx8LCD16bpp16blitCopyARGB8888EPKjRKNS_4RectES5_h) for i._ZN8touchgfx8LCD16bpp16blitCopyARGB8888EPKjRKNS_4RectES5_h
    lcd16bpp.o(.ARM.exidx) refers to lcd16bpp.o(i._ZN8touchgfx8LCD16bpp17drawPartialBitmapERKNS_6BitmapEssRKNS_4RectEhb) for i._ZN8touchgfx8LCD16bpp17drawPartialBitmapERKNS_6BitmapEssRKNS_4RectEhb
    lcd16bpp.o(.ARM.exidx) refers to lcd16bpp.o(i._ZN8touchgfx8LCD16bpp8blitCopyEPKtRKNS_4RectES5_hb) for i._ZN8touchgfx8LCD16bpp8blitCopyEPKtRKNS_4RectES5_hb
    lcd16bpp.o(.ARM.exidx) refers to lcd16bpp.o(i._ZN8touchgfx8LCD16bpp8blitCopyEPKhNS_6Bitmap12BitmapFormatERKNS_4RectES7_hb) for i._ZN8touchgfx8LCD16bpp8blitCopyEPKhNS_6Bitmap12BitmapFormatERKNS_4RectES7_hb
    lcd16bpp.o(.ARM.exidx) refers to lcd16bpp.o(i._ZN8touchgfx8LCD16bpp29copyFrameBufferRegionToMemoryERKNS_4RectE) for i._ZN8touchgfx8LCD16bpp29copyFrameBufferRegionToMemoryERKNS_4RectE
    lcd16bpp.o(.ARM.exidx) refers to lcd16bpp.o(i._ZN8touchgfx8LCD16bpp8fillRectERKNS_4RectENS_9colortypeEh) for i._ZN8touchgfx8LCD16bpp8fillRectERKNS_4RectENS_9colortypeEh
    lcd16bpp.o(.ARM.exidx) refers to lcd16bpp.o(i._ZN8touchgfx8LCD16bpp22drawTextureMapScanLineERKNS_14DrawingSurfaceERKNS_9GradientsEPKNS_4EdgeES9_RKNS_14TextureSurfaceERKNS_4RectESF_tht) for i._ZN8touchgfx8LCD16bpp22drawTextureMapScanLineERKNS_14DrawingSurfaceERKNS_9GradientsEPKNS_4EdgeES9_RKNS_14TextureSurfaceERKNS_4RectESF_tht
    lcd16bpp.o(.ARM.exidx) refers to lcd16bpp.o(i._ZN8touchgfx8LCD16bpp9nextPixelEbNS_12TextRotationE) for i._ZN8touchgfx8LCD16bpp9nextPixelEbNS_12TextRotationE
    lcd16bpp.o(.ARM.exidx) refers to lcd16bpp.o(i._ZN8touchgfx8LCD16bpp8nextLineEbNS_12TextRotationE) for i._ZN8touchgfx8LCD16bpp8nextLineEbNS_12TextRotationE
    lcd16bpp.o(.ARM.exidx) refers to lcd16bpp.o(i._ZN8touchgfx8LCD16bpp9drawGlyphEPtNS_4RectEssttRKS2_PKNS_9GlyphNodeEPKhNS_9colortypeEhhNS_12TextRotationE) for i._ZN8touchgfx8LCD16bpp9drawGlyphEPtNS_4RectEssttRKS2_PKNS_9GlyphNodeEPKhNS_9colortypeEhhNS_12TextRotationE
    lcd16bpp.o(.ARM.exidx) refers to lcd16bpp.o(i._ZN8touchgfx14expand_rgb_565Et) for i._ZN8touchgfx14expand_rgb_565Et
    abstractbutton.o(.ARM.exidx) refers to abstractbutton.o(i._ZN8touchgfx14AbstractButton16handleClickEventERKNS_10ClickEventE) for i._ZN8touchgfx14AbstractButton16handleClickEventERKNS_10ClickEventE
    application.o(i._ZN8touchgfx11Application11getInstanceEv) refers to application.o(.data) for .data
    application.o(i._ZN8touchgfx11Application12switchScreenEPNS_6ScreenE) refers to abort.o(.text) for abort
    application.o(i._ZN8touchgfx11Application12switchScreenEPNS_6ScreenE) refers to application.o(.data) for .data
    application.o(i._ZN8touchgfx11Application14handleKeyEventEh) refers to application.o(.data) for .data
    application.o(i._ZN8touchgfx11Application14invalidateAreaENS_4RectE) refers to lcd16bpp.o(i._ZNK8touchgfx4Rect7isEmptyEv) for touchgfx::Rect::isEmpty() const
    application.o(i._ZN8touchgfx11Application14invalidateAreaENS_4RectE) refers to application.o(i._ZNK8touchgfx4Rect8includesERKS0_) for touchgfx::Rect::includes(const touchgfx::Rect&) const
    application.o(i._ZN8touchgfx11Application14invalidateAreaENS_4RectE) refers to application.o(t._ZN8touchgfx6VectorINS_4RectELt8EE13quickRemoveAtEt) for touchgfx::Vector<touchgfx::Rect, (unsigned short)8>::quickRemoveAt(unsigned short)
    application.o(i._ZN8touchgfx11Application14invalidateAreaENS_4RectE) refers to application.o(i._ZNK8touchgfx4Rect9intersectERKS0_) for touchgfx::Rect::intersect(const touchgfx::Rect&) const
    application.o(i._ZN8touchgfx11Application14invalidateAreaENS_4RectE) refers to application.o(i._ZN8touchgfx4Rect11expandToFitERKS0_) for touchgfx::Rect::expandToFit(const touchgfx::Rect&)
    application.o(i._ZN8touchgfx11Application14invalidateAreaENS_4RectE) refers to application.o(t._ZN8touchgfx6VectorINS_4RectELt8EE3addES1_) for touchgfx::Vector<touchgfx::Rect, (unsigned short)8>::add(touchgfx::Rect)
    application.o(i._ZN8touchgfx11Application15handleDragEventERKNS_9DragEventE) refers to application.o(.data) for .data
    application.o(i._ZN8touchgfx11Application15handleTickEventEv) refers to application.o(.data) for .data
    application.o(i._ZN8touchgfx11Application16handleClickEventERKNS_10ClickEventE) refers to application.o(.data) for .data
    application.o(i._ZN8touchgfx11Application18handleGestureEventERKNS_12GestureEventE) refers to application.o(.data) for .data
    application.o(i._ZN8touchgfx11Application19cacheDrawOperationsEb) refers to application.o(i._ZN8touchgfx8nextRandEv) for touchgfx::nextRand()
    application.o(i._ZN8touchgfx11Application19cacheDrawOperationsEb) refers to application.o(i._ZN8touchgfx11Application14invalidateAreaENS_4RectE) for touchgfx::Application::invalidateArea(touchgfx::Rect)
    application.o(i._ZN8touchgfx11Application19cacheDrawOperationsEb) refers to application.o(t._ZN8touchgfx6VectorINS_4RectELt8EEC1Ev) for touchgfx::Vector<touchgfx::Rect, (unsigned short)8>::Vector()
    application.o(i._ZN8touchgfx11Application19cacheDrawOperationsEb) refers to application.o(t._ZN8touchgfx6VectorINS_4RectELt8EE3addES1_) for touchgfx::Vector<touchgfx::Rect, (unsigned short)8>::add(touchgfx::Rect)
    application.o(i._ZN8touchgfx11Application19cacheDrawOperationsEb) refers to lcd16bpp.o(i._ZNK8touchgfx4Rect6bottomEv) for touchgfx::Rect::bottom() const
    application.o(i._ZN8touchgfx11Application19cacheDrawOperationsEb) refers to datetimesettingsscreenviewbase.o(i._ZN8touchgfx4RectC1Essss) for touchgfx::Rect::Rect(short, short, short, short)
    application.o(i._ZN8touchgfx11Application19cacheDrawOperationsEb) refers to application.o(i._ZNK8touchgfx4RectanERKS0_) for touchgfx::Rect::operator &(const touchgfx::Rect&) const
    application.o(i._ZN8touchgfx11Application19cacheDrawOperationsEb) refers to lcd16bpp.o(i._ZNK8touchgfx4Rect7isEmptyEv) for touchgfx::Rect::isEmpty() const
    application.o(i._ZN8touchgfx11Application19cacheDrawOperationsEb) refers to application.o(.data) for .data
    application.o(i._ZN8touchgfx11Application19cacheDrawOperationsEb) refers to hal.o(.data) for touchgfx::HAL::DISPLAY_HEIGHT
    application.o(i._ZN8touchgfx11Application19registerTimerWidgetEPNS_8DrawableE) refers to abort.o(.text) for abort
    application.o(i._ZN8touchgfx11Application4drawERNS_4RectE) refers to datetimesettingsscreenviewbase.o(i._ZN8touchgfx4RectC1Essss) for touchgfx::Rect::Rect(short, short, short, short)
    application.o(i._ZN8touchgfx11Application4drawERNS_4RectE) refers to application.o(i._ZNK8touchgfx4RectanERKS0_) for touchgfx::Rect::operator &(const touchgfx::Rect&) const
    application.o(i._ZN8touchgfx11Application4drawERNS_4RectE) refers to application.o(i._ZN8touchgfx11Application14invalidateAreaENS_4RectE) for touchgfx::Application::invalidateArea(touchgfx::Rect)
    application.o(i._ZN8touchgfx11Application4drawERNS_4RectE) refers to application.o(i._ZN8touchgfx8enableFlERNS_4RectE) for touchgfx::enableFl(touchgfx::Rect&)
    application.o(i._ZN8touchgfx11Application4drawERNS_4RectE) refers to hal.o(.data) for touchgfx::HAL::DISPLAY_HEIGHT
    application.o(i._ZN8touchgfx11Application4drawERNS_4RectE) refers to application.o(.data) for .data
    application.o(i._ZN8touchgfx11Application4drawEv) refers to datetimesettingsscreenviewbase.o(i._ZN8touchgfx4RectC1Essss) for touchgfx::Rect::Rect(short, short, short, short)
    application.o(i._ZN8touchgfx11Application4drawEv) refers to hal.o(.data) for touchgfx::HAL::DISPLAY_HEIGHT
    application.o(i._ZN8touchgfx11ApplicationC1Ev) refers to application.o(t._ZN8touchgfx6VectorINS_4RectELt8EEC1Ev) for touchgfx::Vector<touchgfx::Rect, (unsigned short)8>::Vector()
    application.o(i._ZN8touchgfx11ApplicationC1Ev) refers to application.o(i._ZN8touchgfx11Application20clearAllTimerWidgetsEv) for touchgfx::Application::clearAllTimerWidgets()
    application.o(i._ZN8touchgfx11ApplicationC1Ev) refers to application.o(.constdata__ZTVN8touchgfx11ApplicationE) for vtable for touchgfx::Application
    application.o(i._ZN8touchgfx11ApplicationC1Ev) refers to application.o(.data) for .data
    application.o(i._ZN8touchgfx8enableFlERNS_4RectE) refers to application.o(i._ZNK8touchgfx4RectanERKS0_) for touchgfx::Rect::operator &(const touchgfx::Rect&) const
    application.o(i._ZN8touchgfx8enableFlERNS_4RectE) refers to lcd16bpp.o(i._ZNK8touchgfx4Rect7isEmptyEv) for touchgfx::Rect::isEmpty() const
    application.o(i._ZN8touchgfx8enableFlERNS_4RectE) refers to displaytransformation.o(i._ZN8touchgfx21DisplayTransformation29transformDisplayToFrameBufferERNS_4RectERKS1_) for touchgfx::DisplayTransformation::transformDisplayToFrameBuffer(touchgfx::Rect&, const touchgfx::Rect&)
    application.o(i._ZN8touchgfx8enableFlERNS_4RectE) refers to displaytransformation.o(i._ZN8touchgfx21DisplayTransformation29transformDisplayToFrameBufferERNS_4RectE) for touchgfx::DisplayTransformation::transformDisplayToFrameBuffer(touchgfx::Rect&)
    application.o(i._ZN8touchgfx8enableFlERNS_4RectE) refers to application.o(i._ZN8touchgfx4wmAtEii) for touchgfx::wmAt(int, int)
    application.o(i._ZN8touchgfx8enableFlERNS_4RectE) refers to application.o(.data) for .data
    application.o(i._ZN8touchgfx8enableFlERNS_4RectE) refers to hal.o(.data) for touchgfx::HAL::instance
    application.o(i._ZN8touchgfx8nextRandEv) refers to application.o(.data) for .data
    application.o(i.__sti___15_Application_cpp_63cd8d44) refers to datetimesettingsscreenviewbase.o(i._ZN8touchgfx4RectC1Essss) for touchgfx::Rect::Rect(short, short, short, short)
    application.o(i.__sti___15_Application_cpp_63cd8d44) refers to application.o(.data) for .data
    application.o(.ARM.exidx) refers to application.o(i._ZN8touchgfx11Application11getInstanceEv) for i._ZN8touchgfx11Application11getInstanceEv
    application.o(.ARM.exidx) refers to application.o(i._ZN8touchgfx11Application12switchScreenEPNS_6ScreenE) for i._ZN8touchgfx11Application12switchScreenEPNS_6ScreenE
    application.o(.ARM.exidx) refers to application.o(i._ZN8touchgfx11Application4drawEv) for i._ZN8touchgfx11Application4drawEv
    application.o(.ARM.exidx) refers to application.o(i._ZN8touchgfx8enableFlERNS_4RectE) for i._ZN8touchgfx8enableFlERNS_4RectE
    application.o(.ARM.exidx) refers to application.o(i._ZN8touchgfx11Application14invalidateAreaENS_4RectE) for i._ZN8touchgfx11Application14invalidateAreaENS_4RectE
    application.o(.ARM.exidx) refers to application.o(i._ZN8touchgfx11Application4drawERNS_4RectE) for i._ZN8touchgfx11Application4drawERNS_4RectE
    application.o(.ARM.exidx) refers to application.o(i._ZN8touchgfx11Application16handleClickEventERKNS_10ClickEventE) for i._ZN8touchgfx11Application16handleClickEventERKNS_10ClickEventE
    application.o(.ARM.exidx) refers to application.o(i._ZN8touchgfx11Application15handleDragEventERKNS_9DragEventE) for i._ZN8touchgfx11Application15handleDragEventERKNS_9DragEventE
    application.o(.ARM.exidx) refers to application.o(i._ZN8touchgfx11Application18handleGestureEventERKNS_12GestureEventE) for i._ZN8touchgfx11Application18handleGestureEventERKNS_12GestureEventE
    application.o(.ARM.exidx) refers to application.o(i._ZN8touchgfx11Application15handleTickEventEv) for i._ZN8touchgfx11Application15handleTickEventEv
    application.o(.ARM.exidx) refers to application.o(i._ZN8touchgfx11Application14handleKeyEventEh) for i._ZN8touchgfx11Application14handleKeyEventEh
    application.o(.ARM.exidx) refers to application.o(i._ZN8touchgfx11Application29handlePendingScreenTransitionEv) for i._ZN8touchgfx11Application29handlePendingScreenTransitionEv
    application.o(.ARM.exidx) refers to application.o(i._ZN8touchgfx11Application19cacheDrawOperationsEb) for i._ZN8touchgfx11Application19cacheDrawOperationsEb
    application.o(.ARM.exidx) refers to application.o(i._ZN8touchgfx11Application19registerTimerWidgetEPNS_8DrawableE) for i._ZN8touchgfx11Application19registerTimerWidgetEPNS_8DrawableE
    application.o(.ARM.exidx) refers to application.o(i._ZN8touchgfx11Application20clearAllTimerWidgetsEv) for i._ZN8touchgfx11Application20clearAllTimerWidgetsEv
    application.o(.ARM.exidx) refers to application.o(i._ZN8touchgfx11Application21unregisterTimerWidgetEPKNS_8DrawableE) for i._ZN8touchgfx11Application21unregisterTimerWidgetEPKNS_8DrawableE
    application.o(.ARM.exidx) refers to application.o(i._ZN8touchgfx11ApplicationC1Ev) for i._ZN8touchgfx11ApplicationC1Ev
    application.o(.ARM.exidx) refers to application.o(i.__sti___15_Application_cpp_63cd8d44) for i.__sti___15_Application_cpp_63cd8d44
    application.o(.ARM.exidx) refers to application.o(i._ZN8touchgfx8nextRandEv) for i._ZN8touchgfx8nextRandEv
    application.o(.init_array) refers to application.o(i.__sti___15_Application_cpp_63cd8d44) for __sti___15_Application_cpp_63cd8d44
    application.o(.init_array) refers to init_aeabi.o(.text) for __cpp_initialize__aeabi_
    bitmap.o(i._ZN8touchgfx6Bitmap10clearCacheEv) refers to bitmap.o(.data) for .data
    bitmap.o(i._ZN8touchgfx6Bitmap12compactCacheEv) refers to bitmap.o(i._ZN8touchgfx6Bitmap15getSizeOfBitmapEt) for touchgfx::Bitmap::getSizeOfBitmap(unsigned short)
    bitmap.o(i._ZN8touchgfx6Bitmap12compactCacheEv) refers to bitmap.o(.data) for .data
    bitmap.o(i._ZN8touchgfx6Bitmap13cacheIsCachedEt) refers to bitmap.o(.data) for .data
    bitmap.o(i._ZN8touchgfx6Bitmap15cacheGetAddressEt) refers to abort.o(.text) for abort
    bitmap.o(i._ZN8touchgfx6Bitmap15cacheGetAddressEt) refers to bitmap.o(.data) for .data
    bitmap.o(i._ZN8touchgfx6Bitmap15getSizeOfBitmapEt) refers to abort.o(.text) for abort
    bitmap.o(i._ZN8touchgfx6Bitmap15getSizeOfBitmapEt) refers to bitmap.o(.data) for .data
    bitmap.o(i._ZN8touchgfx6Bitmap17cacheRemoveBitmapEt) refers to bitmap.o(i._ZN8touchgfx6Bitmap15getSizeOfBitmapEt) for touchgfx::Bitmap::getSizeOfBitmap(unsigned short)
    bitmap.o(i._ZN8touchgfx6Bitmap17cacheRemoveBitmapEt) refers to bitmap.o(.data) for .data
    bitmap.o(i._ZN8touchgfx6Bitmap17copyBitmapToCacheEtPh) refers to abort.o(.text) for abort
    bitmap.o(i._ZN8touchgfx6Bitmap17copyBitmapToCacheEtPh) refers to bitmap.o(.data) for .data
    bitmap.o(i._ZN8touchgfx6Bitmap17copyBitmapToCacheEtPh) refers to hal.o(.data) for touchgfx::HAL::instance
    bitmap.o(i._ZN8touchgfx6Bitmap18cacheReplaceBitmapEtt) refers to bitmap.o(i._ZN8touchgfx6Bitmap13cacheIsCachedEt) for touchgfx::Bitmap::cacheIsCached(unsigned short)
    bitmap.o(i._ZN8touchgfx6Bitmap18cacheReplaceBitmapEtt) refers to bitmap.o(i._ZN8touchgfx6Bitmap15getSizeOfBitmapEt) for touchgfx::Bitmap::getSizeOfBitmap(unsigned short)
    bitmap.o(i._ZN8touchgfx6Bitmap18cacheReplaceBitmapEtt) refers to bitmap.o(i._ZN8touchgfx6Bitmap17copyBitmapToCacheEtPh) for touchgfx::Bitmap::copyBitmapToCache(unsigned short, unsigned char*)
    bitmap.o(i._ZN8touchgfx6Bitmap18cacheReplaceBitmapEtt) refers to bitmap.o(.data) for .data
    bitmap.o(i._ZN8touchgfx6Bitmap19dynamicBitmapCreateEttNS0_12BitmapFormatE) refers to datetimesettingsscreenviewbase.o(i._ZN8touchgfx4RectC1Essss) for touchgfx::Rect::Rect(short, short, short, short)
    bitmap.o(i._ZN8touchgfx6Bitmap19dynamicBitmapCreateEttNS0_12BitmapFormatE) refers to bitmap.o(i._ZN8touchgfx6Bitmap5cacheEt) for touchgfx::Bitmap::cache(unsigned short)
    bitmap.o(i._ZN8touchgfx6Bitmap19dynamicBitmapCreateEttNS0_12BitmapFormatE) refers to bitmap.o(.data) for .data
    bitmap.o(i._ZN8touchgfx6Bitmap19dynamicBitmapDeleteEt) refers to bitmap.o(i._ZN8touchgfx6Bitmap17cacheRemoveBitmapEt) for touchgfx::Bitmap::cacheRemoveBitmap(unsigned short)
    bitmap.o(i._ZN8touchgfx6Bitmap19dynamicBitmapDeleteEt) refers to bitmap.o(.data) for .data
    bitmap.o(i._ZN8touchgfx6Bitmap22registerBitmapDatabaseEPKNS0_10BitmapDataEtPtjj) refers to bitmap.o(i._ZN8touchgfx6Bitmap8setCacheEPtjj) for touchgfx::Bitmap::setCache(unsigned short*, unsigned, unsigned)
    bitmap.o(i._ZN8touchgfx6Bitmap22registerBitmapDatabaseEPKNS0_10BitmapDataEtPtjj) refers to bitmap.o(.data) for .data
    bitmap.o(i._ZN8touchgfx6Bitmap23dynamicBitmapGetAddressEt) refers to bitmap.o(.data) for .data
    bitmap.o(i._ZN8touchgfx6Bitmap25dynamicBitmapSetSolidRectEtRKNS_4RectE) refers to bitmap.o(.data) for .data
    bitmap.o(i._ZN8touchgfx6Bitmap5cacheEt) refers to bitmap.o(i._ZN8touchgfx6Bitmap12compactCacheEv) for touchgfx::Bitmap::compactCache()
    bitmap.o(i._ZN8touchgfx6Bitmap5cacheEt) refers to bitmap.o(i._ZN8touchgfx6Bitmap15getSizeOfBitmapEt) for touchgfx::Bitmap::getSizeOfBitmap(unsigned short)
    bitmap.o(i._ZN8touchgfx6Bitmap5cacheEt) refers to bitmap.o(i._ZN8touchgfx6Bitmap17copyBitmapToCacheEtPh) for touchgfx::Bitmap::copyBitmapToCache(unsigned short, unsigned char*)
    bitmap.o(i._ZN8touchgfx6Bitmap5cacheEt) refers to bitmap.o(.data) for .data
    bitmap.o(i._ZN8touchgfx6Bitmap8cacheAllEv) refers to bitmap.o(i._ZN8touchgfx6Bitmap5cacheEt) for touchgfx::Bitmap::cache(unsigned short)
    bitmap.o(i._ZN8touchgfx6Bitmap8cacheAllEv) refers to abort.o(.text) for abort
    bitmap.o(i._ZN8touchgfx6Bitmap8cacheAllEv) refers to bitmap.o(.data) for .data
    bitmap.o(i._ZN8touchgfx6Bitmap8setCacheEPtjj) refers to abort.o(.text) for abort
    bitmap.o(i._ZN8touchgfx6Bitmap8setCacheEPtjj) refers to bitmap.o(i._ZN8touchgfx6Bitmap10clearCacheEv) for touchgfx::Bitmap::clearCache()
    bitmap.o(i._ZN8touchgfx6Bitmap8setCacheEPtjj) refers to bitmap.o(.data) for .data
    bitmap.o(i._ZNK8touchgfx6Bitmap12getAlphaDataEv) refers to bitmap.o(.data) for .data
    bitmap.o(i._ZNK8touchgfx6Bitmap12getSolidRectEv) refers to abort.o(.text) for abort
    bitmap.o(i._ZNK8touchgfx6Bitmap12getSolidRectEv) refers to datetimesettingsscreenviewbase.o(i._ZN8touchgfx4RectC1Essss) for touchgfx::Rect::Rect(short, short, short, short)
    bitmap.o(i._ZNK8touchgfx6Bitmap12getSolidRectEv) refers to bitmap.o(.data) for .data
    bitmap.o(i._ZNK8touchgfx6Bitmap12getSolidRectEv) refers to hal.o(.data) for touchgfx::HAL::DISPLAY_HEIGHT
    bitmap.o(i._ZNK8touchgfx6Bitmap20hasTransparentPixelsEv) refers to bitmap.o(.data) for .data
    bitmap.o(i._ZNK8touchgfx6Bitmap7getDataEv) refers to abort.o(.text) for abort
    bitmap.o(i._ZNK8touchgfx6Bitmap7getDataEv) refers to bitmap.o(.data) for .data
    bitmap.o(i._ZNK8touchgfx6Bitmap7getDataEv) refers to hal.o(.data) for touchgfx::HAL::instance
    bitmap.o(i._ZNK8touchgfx6Bitmap8getWidthEv) refers to abort.o(.text) for abort
    bitmap.o(i._ZNK8touchgfx6Bitmap8getWidthEv) refers to bitmap.o(.data) for .data
    bitmap.o(i._ZNK8touchgfx6Bitmap8getWidthEv) refers to hal.o(.data) for touchgfx::HAL::DISPLAY_WIDTH
    bitmap.o(i._ZNK8touchgfx6Bitmap9getFormatEv) refers to bitmap.o(i._ZN8touchgfx3HAL3lcdEv) for touchgfx::HAL::lcd()
    bitmap.o(i._ZNK8touchgfx6Bitmap9getFormatEv) refers to bitmap.o(.data) for .data
    bitmap.o(i._ZNK8touchgfx6Bitmap9getHeightEv) refers to abort.o(.text) for abort
    bitmap.o(i._ZNK8touchgfx6Bitmap9getHeightEv) refers to bitmap.o(.data) for .data
    bitmap.o(i._ZNK8touchgfx6Bitmap9getHeightEv) refers to hal.o(.data) for touchgfx::HAL::DISPLAY_HEIGHT
    bitmap.o(.ARM.exidx) refers to bitmap.o(i._ZNK8touchgfx6Bitmap7getDataEv) for i._ZNK8touchgfx6Bitmap7getDataEv
    bitmap.o(.ARM.exidx) refers to bitmap.o(i._ZNK8touchgfx6Bitmap12getAlphaDataEv) for i._ZNK8touchgfx6Bitmap12getAlphaDataEv
    bitmap.o(.ARM.exidx) refers to bitmap.o(i._ZNK8touchgfx6Bitmap9getFormatEv) for i._ZNK8touchgfx6Bitmap9getFormatEv
    bitmap.o(.ARM.exidx) refers to bitmap.o(i._ZNK8touchgfx6Bitmap8getWidthEv) for i._ZNK8touchgfx6Bitmap8getWidthEv
    bitmap.o(.ARM.exidx) refers to bitmap.o(i._ZNK8touchgfx6Bitmap9getHeightEv) for i._ZNK8touchgfx6Bitmap9getHeightEv
    bitmap.o(.ARM.exidx) refers to bitmap.o(i._ZNK8touchgfx6Bitmap12getSolidRectEv) for i._ZNK8touchgfx6Bitmap12getSolidRectEv
    bitmap.o(.ARM.exidx) refers to bitmap.o(i._ZNK8touchgfx6Bitmap20hasTransparentPixelsEv) for i._ZNK8touchgfx6Bitmap20hasTransparentPixelsEv
    bitmap.o(.ARM.exidx) refers to bitmap.o(i._ZN8touchgfx6Bitmap10clearCacheEv) for i._ZN8touchgfx6Bitmap10clearCacheEv
    bitmap.o(.ARM.exidx) refers to bitmap.o(i._ZN8touchgfx6Bitmap8setCacheEPtjj) for i._ZN8touchgfx6Bitmap8setCacheEPtjj
    bitmap.o(.ARM.exidx) refers to bitmap.o(i._ZN8touchgfx6Bitmap22registerBitmapDatabaseEPKNS0_10BitmapDataEtPtjj) for i._ZN8touchgfx6Bitmap22registerBitmapDatabaseEPKNS0_10BitmapDataEtPtjj
    bitmap.o(.ARM.exidx) refers to bitmap.o(i._ZN8touchgfx6Bitmap17copyBitmapToCacheEtPh) for i._ZN8touchgfx6Bitmap17copyBitmapToCacheEtPh
    bitmap.o(.ARM.exidx) refers to bitmap.o(i._ZN8touchgfx6Bitmap15getSizeOfBitmapEt) for i._ZN8touchgfx6Bitmap15getSizeOfBitmapEt
    bitmap.o(.ARM.exidx) refers to bitmap.o(i._ZN8touchgfx6Bitmap12compactCacheEv) for i._ZN8touchgfx6Bitmap12compactCacheEv
    bitmap.o(.ARM.exidx) refers to bitmap.o(i._ZN8touchgfx6Bitmap5cacheEt) for i._ZN8touchgfx6Bitmap5cacheEt
    bitmap.o(.ARM.exidx) refers to bitmap.o(i._ZN8touchgfx6Bitmap13cacheIsCachedEt) for i._ZN8touchgfx6Bitmap13cacheIsCachedEt
    bitmap.o(.ARM.exidx) refers to bitmap.o(i._ZN8touchgfx6Bitmap18cacheReplaceBitmapEtt) for i._ZN8touchgfx6Bitmap18cacheReplaceBitmapEtt
    bitmap.o(.ARM.exidx) refers to bitmap.o(i._ZN8touchgfx6Bitmap17cacheRemoveBitmapEt) for i._ZN8touchgfx6Bitmap17cacheRemoveBitmapEt
    bitmap.o(.ARM.exidx) refers to bitmap.o(i._ZN8touchgfx6Bitmap15cacheGetAddressEt) for i._ZN8touchgfx6Bitmap15cacheGetAddressEt
    bitmap.o(.ARM.exidx) refers to bitmap.o(i._ZN8touchgfx6Bitmap8cacheAllEv) for i._ZN8touchgfx6Bitmap8cacheAllEv
    bitmap.o(.ARM.exidx) refers to bitmap.o(i._ZN8touchgfx6Bitmap19dynamicBitmapCreateEttNS0_12BitmapFormatE) for i._ZN8touchgfx6Bitmap19dynamicBitmapCreateEttNS0_12BitmapFormatE
    bitmap.o(.ARM.exidx) refers to bitmap.o(i._ZN8touchgfx6Bitmap19dynamicBitmapDeleteEt) for i._ZN8touchgfx6Bitmap19dynamicBitmapDeleteEt
    bitmap.o(.ARM.exidx) refers to bitmap.o(i._ZN8touchgfx6Bitmap23dynamicBitmapGetAddressEt) for i._ZN8touchgfx6Bitmap23dynamicBitmapGetAddressEt
    bitmap.o(.ARM.exidx) refers to bitmap.o(i._ZN8touchgfx6Bitmap25dynamicBitmapSetSolidRectEtRKNS_4RectE) for i._ZN8touchgfx6Bitmap25dynamicBitmapSetSolidRectEtRKNS_4RectE
    box.o(i._ZNK8touchgfx3Box4drawERKNS_4RectE) refers to hal.o(.data) for touchgfx::HAL::instance
    box.o(.ARM.exidx) refers to box.o(i._ZNK8touchgfx3Box12getSolidRectEv) for i._ZNK8touchgfx3Box12getSolidRectEv
    box.o(.ARM.exidx) refers to box.o(i._ZNK8touchgfx3Box4drawERKNS_4RectE) for i._ZNK8touchgfx3Box4drawERKNS_4RectE
    button.o(i._ZN8touchgfx6Button10setBitmapsERKNS_6BitmapES3_) refers to bitmap.o(i._ZNK8touchgfx6Bitmap8getWidthEv) for touchgfx::Bitmap::getWidth() const
    button.o(i._ZN8touchgfx6Button10setBitmapsERKNS_6BitmapES3_) refers to bitmap.o(i._ZNK8touchgfx6Bitmap9getHeightEv) for touchgfx::Bitmap::getHeight() const
    button.o(i._ZNK8touchgfx6Button12getSolidRectEv) refers to bitmap.o(i._ZNK8touchgfx6Bitmap12getSolidRectEv) for touchgfx::Bitmap::getSolidRect() const
    button.o(i._ZNK8touchgfx6Button4drawERKNS_4RectE) refers to bitmap.o(i._ZNK8touchgfx6Bitmap8getWidthEv) for touchgfx::Bitmap::getWidth() const
    button.o(i._ZNK8touchgfx6Button4drawERKNS_4RectE) refers to bitmap.o(i._ZNK8touchgfx6Bitmap9getHeightEv) for touchgfx::Bitmap::getHeight() const
    button.o(i._ZNK8touchgfx6Button4drawERKNS_4RectE) refers to application.o(i._ZN8touchgfx4RectaNERKS0_) for touchgfx::Rect::operator &=(const touchgfx::Rect&)
    button.o(i._ZNK8touchgfx6Button4drawERKNS_4RectE) refers to abort.o(.text) for abort
    button.o(i._ZNK8touchgfx6Button4drawERKNS_4RectE) refers to bitmap.o(.data) for touchgfx::Bitmap::bitmaps
    button.o(i._ZNK8touchgfx6Button4drawERKNS_4RectE) refers to hal.o(.data) for touchgfx::HAL::instance
    button.o(.ARM.exidx) refers to button.o(i._ZNK8touchgfx6Button4drawERKNS_4RectE) for i._ZNK8touchgfx6Button4drawERKNS_4RectE
    button.o(.ARM.exidx) refers to button.o(i._ZN8touchgfx6Button10setBitmapsERKNS_6BitmapES3_) for i._ZN8touchgfx6Button10setBitmapsERKNS_6BitmapES3_
    button.o(.ARM.exidx) refers to button.o(i._ZNK8touchgfx6Button12getSolidRectEv) for i._ZNK8touchgfx6Button12getSolidRectEv
    buttonwithicon.o(i._ZN8touchgfx14ButtonWithIcon10setBitmapsERKNS_6BitmapES3_S3_S3_) refers to button.o(i._ZN8touchgfx6Button10setBitmapsERKNS_6BitmapES3_) for touchgfx::Button::setBitmaps(const touchgfx::Bitmap&, const touchgfx::Bitmap&)
    buttonwithicon.o(i._ZN8touchgfx14ButtonWithIcon10setBitmapsERKNS_6BitmapES3_S3_S3_) refers to bitmap.o(i._ZNK8touchgfx6Bitmap8getWidthEv) for touchgfx::Bitmap::getWidth() const
    buttonwithicon.o(i._ZN8touchgfx14ButtonWithIcon10setBitmapsERKNS_6BitmapES3_S3_S3_) refers to bitmap.o(i._ZNK8touchgfx6Bitmap9getHeightEv) for touchgfx::Bitmap::getHeight() const
    buttonwithicon.o(i._ZN8touchgfx14ButtonWithIconC1Ev) refers to datetimesettingsscreenviewbase.o(i._ZN8touchgfx4RectC1Essss) for touchgfx::Rect::Rect(short, short, short, short)
    buttonwithicon.o(i._ZN8touchgfx14ButtonWithIconC1Ev) refers to application.o(i._ZN8touchgfx4RectC1Ev) for touchgfx::Rect::Rect()
    buttonwithicon.o(i._ZN8touchgfx14ButtonWithIconC1Ev) refers to drawable.o(.constdata__ZTVN8touchgfx8DrawableE) for vtable for touchgfx::Drawable
    buttonwithicon.o(i._ZN8touchgfx14ButtonWithIconC1Ev) refers to buttonwithicon.o(.constdata__ZTVN8touchgfx14ButtonWithIconE) for vtable for touchgfx::ButtonWithIcon
    buttonwithicon.o(i._ZNK8touchgfx14ButtonWithIcon4drawERKNS_4RectE) refers to button.o(i._ZNK8touchgfx6Button4drawERKNS_4RectE) for touchgfx::Button::draw(const touchgfx::Rect&) const
    buttonwithicon.o(i._ZNK8touchgfx14ButtonWithIcon4drawERKNS_4RectE) refers to bitmap.o(i._ZNK8touchgfx6Bitmap8getWidthEv) for touchgfx::Bitmap::getWidth() const
    buttonwithicon.o(i._ZNK8touchgfx14ButtonWithIcon4drawERKNS_4RectE) refers to bitmap.o(i._ZNK8touchgfx6Bitmap9getHeightEv) for touchgfx::Bitmap::getHeight() const
    buttonwithicon.o(i._ZNK8touchgfx14ButtonWithIcon4drawERKNS_4RectE) refers to application.o(i._ZN8touchgfx4RectaNERKS0_) for touchgfx::Rect::operator &=(const touchgfx::Rect&)
    buttonwithicon.o(i._ZNK8touchgfx14ButtonWithIcon4drawERKNS_4RectE) refers to application.o(i._ZN8touchgfx4RectC1Ev) for touchgfx::Rect::Rect()
    buttonwithicon.o(i._ZNK8touchgfx14ButtonWithIcon4drawERKNS_4RectE) refers to abort.o(.text) for abort
    buttonwithicon.o(i._ZNK8touchgfx14ButtonWithIcon4drawERKNS_4RectE) refers to bitmap.o(.data) for touchgfx::Bitmap::bitmaps
    buttonwithicon.o(i._ZNK8touchgfx14ButtonWithIcon4drawERKNS_4RectE) refers to hal.o(.data) for touchgfx::HAL::instance
    buttonwithicon.o(.ARM.exidx) refers to buttonwithicon.o(i._ZN8touchgfx14ButtonWithIconC1Ev) for i._ZN8touchgfx14ButtonWithIconC1Ev
    buttonwithicon.o(.ARM.exidx) refers to buttonwithicon.o(i._ZN8touchgfx14ButtonWithIcon10setBitmapsERKNS_6BitmapES3_S3_S3_) for i._ZN8touchgfx14ButtonWithIcon10setBitmapsERKNS_6BitmapES3_S3_S3_
    buttonwithicon.o(.ARM.exidx) refers to buttonwithicon.o(i._ZNK8touchgfx14ButtonWithIcon4drawERKNS_4RectE) for i._ZNK8touchgfx14ButtonWithIcon4drawERKNS_4RectE
    buttonwithlabel.o(i._ZN8touchgfx15ButtonWithLabelC1Ev) refers to datetimesettingsscreenviewbase.o(i._ZN8touchgfx4RectC1Essss) for touchgfx::Rect::Rect(short, short, short, short)
    buttonwithlabel.o(i._ZN8touchgfx15ButtonWithLabelC1Ev) refers to application.o(i._ZN8touchgfx4RectC1Ev) for touchgfx::Rect::Rect()
    buttonwithlabel.o(i._ZN8touchgfx15ButtonWithLabelC1Ev) refers to drawable.o(.constdata__ZTVN8touchgfx8DrawableE) for vtable for touchgfx::Drawable
    buttonwithlabel.o(i._ZN8touchgfx15ButtonWithLabelC1Ev) refers to buttonwithlabel.o(.constdata__ZTVN8touchgfx15ButtonWithLabelE) for vtable for touchgfx::ButtonWithLabel
    buttonwithlabel.o(i._ZNK8touchgfx15ButtonWithLabel4drawERKNS_4RectE) refers to button.o(i._ZNK8touchgfx6Button4drawERKNS_4RectE) for touchgfx::Button::draw(const touchgfx::Rect&) const
    buttonwithlabel.o(i._ZNK8touchgfx15ButtonWithLabel4drawERKNS_4RectE) refers to datetimesettingsscreenviewbase.o(i._ZNK8touchgfx9TypedText11assertValidEv) for touchgfx::TypedText::assertValid() const
    buttonwithlabel.o(i._ZNK8touchgfx15ButtonWithLabel4drawERKNS_4RectE) refers to application.o(i._ZN8touchgfx4RectC1Ev) for touchgfx::Rect::Rect()
    buttonwithlabel.o(i._ZNK8touchgfx15ButtonWithLabel4drawERKNS_4RectE) refers to datetimesettingsscreenviewbase.o(i._ZN8touchgfx4RectC1Essss) for touchgfx::Rect::Rect(short, short, short, short)
    buttonwithlabel.o(i._ZNK8touchgfx15ButtonWithLabel4drawERKNS_4RectE) refers to application.o(i._ZN8touchgfx4RectaNERKS0_) for touchgfx::Rect::operator &=(const touchgfx::Rect&)
    buttonwithlabel.o(i._ZNK8touchgfx15ButtonWithLabel4drawERKNS_4RectE) refers to lcd.o(i._ZN8touchgfx3LCD10drawStringENS_4RectERKS1_RNS0_13StringVisualsEPKtz) for touchgfx::LCD::drawString(touchgfx::Rect, const touchgfx::Rect&, touchgfx::LCD::StringVisuals&, const unsigned short*, ...)
    buttonwithlabel.o(i._ZNK8touchgfx15ButtonWithLabel4drawERKNS_4RectE) refers to typedtext.o(.data) for touchgfx::TypedText::typedTexts
    buttonwithlabel.o(i._ZNK8touchgfx15ButtonWithLabel4drawERKNS_4RectE) refers to typedtext.o(.data) for touchgfx::TypedText::fonts
    buttonwithlabel.o(i._ZNK8touchgfx15ButtonWithLabel4drawERKNS_4RectE) refers to texts.o(.data) for touchgfx::Texts::currentLanguagePtr
    buttonwithlabel.o(i._ZNK8touchgfx15ButtonWithLabel4drawERKNS_4RectE) refers to hal.o(.data) for touchgfx::HAL::instance
    buttonwithlabel.o(.ARM.exidx) refers to buttonwithlabel.o(i._ZN8touchgfx15ButtonWithLabelC1Ev) for i._ZN8touchgfx15ButtonWithLabelC1Ev
    buttonwithlabel.o(.ARM.exidx) refers to buttonwithlabel.o(i._ZNK8touchgfx15ButtonWithLabel4drawERKNS_4RectE) for i._ZNK8touchgfx15ButtonWithLabel4drawERKNS_4RectE
    color.o(i._ZN8touchgfx5Color20getColorFrom24BitRGBEhhh) refers to abort.o(.text) for abort
    color.o(i._ZN8touchgfx5Color20getColorFrom24BitRGBEhhh) refers to hal.o(.data) for touchgfx::HAL::instance
    color.o(.ARM.exidx) refers to color.o(i._ZN8touchgfx5Color20getColorFrom24BitRGBEhhh) for i._ZN8touchgfx5Color20getColorFrom24BitRGBEhhh
    container.o(i._ZN8touchgfx9Container12getLastChildEssPPNS_8DrawableE) refers to lcd16bpp.o(i._ZNK8touchgfx4Rect5rightEv) for touchgfx::Rect::right() const
    container.o(i._ZN8touchgfx9Container12getLastChildEssPPNS_8DrawableE) refers to lcd16bpp.o(i._ZNK8touchgfx4Rect6bottomEv) for touchgfx::Rect::bottom() const
    container.o(i._ZN8touchgfx9Container14setupDrawChainERKNS_4RectEPPNS_8DrawableE) refers to application.o(i._ZNK8touchgfx4RectanERKS0_) for touchgfx::Rect::operator &(const touchgfx::Rect&) const
    container.o(i._ZN8touchgfx9Container14setupDrawChainERKNS_4RectEPPNS_8DrawableE) refers to lcd16bpp.o(i._ZNK8touchgfx4Rect7isEmptyEv) for touchgfx::Rect::isEmpty() const
    container.o(i._ZN8touchgfx9Container3addERNS_8DrawableE) refers to abort.o(.text) for abort
    container.o(i._ZNK8touchgfx9Container16getContainedAreaEv) refers to application.o(i._ZN8touchgfx4Rect11expandToFitERKS0_) for touchgfx::Rect::expandToFit(const touchgfx::Rect&)
    container.o(i._ZNK8touchgfx9Container4drawERKNS_4RectE) refers to application.o(i._ZNK8touchgfx4RectanERKS0_) for touchgfx::Rect::operator &(const touchgfx::Rect&) const
    container.o(i._ZNK8touchgfx9Container4drawERKNS_4RectE) refers to lcd16bpp.o(i._ZNK8touchgfx4Rect7isEmptyEv) for touchgfx::Rect::isEmpty() const
    container.o(.ARM.exidx) refers to container.o(i._ZN8touchgfx9Container3addERNS_8DrawableE) for i._ZN8touchgfx9Container3addERNS_8DrawableE
    container.o(.ARM.exidx) refers to container.o(i._ZN8touchgfx9Container6removeERNS_8DrawableE) for i._ZN8touchgfx9Container6removeERNS_8DrawableE
    container.o(.ARM.exidx) refers to container.o(i._ZN8touchgfx9Container9removeAllEv) for i._ZN8touchgfx9Container9removeAllEv
    container.o(.ARM.exidx) refers to container.o(i._ZN8touchgfx9Container6unlinkEv) for i._ZN8touchgfx9Container6unlinkEv
    container.o(.ARM.exidx) refers to container.o(i._ZN8touchgfx9Container8containsERKNS_8DrawableE) for i._ZN8touchgfx9Container8containsERKNS_8DrawableE
    container.o(.ARM.exidx) refers to container.o(i._ZN8touchgfx9Container6insertEPNS_8DrawableERS1_) for i._ZN8touchgfx9Container6insertEPNS_8DrawableERS1_
    container.o(.ARM.exidx) refers to container.o(i._ZN8touchgfx9Container12getLastChildEssPPNS_8DrawableE) for i._ZN8touchgfx9Container12getLastChildEssPPNS_8DrawableE
    container.o(.ARM.exidx) refers to container.o(i._ZNK8touchgfx9Container4drawERKNS_4RectE) for i._ZNK8touchgfx9Container4drawERKNS_4RectE
    container.o(.ARM.exidx) refers to container.o(i._ZNK8touchgfx9Container12getSolidRectEv) for i._ZNK8touchgfx9Container12getSolidRectEv
    container.o(.ARM.exidx) refers to container.o(i._ZN8touchgfx9Container12forEachChildEPNS_15GenericCallbackIRNS_8DrawableEvEE) for i._ZN8touchgfx9Container12forEachChildEPNS_15GenericCallbackIRNS_8DrawableEvEE
    container.o(.ARM.exidx) refers to container.o(i._ZNK8touchgfx9Container16getContainedAreaEv) for i._ZNK8touchgfx9Container16getContainedAreaEv
    container.o(.ARM.exidx) refers to container.o(i._ZN8touchgfx9Container20moveChildrenRelativeEss) for i._ZN8touchgfx9Container20moveChildrenRelativeEss
    container.o(.ARM.exidx) refers to container.o(i._ZN8touchgfx9Container14setupDrawChainERKNS_4RectEPPNS_8DrawableE) for i._ZN8touchgfx9Container14setupDrawChainERKNS_4RectEPPNS_8DrawableE
    dma.o(i._ZN8touchgfx13DMA_Interface10addToQueueERKNS_6BlitOpE) refers to oswrappers.o(i._ZN8touchgfx10OSWrappers27tryTakeFrameBufferSemaphoreEv) for touchgfx::OSWrappers::tryTakeFrameBufferSemaphore()
    dma.o(i._ZN8touchgfx13DMA_Interface10addToQueueERKNS_6BlitOpE) refers to hal.o(.data) for touchgfx::HAL::instance
    dma.o(i._ZN8touchgfx13DMA_Interface16executeCompletedEv) refers to oswrappers.o(i._ZN8touchgfx10OSWrappers31giveFrameBufferSemaphoreFromISREv) for touchgfx::OSWrappers::giveFrameBufferSemaphoreFromISR()
    dma.o(i._ZN8touchgfx13DMA_Interface27waitForFrameBufferSemaphoreEv) refers to oswrappers.o(i._ZN8touchgfx10OSWrappers24takeFrameBufferSemaphoreEv) for touchgfx::OSWrappers::takeFrameBufferSemaphore()
    dma.o(i._ZN8touchgfx13DMA_Interface27waitForFrameBufferSemaphoreEv) refers to oswrappers.o(i._ZN8touchgfx10OSWrappers24giveFrameBufferSemaphoreEv) for touchgfx::OSWrappers::giveFrameBufferSemaphore()
    dma.o(i._ZN8touchgfx13DMA_Interface7executeEv) refers to abort.o(.text) for abort
    dma.o(i._ZN8touchgfx17LockFreeDMA_Queue10pushCopyOfERKNS_6BlitOpE) refers to rt_memcpy_w.o(.text) for __aeabi_memcpy4
    dma.o(i._ZN8touchgfx17LockFreeDMA_Queue10pushCopyOfERKNS_6BlitOpE) refers to abort.o(.text) for abort
    dma.o(i._ZN8touchgfx17LockFreeDMA_Queue3popEv) refers to abort.o(.text) for abort
    dma.o(i._ZN8touchgfx17LockFreeDMA_QueueC1EPNS_6BlitOpEm) refers to dma.o(.constdata__ZTVN8touchgfx17LockFreeDMA_QueueE) for vtable for touchgfx::LockFreeDMA_Queue
    dma.o(.ARM.exidx) refers to dma.o(i._ZN8touchgfx17LockFreeDMA_QueueC1EPNS_6BlitOpEm) for i._ZN8touchgfx17LockFreeDMA_QueueC1EPNS_6BlitOpEm
    dma.o(.ARM.exidx) refers to dma.o(i._ZN8touchgfx17LockFreeDMA_Queue7isEmptyEv) for i._ZN8touchgfx17LockFreeDMA_Queue7isEmptyEv
    dma.o(.ARM.exidx) refers to dma.o(i._ZN8touchgfx17LockFreeDMA_Queue6isFullEv) for i._ZN8touchgfx17LockFreeDMA_Queue6isFullEv
    dma.o(.ARM.exidx) refers to dma.o(i._ZN8touchgfx17LockFreeDMA_Queue10pushCopyOfERKNS_6BlitOpE) for i._ZN8touchgfx17LockFreeDMA_Queue10pushCopyOfERKNS_6BlitOpE
    dma.o(.ARM.exidx) refers to dma.o(i._ZN8touchgfx17LockFreeDMA_Queue3popEv) for i._ZN8touchgfx17LockFreeDMA_Queue3popEv
    dma.o(.ARM.exidx) refers to dma.o(i._ZN8touchgfx17LockFreeDMA_Queue5firstEv) for i._ZN8touchgfx17LockFreeDMA_Queue5firstEv
    dma.o(.ARM.exidx) refers to dma.o(i._ZN8touchgfx13DMA_Interface10addToQueueERKNS_6BlitOpE) for i._ZN8touchgfx13DMA_Interface10addToQueueERKNS_6BlitOpE
    dma.o(.ARM.exidx) refers to dma.o(i._ZN8touchgfx13DMA_Interface5startEv) for i._ZN8touchgfx13DMA_Interface5startEv
    dma.o(.ARM.exidx) refers to dma.o(i._ZN8touchgfx13DMA_Interface15isDmaQueueEmptyEv) for i._ZN8touchgfx13DMA_Interface15isDmaQueueEmptyEv
    dma.o(.ARM.exidx) refers to dma.o(i._ZN8touchgfx13DMA_Interface14isDmaQueueFullEv) for i._ZN8touchgfx13DMA_Interface14isDmaQueueFullEv
    dma.o(.ARM.exidx) refers to dma.o(i._ZN8touchgfx13DMA_Interface7executeEv) for i._ZN8touchgfx13DMA_Interface7executeEv
    dma.o(.ARM.exidx) refers to dma.o(i._ZN8touchgfx13DMA_Interface16executeCompletedEv) for i._ZN8touchgfx13DMA_Interface16executeCompletedEv
    dma.o(.ARM.exidx) refers to dma.o(i._ZN8touchgfx13DMA_Interface13seedExecutionEv) for i._ZN8touchgfx13DMA_Interface13seedExecutionEv
    dma.o(.ARM.exidx) refers to dma.o(i._ZN8touchgfx13DMA_Interface11enableAlphaEh) for i._ZN8touchgfx13DMA_Interface11enableAlphaEh
    dma.o(.ARM.exidx) refers to dma.o(i._ZN8touchgfx13DMA_Interface12disableAlphaEv) for i._ZN8touchgfx13DMA_Interface12disableAlphaEv
    dma.o(.ARM.exidx) refers to dma.o(i._ZN8touchgfx13DMA_Interface31enableCopyWithTransparentPixelsEh) for i._ZN8touchgfx13DMA_Interface31enableCopyWithTransparentPixelsEh
    dma.o(.ARM.exidx) refers to dma.o(i._ZN8touchgfx13DMA_Interface27waitForFrameBufferSemaphoreEv) for i._ZN8touchgfx13DMA_Interface27waitForFrameBufferSemaphoreEv
    drawable.o(i._ZN8touchgfx8Drawable12moveRelativeEss) refers to application.o(i._ZN8touchgfx11Application11getInstanceEv) for touchgfx::Application::getInstance()
    drawable.o(i._ZNK8touchgfx8Drawable14getVisibleRectERNS_4RectE) refers to application.o(i._ZN8touchgfx4RectaNERKS0_) for touchgfx::Rect::operator &=(const touchgfx::Rect&)
    drawable.o(i._ZNK8touchgfx8Drawable14invalidateRectERNS_4RectE) refers to application.o(i._ZN8touchgfx4RectaNERKS0_) for touchgfx::Rect::operator &=(const touchgfx::Rect&)
    drawable.o(i._ZNK8touchgfx8Drawable14invalidateRectERNS_4RectE) refers to application.o(i._ZN8touchgfx11Application11getInstanceEv) for touchgfx::Application::getInstance()
    drawable.o(.ARM.exidx) refers to drawable.o(i._ZNK8touchgfx8Drawable14invalidateRectERNS_4RectE) for i._ZNK8touchgfx8Drawable14invalidateRectERNS_4RectE
    drawable.o(.ARM.exidx) refers to drawable.o(i._ZNK8touchgfx8Drawable10invalidateEv) for i._ZNK8touchgfx8Drawable10invalidateEv
    drawable.o(.ARM.exidx) refers to drawable.o(i._ZN8touchgfx8Drawable20getSolidRectAbsoluteEv) for i._ZN8touchgfx8Drawable20getSolidRectAbsoluteEv
    drawable.o(.ARM.exidx) refers to drawable.o(i._ZNK8touchgfx8Drawable14getVisibleRectERNS_4RectE) for i._ZNK8touchgfx8Drawable14getVisibleRectERNS_4RectE
    drawable.o(.ARM.exidx) refers to drawable.o(i._ZNK8touchgfx8Drawable15getAbsoluteRectEv) for i._ZNK8touchgfx8Drawable15getAbsoluteRectEv
    drawable.o(.ARM.exidx) refers to drawable.o(i._ZNK8touchgfx8Drawable23translateRectToAbsoluteERNS_4RectE) for i._ZNK8touchgfx8Drawable23translateRectToAbsoluteERNS_4RectE
    drawable.o(.ARM.exidx) refers to drawable.o(i._ZN8touchgfx8Drawable12moveRelativeEss) for i._ZN8touchgfx8Drawable12moveRelativeEss
    easingequations.o(i._ZN8touchgfx15EasingEquations10backEaseInEtsst) refers to easingequations.o(i._ZN8touchgfx15EasingEquations16roundRespectSignEf) for touchgfx::EasingEquations::roundRespectSign(float)
    easingequations.o(i._ZN8touchgfx15EasingEquations10circEaseInEtsst) refers to sqrtf.o(i.__hardfp_sqrtf) for __hardfp_sqrtf
    easingequations.o(i._ZN8touchgfx15EasingEquations10circEaseInEtsst) refers to easingequations.o(i._ZN8touchgfx15EasingEquations16roundRespectSignEf) for touchgfx::EasingEquations::roundRespectSign(float)
    easingequations.o(i._ZN8touchgfx15EasingEquations10expoEaseInEtsst) refers to powf.o(i.__hardfp_powf) for __hardfp_powf
    easingequations.o(i._ZN8touchgfx15EasingEquations10expoEaseInEtsst) refers to easingequations.o(i._ZN8touchgfx15EasingEquations16roundRespectSignEf) for touchgfx::EasingEquations::roundRespectSign(float)
    easingequations.o(i._ZN8touchgfx15EasingEquations10quadEaseInEtsst) refers to easingequations.o(i._ZN8touchgfx15EasingEquations16roundRespectSignEf) for touchgfx::EasingEquations::roundRespectSign(float)
    easingequations.o(i._ZN8touchgfx15EasingEquations10sineEaseInEtsst) refers to cosf.o(i.__hardfp_cosf) for __hardfp_cosf
    easingequations.o(i._ZN8touchgfx15EasingEquations10sineEaseInEtsst) refers to easingequations.o(i._ZN8touchgfx15EasingEquations16roundRespectSignEf) for touchgfx::EasingEquations::roundRespectSign(float)
    easingequations.o(i._ZN8touchgfx15EasingEquations11backEaseOutEtsst) refers to easingequations.o(i._ZN8touchgfx15EasingEquations16roundRespectSignEf) for touchgfx::EasingEquations::roundRespectSign(float)
    easingequations.o(i._ZN8touchgfx15EasingEquations11circEaseOutEtsst) refers to sqrtf.o(i.__hardfp_sqrtf) for __hardfp_sqrtf
    easingequations.o(i._ZN8touchgfx15EasingEquations11circEaseOutEtsst) refers to easingequations.o(i._ZN8touchgfx15EasingEquations16roundRespectSignEf) for touchgfx::EasingEquations::roundRespectSign(float)
    easingequations.o(i._ZN8touchgfx15EasingEquations11cubicEaseInEtsst) refers to easingequations.o(i._ZN8touchgfx15EasingEquations16roundRespectSignEf) for touchgfx::EasingEquations::roundRespectSign(float)
    easingequations.o(i._ZN8touchgfx15EasingEquations11expoEaseOutEtsst) refers to powf.o(i.__hardfp_powf) for __hardfp_powf
    easingequations.o(i._ZN8touchgfx15EasingEquations11expoEaseOutEtsst) refers to easingequations.o(i._ZN8touchgfx15EasingEquations16roundRespectSignEf) for touchgfx::EasingEquations::roundRespectSign(float)
    easingequations.o(i._ZN8touchgfx15EasingEquations11quadEaseOutEtsst) refers to easingequations.o(i._ZN8touchgfx15EasingEquations16roundRespectSignEf) for touchgfx::EasingEquations::roundRespectSign(float)
    easingequations.o(i._ZN8touchgfx15EasingEquations11quartEaseInEtsst) refers to easingequations.o(i._ZN8touchgfx15EasingEquations16roundRespectSignEf) for touchgfx::EasingEquations::roundRespectSign(float)
    easingequations.o(i._ZN8touchgfx15EasingEquations11quintEaseInEtsst) refers to easingequations.o(i._ZN8touchgfx15EasingEquations16roundRespectSignEf) for touchgfx::EasingEquations::roundRespectSign(float)
    easingequations.o(i._ZN8touchgfx15EasingEquations11sineEaseOutEtsst) refers to sinf.o(i.__hardfp_sinf) for __hardfp_sinf
    easingequations.o(i._ZN8touchgfx15EasingEquations11sineEaseOutEtsst) refers to easingequations.o(i._ZN8touchgfx15EasingEquations16roundRespectSignEf) for touchgfx::EasingEquations::roundRespectSign(float)
    easingequations.o(i._ZN8touchgfx15EasingEquations12bounceEaseInEtsst) refers to easingequations.o(i._ZN8touchgfx15EasingEquations13bounceEaseOutEtsst) for touchgfx::EasingEquations::bounceEaseOut(unsigned short, short, short, unsigned short)
    easingequations.o(i._ZN8touchgfx15EasingEquations12cubicEaseOutEtsst) refers to easingequations.o(i._ZN8touchgfx15EasingEquations16roundRespectSignEf) for touchgfx::EasingEquations::roundRespectSign(float)
    easingequations.o(i._ZN8touchgfx15EasingEquations12linearEaseInEtsst) refers to easingequations.o(i._ZN8touchgfx15EasingEquations14linearEaseNoneEtsst) for touchgfx::EasingEquations::linearEaseNone(unsigned short, short, short, unsigned short)
    easingequations.o(i._ZN8touchgfx15EasingEquations12quartEaseOutEtsst) refers to easingequations.o(i._ZN8touchgfx15EasingEquations16roundRespectSignEf) for touchgfx::EasingEquations::roundRespectSign(float)
    easingequations.o(i._ZN8touchgfx15EasingEquations12quintEaseOutEtsst) refers to easingequations.o(i._ZN8touchgfx15EasingEquations16roundRespectSignEf) for touchgfx::EasingEquations::roundRespectSign(float)
    easingequations.o(i._ZN8touchgfx15EasingEquations13backEaseInOutEtsst) refers to easingequations.o(i._ZN8touchgfx15EasingEquations16roundRespectSignEf) for touchgfx::EasingEquations::roundRespectSign(float)
    easingequations.o(i._ZN8touchgfx15EasingEquations13bounceEaseOutEtsst) refers to easingequations.o(i._ZN8touchgfx15EasingEquations16roundRespectSignEf) for touchgfx::EasingEquations::roundRespectSign(float)
    easingequations.o(i._ZN8touchgfx15EasingEquations13circEaseInOutEtsst) refers to sqrtf.o(i.__hardfp_sqrtf) for __hardfp_sqrtf
    easingequations.o(i._ZN8touchgfx15EasingEquations13circEaseInOutEtsst) refers to easingequations.o(i._ZN8touchgfx15EasingEquations16roundRespectSignEf) for touchgfx::EasingEquations::roundRespectSign(float)
    easingequations.o(i._ZN8touchgfx15EasingEquations13elasticEaseInEtsst) refers to sinf.o(i.__hardfp_sinf) for __hardfp_sinf
    easingequations.o(i._ZN8touchgfx15EasingEquations13elasticEaseInEtsst) refers to powf.o(i.__hardfp_powf) for __hardfp_powf
    easingequations.o(i._ZN8touchgfx15EasingEquations13elasticEaseInEtsst) refers to easingequations.o(i._ZN8touchgfx15EasingEquations16roundRespectSignEf) for touchgfx::EasingEquations::roundRespectSign(float)
    easingequations.o(i._ZN8touchgfx15EasingEquations13expoEaseInOutEtsst) refers to powf.o(i.__hardfp_powf) for __hardfp_powf
    easingequations.o(i._ZN8touchgfx15EasingEquations13expoEaseInOutEtsst) refers to easingequations.o(i._ZN8touchgfx15EasingEquations16roundRespectSignEf) for touchgfx::EasingEquations::roundRespectSign(float)
    easingequations.o(i._ZN8touchgfx15EasingEquations13linearEaseOutEtsst) refers to easingequations.o(i._ZN8touchgfx15EasingEquations14linearEaseNoneEtsst) for touchgfx::EasingEquations::linearEaseNone(unsigned short, short, short, unsigned short)
    easingequations.o(i._ZN8touchgfx15EasingEquations13quadEaseInOutEtsst) refers to easingequations.o(i._ZN8touchgfx15EasingEquations16roundRespectSignEf) for touchgfx::EasingEquations::roundRespectSign(float)
    easingequations.o(i._ZN8touchgfx15EasingEquations13sineEaseInOutEtsst) refers to cosf.o(i.__hardfp_cosf) for __hardfp_cosf
    easingequations.o(i._ZN8touchgfx15EasingEquations13sineEaseInOutEtsst) refers to easingequations.o(i._ZN8touchgfx15EasingEquations16roundRespectSignEf) for touchgfx::EasingEquations::roundRespectSign(float)
    easingequations.o(i._ZN8touchgfx15EasingEquations14cubicEaseInOutEtsst) refers to easingequations.o(i._ZN8touchgfx15EasingEquations16roundRespectSignEf) for touchgfx::EasingEquations::roundRespectSign(float)
    easingequations.o(i._ZN8touchgfx15EasingEquations14elasticEaseOutEtsst) refers to sinf.o(i.__hardfp_sinf) for __hardfp_sinf
    easingequations.o(i._ZN8touchgfx15EasingEquations14elasticEaseOutEtsst) refers to powf.o(i.__hardfp_powf) for __hardfp_powf
    easingequations.o(i._ZN8touchgfx15EasingEquations14elasticEaseOutEtsst) refers to easingequations.o(i._ZN8touchgfx15EasingEquations16roundRespectSignEf) for touchgfx::EasingEquations::roundRespectSign(float)
    easingequations.o(i._ZN8touchgfx15EasingEquations14linearEaseNoneEtsst) refers to easingequations.o(i._ZN8touchgfx15EasingEquations16roundRespectSignEf) for touchgfx::EasingEquations::roundRespectSign(float)
    easingequations.o(i._ZN8touchgfx15EasingEquations14quartEaseInOutEtsst) refers to easingequations.o(i._ZN8touchgfx15EasingEquations16roundRespectSignEf) for touchgfx::EasingEquations::roundRespectSign(float)
    easingequations.o(i._ZN8touchgfx15EasingEquations14quintEaseInOutEtsst) refers to easingequations.o(i._ZN8touchgfx15EasingEquations16roundRespectSignEf) for touchgfx::EasingEquations::roundRespectSign(float)
    easingequations.o(i._ZN8touchgfx15EasingEquations15bounceEaseInOutEtsst) refers to easingequations.o(i._ZN8touchgfx15EasingEquations12bounceEaseInEtsst) for touchgfx::EasingEquations::bounceEaseIn(unsigned short, short, short, unsigned short)
    easingequations.o(i._ZN8touchgfx15EasingEquations15bounceEaseInOutEtsst) refers to easingequations.o(i._ZN8touchgfx15EasingEquations13bounceEaseOutEtsst) for touchgfx::EasingEquations::bounceEaseOut(unsigned short, short, short, unsigned short)
    easingequations.o(i._ZN8touchgfx15EasingEquations15bounceEaseInOutEtsst) refers to easingequations.o(i._ZN8touchgfx15EasingEquations16roundRespectSignEf) for touchgfx::EasingEquations::roundRespectSign(float)
    easingequations.o(i._ZN8touchgfx15EasingEquations15linearEaseInOutEtsst) refers to easingequations.o(i._ZN8touchgfx15EasingEquations14linearEaseNoneEtsst) for touchgfx::EasingEquations::linearEaseNone(unsigned short, short, short, unsigned short)
    easingequations.o(i._ZN8touchgfx15EasingEquations16elasticEaseInOutEtsst) refers to sinf.o(i.__hardfp_sinf) for __hardfp_sinf
    easingequations.o(i._ZN8touchgfx15EasingEquations16elasticEaseInOutEtsst) refers to powf.o(i.__hardfp_powf) for __hardfp_powf
    easingequations.o(i._ZN8touchgfx15EasingEquations16elasticEaseInOutEtsst) refers to easingequations.o(i._ZN8touchgfx15EasingEquations16roundRespectSignEf) for touchgfx::EasingEquations::roundRespectSign(float)
    easingequations.o(.ARM.exidx) refers to easingequations.o(i._ZN8touchgfx15EasingEquations10backEaseInEtsst) for i._ZN8touchgfx15EasingEquations10backEaseInEtsst
    easingequations.o(.ARM.exidx) refers to easingequations.o(i._ZN8touchgfx15EasingEquations11backEaseOutEtsst) for i._ZN8touchgfx15EasingEquations11backEaseOutEtsst
    easingequations.o(.ARM.exidx) refers to easingequations.o(i._ZN8touchgfx15EasingEquations13backEaseInOutEtsst) for i._ZN8touchgfx15EasingEquations13backEaseInOutEtsst
    easingequations.o(.ARM.exidx) refers to easingequations.o(i._ZN8touchgfx15EasingEquations13bounceEaseOutEtsst) for i._ZN8touchgfx15EasingEquations13bounceEaseOutEtsst
    easingequations.o(.ARM.exidx) refers to easingequations.o(i._ZN8touchgfx15EasingEquations12bounceEaseInEtsst) for i._ZN8touchgfx15EasingEquations12bounceEaseInEtsst
    easingequations.o(.ARM.exidx) refers to easingequations.o(i._ZN8touchgfx15EasingEquations15bounceEaseInOutEtsst) for i._ZN8touchgfx15EasingEquations15bounceEaseInOutEtsst
    easingequations.o(.ARM.exidx) refers to easingequations.o(i._ZN8touchgfx15EasingEquations10circEaseInEtsst) for i._ZN8touchgfx15EasingEquations10circEaseInEtsst
    easingequations.o(.ARM.exidx) refers to easingequations.o(i._ZN8touchgfx15EasingEquations11circEaseOutEtsst) for i._ZN8touchgfx15EasingEquations11circEaseOutEtsst
    easingequations.o(.ARM.exidx) refers to easingequations.o(i._ZN8touchgfx15EasingEquations13circEaseInOutEtsst) for i._ZN8touchgfx15EasingEquations13circEaseInOutEtsst
    easingequations.o(.ARM.exidx) refers to easingequations.o(i._ZN8touchgfx15EasingEquations11cubicEaseInEtsst) for i._ZN8touchgfx15EasingEquations11cubicEaseInEtsst
    easingequations.o(.ARM.exidx) refers to easingequations.o(i._ZN8touchgfx15EasingEquations12cubicEaseOutEtsst) for i._ZN8touchgfx15EasingEquations12cubicEaseOutEtsst
    easingequations.o(.ARM.exidx) refers to easingequations.o(i._ZN8touchgfx15EasingEquations14cubicEaseInOutEtsst) for i._ZN8touchgfx15EasingEquations14cubicEaseInOutEtsst
    easingequations.o(.ARM.exidx) refers to easingequations.o(i._ZN8touchgfx15EasingEquations13elasticEaseInEtsst) for i._ZN8touchgfx15EasingEquations13elasticEaseInEtsst
    easingequations.o(.ARM.exidx) refers to easingequations.o(i._ZN8touchgfx15EasingEquations14elasticEaseOutEtsst) for i._ZN8touchgfx15EasingEquations14elasticEaseOutEtsst
    easingequations.o(.ARM.exidx) refers to easingequations.o(i._ZN8touchgfx15EasingEquations16elasticEaseInOutEtsst) for i._ZN8touchgfx15EasingEquations16elasticEaseInOutEtsst
    easingequations.o(.ARM.exidx) refers to easingequations.o(i._ZN8touchgfx15EasingEquations10expoEaseInEtsst) for i._ZN8touchgfx15EasingEquations10expoEaseInEtsst
    easingequations.o(.ARM.exidx) refers to easingequations.o(i._ZN8touchgfx15EasingEquations11expoEaseOutEtsst) for i._ZN8touchgfx15EasingEquations11expoEaseOutEtsst
    easingequations.o(.ARM.exidx) refers to easingequations.o(i._ZN8touchgfx15EasingEquations13expoEaseInOutEtsst) for i._ZN8touchgfx15EasingEquations13expoEaseInOutEtsst
    easingequations.o(.ARM.exidx) refers to easingequations.o(i._ZN8touchgfx15EasingEquations14linearEaseNoneEtsst) for i._ZN8touchgfx15EasingEquations14linearEaseNoneEtsst
    easingequations.o(.ARM.exidx) refers to easingequations.o(i._ZN8touchgfx15EasingEquations12linearEaseInEtsst) for i._ZN8touchgfx15EasingEquations12linearEaseInEtsst
    easingequations.o(.ARM.exidx) refers to easingequations.o(i._ZN8touchgfx15EasingEquations13linearEaseOutEtsst) for i._ZN8touchgfx15EasingEquations13linearEaseOutEtsst
    easingequations.o(.ARM.exidx) refers to easingequations.o(i._ZN8touchgfx15EasingEquations15linearEaseInOutEtsst) for i._ZN8touchgfx15EasingEquations15linearEaseInOutEtsst
    easingequations.o(.ARM.exidx) refers to easingequations.o(i._ZN8touchgfx15EasingEquations10quadEaseInEtsst) for i._ZN8touchgfx15EasingEquations10quadEaseInEtsst
    easingequations.o(.ARM.exidx) refers to easingequations.o(i._ZN8touchgfx15EasingEquations11quadEaseOutEtsst) for i._ZN8touchgfx15EasingEquations11quadEaseOutEtsst
    easingequations.o(.ARM.exidx) refers to easingequations.o(i._ZN8touchgfx15EasingEquations13quadEaseInOutEtsst) for i._ZN8touchgfx15EasingEquations13quadEaseInOutEtsst
    easingequations.o(.ARM.exidx) refers to easingequations.o(i._ZN8touchgfx15EasingEquations11quartEaseInEtsst) for i._ZN8touchgfx15EasingEquations11quartEaseInEtsst
    easingequations.o(.ARM.exidx) refers to easingequations.o(i._ZN8touchgfx15EasingEquations12quartEaseOutEtsst) for i._ZN8touchgfx15EasingEquations12quartEaseOutEtsst
    easingequations.o(.ARM.exidx) refers to easingequations.o(i._ZN8touchgfx15EasingEquations14quartEaseInOutEtsst) for i._ZN8touchgfx15EasingEquations14quartEaseInOutEtsst
    easingequations.o(.ARM.exidx) refers to easingequations.o(i._ZN8touchgfx15EasingEquations11quintEaseInEtsst) for i._ZN8touchgfx15EasingEquations11quintEaseInEtsst
    easingequations.o(.ARM.exidx) refers to easingequations.o(i._ZN8touchgfx15EasingEquations12quintEaseOutEtsst) for i._ZN8touchgfx15EasingEquations12quintEaseOutEtsst
    easingequations.o(.ARM.exidx) refers to easingequations.o(i._ZN8touchgfx15EasingEquations14quintEaseInOutEtsst) for i._ZN8touchgfx15EasingEquations14quintEaseInOutEtsst
    easingequations.o(.ARM.exidx) refers to easingequations.o(i._ZN8touchgfx15EasingEquations10sineEaseInEtsst) for i._ZN8touchgfx15EasingEquations10sineEaseInEtsst
    easingequations.o(.ARM.exidx) refers to easingequations.o(i._ZN8touchgfx15EasingEquations11sineEaseOutEtsst) for i._ZN8touchgfx15EasingEquations11sineEaseOutEtsst
    easingequations.o(.ARM.exidx) refers to easingequations.o(i._ZN8touchgfx15EasingEquations13sineEaseInOutEtsst) for i._ZN8touchgfx15EasingEquations13sineEaseInOutEtsst
    font.o(i._ZNK8touchgfx4Font14getStringWidthEPKtz) refers to texts.o(.data) for touchgfx::Font::getStringWidthFunction
    font.o(i._ZNK8touchgfx4Font14getStringWidthEhPKtz) refers to texts.o(.data) for touchgfx::Font::getStringWidthFunction
    font.o(i._ZNK8touchgfx4Font15getSpacingAboveEPKtz) refers to textprovider.o(i._ZN8touchgfx12TextProviderC1Ev) for touchgfx::TextProvider::TextProvider()
    font.o(i._ZNK8touchgfx4Font15getSpacingAboveEPKtz) refers to textprovider.o(i._ZN8touchgfx12TextProvider10initializeEPKtSt9__va_list) for touchgfx::TextProvider::initialize(const unsigned short*, std::__va_list)
    font.o(i._ZNK8touchgfx4Font15getSpacingAboveEPKtz) refers to font.o(i._ZNK8touchgfx9GlyphNode3topEv) for touchgfx::GlyphNode::top() const
    font.o(i._ZNK8touchgfx4Font15getSpacingAboveEPKtz) refers to textprovider.o(i._ZN8touchgfx12TextProvider15getNextLigatureEh) for touchgfx::TextProvider::getNextLigature(unsigned char)
    font.o(i._ZNK8touchgfx4Font16getMaxTextHeightEPKtz) refers to textprovider.o(i._ZN8touchgfx12TextProviderC1Ev) for touchgfx::TextProvider::TextProvider()
    font.o(i._ZNK8touchgfx4Font16getMaxTextHeightEPKtz) refers to textprovider.o(i._ZN8touchgfx12TextProvider10initializeEPKtSt9__va_list) for touchgfx::TextProvider::initialize(const unsigned short*, std::__va_list)
    font.o(i._ZNK8touchgfx4Font16getMaxTextHeightEPKtz) refers to font.o(i._ZNK8touchgfx9GlyphNode3topEv) for touchgfx::GlyphNode::top() const
    font.o(i._ZNK8touchgfx4Font16getMaxTextHeightEPKtz) refers to textprovider.o(i._ZN8touchgfx12TextProvider15getNextLigatureEh) for touchgfx::TextProvider::getNextLigature(unsigned char)
    font.o(i._ZNK8touchgfx4Font16getNumberOfLinesEPKtz) refers to textprovider.o(i._ZN8touchgfx12TextProviderC1Ev) for touchgfx::TextProvider::TextProvider()
    font.o(i._ZNK8touchgfx4Font16getNumberOfLinesEPKtz) refers to textprovider.o(i._ZN8touchgfx12TextProvider10initializeEPKtSt9__va_list) for touchgfx::TextProvider::initialize(const unsigned short*, std::__va_list)
    font.o(i._ZNK8touchgfx4Font16getNumberOfLinesEPKtz) refers to textprovider.o(i._ZN8touchgfx12TextProvider11getNextCharEv) for touchgfx::TextProvider::getNextChar()
    font.o(i._ZNK8touchgfx4Font17getStringWidthLTREhPKtSt9__va_list) refers to textprovider.o(i._ZN8touchgfx12TextProviderC1Ev) for touchgfx::TextProvider::TextProvider()
    font.o(i._ZNK8touchgfx4Font17getStringWidthLTREhPKtSt9__va_list) refers to textprovider.o(i._ZN8touchgfx12TextProvider10initializeEPKtSt9__va_list) for touchgfx::TextProvider::initialize(const unsigned short*, std::__va_list)
    font.o(i._ZNK8touchgfx4Font17getStringWidthLTREhPKtSt9__va_list) refers to textprovider.o(i._ZN8touchgfx12TextProvider15getNextLigatureEh) for touchgfx::TextProvider::getNextLigature(unsigned char)
    font.o(i._ZNK8touchgfx4Font17getStringWidthRTLEhPKtSt9__va_list) refers to textprovider.o(i._ZN8touchgfx12TextProviderC1Ev) for touchgfx::TextProvider::TextProvider()
    font.o(i._ZNK8touchgfx4Font17getStringWidthRTLEhPKtSt9__va_list) refers to textprovider.o(i._ZN8touchgfx12TextProvider10initializeEPKtSt9__va_list) for touchgfx::TextProvider::initialize(const unsigned short*, std::__va_list)
    font.o(i._ZNK8touchgfx4Font17getStringWidthRTLEhPKtSt9__va_list) refers to textprovider.o(i._ZN8touchgfx12TextProvider15getNextLigatureEh) for touchgfx::TextProvider::getNextLigature(unsigned char)
    font.o(i._ZNK8touchgfx4Font17getStringWidthRTLEhPKtSt9__va_list) refers to lcd.o(i._ZN8touchgfx3LCD17drawStringRTLLineERsPKNS_4FontEhRtRNS_12TextProviderES7_MS0_FvS1_S4_hS7_ibPKNS0_24DrawStringInternalStructEEibSA_) for touchgfx::LCD::drawStringRTLLine(short&, const touchgfx::Font*, unsigned char, unsigned short&, touchgfx::TextProvider&, touchgfx::TextProvider&, void(touchgfx::LCD::*)(short&, const touchgfx::Font*, unsigned char, touchgfx::TextProvider&, int, bool, const touchgfx::LCD::DrawStringInternalStruct*), int, bool, const touchgfx::LCD::DrawStringInternalStruct*)
    font.o(i._ZNK8touchgfx4Font17getStringWidthRTLEhPKtSt9__va_list) refers to hal.o(.data) for touchgfx::HAL::instance
    font.o(i._ZNK8touchgfx4Font17getStringWidthRTLEhPKtSt9__va_list) refers to font.o(.data) for .data
    font.o(.ARM.exidx) refers to font.o(i._ZNK8touchgfx4Font14getStringWidthEPKtz) for i._ZNK8touchgfx4Font14getStringWidthEPKtz
    font.o(.ARM.exidx) refers to font.o(i._ZNK8touchgfx4Font14getStringWidthEhPKtz) for i._ZNK8touchgfx4Font14getStringWidthEhPKtz
    font.o(.ARM.exidx) refers to font.o(i._ZNK8touchgfx4Font12getCharWidthEt) for i._ZNK8touchgfx4Font12getCharWidthEt
    font.o(.ARM.exidx) refers to font.o(i._ZNK8touchgfx4Font15getSpacingAboveEPKtz) for i._ZNK8touchgfx4Font15getSpacingAboveEPKtz
    font.o(.ARM.exidx) refers to font.o(i._ZNK8touchgfx4Font16getMaxTextHeightEPKtz) for i._ZNK8touchgfx4Font16getMaxTextHeightEPKtz
    font.o(.ARM.exidx) refers to font.o(i._ZNK8touchgfx4Font16getNumberOfLinesEPKtz) for i._ZNK8touchgfx4Font16getNumberOfLinesEPKtz
    font.o(.ARM.exidx) refers to font.o(i._ZNK8touchgfx4Font17getStringWidthLTREhPKtSt9__va_list) for i._ZNK8touchgfx4Font17getStringWidthLTREhPKtSt9__va_list
    font.o(.ARM.exidx) refers to font.o(i._ZNK8touchgfx4Font17getStringWidthRTLEhPKtSt9__va_list) for i._ZNK8touchgfx4Font17getStringWidthRTLEhPKtSt9__va_list
    font.o(.data) refers to lcd.o(i._ZN8touchgfx3LCD23drawStringWidthInternalERsPKNS_4FontEhRNS_12TextProviderEibPKNS0_24DrawStringInternalStructE) for touchgfx::LCD::drawStringWidthInternal(short&, const touchgfx::Font*, unsigned char, touchgfx::TextProvider&, int, bool, const touchgfx::LCD::DrawStringInternalStruct*)
    fontmanager.o(i._ZN8touchgfx11FontManager15setFontProviderEPNS_12FontProviderE) refers to fontmanager.o(.data) for .data
    fontmanager.o(i._ZN8touchgfx11FontManager7getFontEt) refers to fontmanager.o(.data) for .data
    fontmanager.o(.ARM.exidx) refers to fontmanager.o(i._ZN8touchgfx11FontManager15setFontProviderEPNS_12FontProviderE) for i._ZN8touchgfx11FontManager15setFontProviderEPNS_12FontProviderE
    fontmanager.o(.ARM.exidx) refers to fontmanager.o(i._ZN8touchgfx11FontManager7getFontEt) for i._ZN8touchgfx11FontManager7getFontEt
    hal.o(i._ZN8touchgfx3HAL10beginFrameEv) refers to hal.o(.data) for .data
    hal.o(i._ZN8touchgfx3HAL10initializeEv) refers to oswrappers.o(i._ZN8touchgfx10OSWrappers10initializeEv) for touchgfx::OSWrappers::initialize()
    hal.o(i._ZN8touchgfx3HAL12setMCUActiveEb) refers to gpio.o(i._ZN8touchgfx4GPIO3setENS0_7GPIO_IDE) for touchgfx::GPIO::set(touchgfx::GPIO::GPIO_ID)
    hal.o(i._ZN8touchgfx3HAL12setMCUActiveEb) refers to gpio.o(i._ZN8touchgfx4GPIO5clearENS0_7GPIO_IDE) for touchgfx::GPIO::clear(touchgfx::GPIO::GPIO_ID)
    hal.o(i._ZN8touchgfx3HAL13blitCopyGlyphEPKhtttttNS_9colortypeEhNS_14BlitOperationsE) refers to stm32f7dma.o(i._ZN8touchgfx6BlitOpC1Ev) for touchgfx::BlitOp::BlitOp()
    hal.o(i._ZN8touchgfx3HAL13blitCopyGlyphEPKhtttttNS_9colortypeEhNS_14BlitOperationsE) refers to hal.o(i._ZN8touchgfx3HAL20getClientFrameBufferEv) for touchgfx::HAL::getClientFrameBuffer()
    hal.o(i._ZN8touchgfx3HAL13blitCopyGlyphEPKhtttttNS_9colortypeEhNS_14BlitOperationsE) refers to hal.o(i._ZNK8touchgfx3HAL13getDstAddressEttPt) for touchgfx::HAL::getDstAddress(unsigned short, unsigned short, unsigned short*) const
    hal.o(i._ZN8touchgfx3HAL13blitCopyGlyphEPKhtttttNS_9colortypeEhNS_14BlitOperationsE) refers to abort.o(.text) for abort
    hal.o(i._ZN8touchgfx3HAL13blitCopyGlyphEPKhtttttNS_9colortypeEhNS_14BlitOperationsE) refers to hal.o(.data) for .data
    hal.o(i._ZN8touchgfx3HAL15lockFrameBufferEv) refers to dma.o(i._ZN8touchgfx13DMA_Interface15isDmaQueueEmptyEv) for touchgfx::DMA_Interface::isDmaQueueEmpty()
    hal.o(i._ZN8touchgfx3HAL15lockFrameBufferEv) refers to oswrappers.o(i._ZN8touchgfx10OSWrappers24takeFrameBufferSemaphoreEv) for touchgfx::OSWrappers::takeFrameBufferSemaphore()
    hal.o(i._ZN8touchgfx3HAL15lockFrameBufferEv) refers to hal.o(i._ZN8touchgfx3HAL20getClientFrameBufferEv) for touchgfx::HAL::getClientFrameBuffer()
    hal.o(i._ZN8touchgfx3HAL15lockFrameBufferEv) refers to hal.o(.data) for .data
    hal.o(i._ZN8touchgfx3HAL16blitCopyARGB8888EPKtttttth) refers to stm32f7dma.o(i._ZN8touchgfx6BlitOpC1Ev) for touchgfx::BlitOp::BlitOp()
    hal.o(i._ZN8touchgfx3HAL16blitCopyARGB8888EPKtttttth) refers to hal.o(i._ZN8touchgfx3HAL20getClientFrameBufferEv) for touchgfx::HAL::getClientFrameBuffer()
    hal.o(i._ZN8touchgfx3HAL16blitCopyARGB8888EPKtttttth) refers to hal.o(i._ZNK8touchgfx3HAL13getDstAddressEttPt) for touchgfx::HAL::getDstAddress(unsigned short, unsigned short, unsigned short*) const
    hal.o(i._ZN8touchgfx3HAL16blitCopyARGB8888EPKtttttth) refers to abort.o(.text) for abort
    hal.o(i._ZN8touchgfx3HAL16blitCopyARGB8888EPKtttttth) refers to hal.o(.data) for .data
    hal.o(i._ZN8touchgfx3HAL16swapFrameBuffersEv) refers to gpio.o(i._ZN8touchgfx4GPIO6toggleENS0_7GPIO_IDE) for touchgfx::GPIO::toggle(touchgfx::GPIO::GPIO_ID)
    hal.o(i._ZN8touchgfx3HAL16swapFrameBuffersEv) refers to hal.o(i._ZN8touchgfx3HAL20getClientFrameBufferEv) for touchgfx::HAL::getClientFrameBuffer()
    hal.o(i._ZN8touchgfx3HAL17unlockFrameBufferEv) refers to oswrappers.o(i._ZN8touchgfx10OSWrappers24giveFrameBufferSemaphoreEv) for touchgfx::OSWrappers::giveFrameBufferSemaphore()
    hal.o(i._ZN8touchgfx3HAL20copyFBRegionToMemoryENS_4RectE) refers to stm32f7dma.o(i._ZN8touchgfx6BlitOpC1Ev) for touchgfx::BlitOp::BlitOp()
    hal.o(i._ZN8touchgfx3HAL20copyFBRegionToMemoryENS_4RectE) refers to hal.o(i._ZNK8touchgfx3HAL13getDstAddressEttPt) for touchgfx::HAL::getDstAddress(unsigned short, unsigned short, unsigned short*) const
    hal.o(i._ZN8touchgfx3HAL20copyFBRegionToMemoryENS_4RectE) refers to abort.o(.text) for abort
    hal.o(i._ZN8touchgfx3HAL20copyFBRegionToMemoryENS_4RectE) refers to hal.o(.data) for .data
    hal.o(i._ZN8touchgfx3HAL21registerEventListenerERNS_15UIEventListenerE) refers to gestures.o(i._ZN8touchgfx8Gestures21registerEventListenerERNS_15UIEventListenerE) for touchgfx::Gestures::registerEventListener(touchgfx::UIEventListener&)
    hal.o(i._ZN8touchgfx3HAL4tickEv) refers to gpio.o(i._ZN8touchgfx4GPIO3setENS0_7GPIO_IDE) for touchgfx::GPIO::set(touchgfx::GPIO::GPIO_ID)
    hal.o(i._ZN8touchgfx3HAL4tickEv) refers to application.o(i._ZN8touchgfx11Application11getInstanceEv) for touchgfx::Application::getInstance()
    hal.o(i._ZN8touchgfx3HAL4tickEv) refers to gestures.o(i._ZN8touchgfx8Gestures4tickEv) for touchgfx::Gestures::tick()
    hal.o(i._ZN8touchgfx3HAL4tickEv) refers to gpio.o(i._ZN8touchgfx4GPIO5clearENS0_7GPIO_IDE) for touchgfx::GPIO::clear(touchgfx::GPIO::GPIO_ID)
    hal.o(i._ZN8touchgfx3HAL4tickEv) refers to hal.o(.data) for .data
    hal.o(i._ZN8touchgfx3HAL5touchEii) refers to touchcalibration.o(i._ZN8touchgfx16TouchCalibration14translatePointERNS_5PointE) for touchgfx::TouchCalibration::translatePoint(touchgfx::Point&)
    hal.o(i._ZN8touchgfx3HAL5touchEii) refers to displaytransformation.o(i._ZN8touchgfx21DisplayTransformation29transformFrameBufferToDisplayERsS1_) for touchgfx::DisplayTransformation::transformFrameBufferToDisplay(short&, short&)
    hal.o(i._ZN8touchgfx3HAL5touchEii) refers to gestures.o(i._ZN8touchgfx8Gestures17registerDragEventEtttt) for touchgfx::Gestures::registerDragEvent(unsigned short, unsigned short, unsigned short, unsigned short)
    hal.o(i._ZN8touchgfx3HAL5touchEii) refers to gestures.o(i._ZN8touchgfx8Gestures18registerClickEventENS_10ClickEvent14ClickEventTypeEtt) for touchgfx::Gestures::registerClickEvent(touchgfx::ClickEvent::ClickEventType, unsigned short, unsigned short)
    hal.o(i._ZN8touchgfx3HAL7noTouchEv) refers to gestures.o(i._ZN8touchgfx8Gestures18registerClickEventENS_10ClickEvent14ClickEventTypeEtt) for touchgfx::Gestures::registerClickEvent(touchgfx::ClickEvent::ClickEventType, unsigned short, unsigned short)
    hal.o(i._ZN8touchgfx3HAL8blitCopyEPKtttttthb) refers to stm32f7dma.o(i._ZN8touchgfx6BlitOpC1Ev) for touchgfx::BlitOp::BlitOp()
    hal.o(i._ZN8touchgfx3HAL8blitCopyEPKtttttthb) refers to hal.o(i._ZN8touchgfx3HAL20getClientFrameBufferEv) for touchgfx::HAL::getClientFrameBuffer()
    hal.o(i._ZN8touchgfx3HAL8blitCopyEPKtttttthb) refers to hal.o(i._ZNK8touchgfx3HAL13getDstAddressEttPt) for touchgfx::HAL::getDstAddress(unsigned short, unsigned short, unsigned short*) const
    hal.o(i._ZN8touchgfx3HAL8blitCopyEPKtttttthb) refers to abort.o(.text) for abort
    hal.o(i._ZN8touchgfx3HAL8blitCopyEPKtttttthb) refers to hal.o(.data) for .data
    hal.o(i._ZN8touchgfx3HAL8blitFillENS_9colortypeEtttth) refers to stm32f7dma.o(i._ZN8touchgfx6BlitOpC1Ev) for touchgfx::BlitOp::BlitOp()
