; Listing generated by Microsoft (R) Optimizing Compiler Version 19.11.25507.1 

	TITLE	C:\Users\Hjalm\Documents\Embedded\TouchGFX_Projects\GrowHouseController\generated\images\src\BitmapDatabase.cpp
	.686P
	.XMM
	include listing.inc
	.model	flat

INCLUDELIB MSVCRTD
INCLUDELIB OLDNAMES

PUBLIC	?getInstance@BitmapDatabase@@YAPBUBitmapData@Bitmap@touchgfx@@XZ ; BitmapDatabase::getInstance
PUBLIC	?getInstanceSize@BitmapDatabase@@YAGXZ		; BitmapDatabase::getInstanceSize
EXTRN	__RTC_InitBase:PROC
EXTRN	__RTC_Shutdown:PROC
EXTRN	?_Dark_Buttons_Round_Edge_icon_button@@3QBEB:BYTE ; _Dark_Buttons_Round_Edge_icon_button
EXTRN	?_Dark_Buttons_Round_Edge_icon_button_pressed@@3QBEB:BYTE ; _Dark_Buttons_Round_Edge_icon_button_pressed
EXTRN	?_Dark_Buttons_Round_Edge_large@@3QBEB:BYTE	; _Dark_Buttons_Round_Edge_large
EXTRN	?_Dark_Buttons_Round_Edge_large_pressed@@3QBEB:BYTE ; _Dark_Buttons_Round_Edge_large_pressed
EXTRN	?_Dark_Icons_Back_arrow_32@@3QBEB:BYTE		; _Dark_Icons_Back_arrow_32
EXTRN	?_Dark_Icons_Down_arrow_32@@3QBEB:BYTE		; _Dark_Icons_Down_arrow_32
EXTRN	?_Dark_Icons_Home_32@@3QBEB:BYTE		; _Dark_Icons_Home_32
EXTRN	?_Dark_Icons_Info_32@@3QBEB:BYTE		; _Dark_Icons_Info_32
EXTRN	?_Dark_Icons_Power_32@@3QBEB:BYTE		; _Dark_Icons_Power_32
EXTRN	?_Dark_Icons_Settings_32@@3QBEB:BYTE		; _Dark_Icons_Settings_32
EXTRN	?_Dark_Icons_Up_arrow_32@@3QBEB:BYTE		; _Dark_Icons_Up_arrow_32
EXTRN	?_Dark_Slider_Vertical_Small_Indicators_Slider3_Vertical_Round_nob@@3QBEB:BYTE ; _Dark_Slider_Vertical_Small_Indicators_Slider3_Vertical_Round_nob
EXTRN	?_Dark_Slider_Vertical_Small_Slider3_Vertical_Round_back@@3QBEB:BYTE ; _Dark_Slider_Vertical_Small_Slider3_Vertical_Round_back
EXTRN	?_Dark_Slider_Vertical_Small_Slider3_Vertical_Round_fill@@3QBEB:BYTE ; _Dark_Slider_Vertical_Small_Slider3_Vertical_Round_fill
EXTRN	?_Dark_Togglebars_Toggle_round_small_button_Off@@3QBEB:BYTE ; _Dark_Togglebars_Toggle_round_small_button_Off
EXTRN	?_Dark_Togglebars_Toggle_round_small_button_On@@3QBEB:BYTE ; _Dark_Togglebars_Toggle_round_small_button_On
EXTRN	?_Dark_Togglebars_Toggle_small_button_Off@@3QBEB:BYTE ; _Dark_Togglebars_Toggle_small_button_Off
EXTRN	?_Dark_Togglebars_Toggle_small_button_On@@3QBEB:BYTE ; _Dark_Togglebars_Toggle_small_button_On
EXTRN	?_background@@3QBEB:BYTE			; _background
_BSS	SEGMENT
?bitmap_database@@3QBUBitmapData@Bitmap@touchgfx@@B DB 01c8H DUP (?) ; bitmap_database
_BSS	ENDS
CRT$XCU	SEGMENT
?bitmap_database$initializer$@@3P6AXXZA DD FLAT:??__Ebitmap_database@@YAXXZ ; bitmap_database$initializer$
CRT$XCU	ENDS
;	COMDAT rtc$TMZ
rtc$TMZ	SEGMENT
__RTC_Shutdown.rtc$TMZ DD FLAT:__RTC_Shutdown
rtc$TMZ	ENDS
;	COMDAT rtc$IMZ
rtc$IMZ	SEGMENT
__RTC_InitBase.rtc$IMZ DD FLAT:__RTC_InitBase
rtc$IMZ	ENDS
; Function compile flags: /Odtp /RTCsu /ZI
;	COMDAT ??__Ebitmap_database@@YAXXZ
text$di	SEGMENT
??__Ebitmap_database@@YAXXZ PROC			; `dynamic initializer for 'bitmap_database'', COMDAT
; File c:\users\hjalm\documents\embedded\touchgfx_projects\growhousecontroller\generated\images\src\bitmapdatabase.cpp
; Line 50
	push	ebp
	mov	ebp, esp
	sub	esp, 192				; 000000c0H
	push	ebx
	push	esi
	push	edi
	lea	edi, DWORD PTR [ebp-192]
	mov	ecx, 48					; 00000030H
	mov	eax, -858993460				; ccccccccH
	rep stosd
; Line 31
	mov	DWORD PTR ?bitmap_database@@3QBUBitmapData@Bitmap@touchgfx@@B, OFFSET ?_Dark_Buttons_Round_Edge_icon_button@@3QBEB ; _Dark_Buttons_Round_Edge_icon_button
	mov	DWORD PTR ?bitmap_database@@3QBUBitmapData@Bitmap@touchgfx@@B+4, 0
	mov	eax, 60					; 0000003cH
	mov	WORD PTR ?bitmap_database@@3QBUBitmapData@Bitmap@touchgfx@@B+8, ax
	mov	eax, 60					; 0000003cH
	mov	WORD PTR ?bitmap_database@@3QBUBitmapData@Bitmap@touchgfx@@B+10, ax
	mov	eax, 7
	mov	WORD PTR ?bitmap_database@@3QBUBitmapData@Bitmap@touchgfx@@B+12, ax
	mov	eax, 6
	mov	WORD PTR ?bitmap_database@@3QBUBitmapData@Bitmap@touchgfx@@B+14, ax
	mov	eax, 46					; 0000002eH
	mov	WORD PTR ?bitmap_database@@3QBUBitmapData@Bitmap@touchgfx@@B+16, ax
	mov	eax, 46					; 0000002eH
	mov	WORD PTR ?bitmap_database@@3QBUBitmapData@Bitmap@touchgfx@@B+18, ax
	mov	BYTE PTR ?bitmap_database@@3QBUBitmapData@Bitmap@touchgfx@@B+20, 2
; Line 32
	mov	DWORD PTR ?bitmap_database@@3QBUBitmapData@Bitmap@touchgfx@@B+24, OFFSET ?_Dark_Buttons_Round_Edge_icon_button_pressed@@3QBEB ; _Dark_Buttons_Round_Edge_icon_button_pressed
	mov	DWORD PTR ?bitmap_database@@3QBUBitmapData@Bitmap@touchgfx@@B+28, 0
	mov	eax, 60					; 0000003cH
	mov	WORD PTR ?bitmap_database@@3QBUBitmapData@Bitmap@touchgfx@@B+32, ax
	mov	eax, 60					; 0000003cH
	mov	WORD PTR ?bitmap_database@@3QBUBitmapData@Bitmap@touchgfx@@B+34, ax
	mov	eax, 7
	mov	WORD PTR ?bitmap_database@@3QBUBitmapData@Bitmap@touchgfx@@B+36, ax
	mov	eax, 6
	mov	WORD PTR ?bitmap_database@@3QBUBitmapData@Bitmap@touchgfx@@B+38, ax
	mov	eax, 46					; 0000002eH
	mov	WORD PTR ?bitmap_database@@3QBUBitmapData@Bitmap@touchgfx@@B+40, ax
	mov	eax, 46					; 0000002eH
	mov	WORD PTR ?bitmap_database@@3QBUBitmapData@Bitmap@touchgfx@@B+42, ax
	mov	BYTE PTR ?bitmap_database@@3QBUBitmapData@Bitmap@touchgfx@@B+44, 2
; Line 33
	mov	DWORD PTR ?bitmap_database@@3QBUBitmapData@Bitmap@touchgfx@@B+48, OFFSET ?_Dark_Buttons_Round_Edge_large@@3QBEB ; _Dark_Buttons_Round_Edge_large
	mov	DWORD PTR ?bitmap_database@@3QBUBitmapData@Bitmap@touchgfx@@B+52, 0
	mov	eax, 360				; 00000168H
	mov	WORD PTR ?bitmap_database@@3QBUBitmapData@Bitmap@touchgfx@@B+56, ax
	mov	eax, 60					; 0000003cH
	mov	WORD PTR ?bitmap_database@@3QBUBitmapData@Bitmap@touchgfx@@B+58, ax
	mov	eax, 10					; 0000000aH
	mov	WORD PTR ?bitmap_database@@3QBUBitmapData@Bitmap@touchgfx@@B+60, ax
	mov	eax, 4
	mov	WORD PTR ?bitmap_database@@3QBUBitmapData@Bitmap@touchgfx@@B+62, ax
	mov	eax, 340				; 00000154H
	mov	WORD PTR ?bitmap_database@@3QBUBitmapData@Bitmap@touchgfx@@B+64, ax
	mov	eax, 50					; 00000032H
	mov	WORD PTR ?bitmap_database@@3QBUBitmapData@Bitmap@touchgfx@@B+66, ax
	mov	BYTE PTR ?bitmap_database@@3QBUBitmapData@Bitmap@touchgfx@@B+68, 2
; Line 34
	mov	DWORD PTR ?bitmap_database@@3QBUBitmapData@Bitmap@touchgfx@@B+72, OFFSET ?_Dark_Buttons_Round_Edge_large_pressed@@3QBEB ; _Dark_Buttons_Round_Edge_large_pressed
	mov	DWORD PTR ?bitmap_database@@3QBUBitmapData@Bitmap@touchgfx@@B+76, 0
	mov	eax, 360				; 00000168H
	mov	WORD PTR ?bitmap_database@@3QBUBitmapData@Bitmap@touchgfx@@B+80, ax
	mov	eax, 60					; 0000003cH
	mov	WORD PTR ?bitmap_database@@3QBUBitmapData@Bitmap@touchgfx@@B+82, ax
	mov	eax, 10					; 0000000aH
	mov	WORD PTR ?bitmap_database@@3QBUBitmapData@Bitmap@touchgfx@@B+84, ax
	mov	eax, 4
	mov	WORD PTR ?bitmap_database@@3QBUBitmapData@Bitmap@touchgfx@@B+86, ax
	mov	eax, 340				; 00000154H
	mov	WORD PTR ?bitmap_database@@3QBUBitmapData@Bitmap@touchgfx@@B+88, ax
	mov	eax, 50					; 00000032H
	mov	WORD PTR ?bitmap_database@@3QBUBitmapData@Bitmap@touchgfx@@B+90, ax
	mov	BYTE PTR ?bitmap_database@@3QBUBitmapData@Bitmap@touchgfx@@B+92, 2
; Line 35
	mov	DWORD PTR ?bitmap_database@@3QBUBitmapData@Bitmap@touchgfx@@B+96, OFFSET ?_Dark_Icons_Back_arrow_32@@3QBEB ; _Dark_Icons_Back_arrow_32
	mov	DWORD PTR ?bitmap_database@@3QBUBitmapData@Bitmap@touchgfx@@B+100, 0
	mov	eax, 19					; 00000013H
	mov	WORD PTR ?bitmap_database@@3QBUBitmapData@Bitmap@touchgfx@@B+104, ax
	mov	eax, 32					; 00000020H
	mov	WORD PTR ?bitmap_database@@3QBUBitmapData@Bitmap@touchgfx@@B+106, ax
	mov	eax, 4
	mov	WORD PTR ?bitmap_database@@3QBUBitmapData@Bitmap@touchgfx@@B+108, ax
	mov	eax, 11					; 0000000bH
	mov	WORD PTR ?bitmap_database@@3QBUBitmapData@Bitmap@touchgfx@@B+110, ax
	mov	eax, 4
	mov	WORD PTR ?bitmap_database@@3QBUBitmapData@Bitmap@touchgfx@@B+112, ax
	mov	eax, 8
	mov	WORD PTR ?bitmap_database@@3QBUBitmapData@Bitmap@touchgfx@@B+114, ax
	mov	BYTE PTR ?bitmap_database@@3QBUBitmapData@Bitmap@touchgfx@@B+116, 2
; Line 36
	mov	DWORD PTR ?bitmap_database@@3QBUBitmapData@Bitmap@touchgfx@@B+120, OFFSET ?_Dark_Icons_Down_arrow_32@@3QBEB ; _Dark_Icons_Down_arrow_32
	mov	DWORD PTR ?bitmap_database@@3QBUBitmapData@Bitmap@touchgfx@@B+124, 0
	mov	eax, 32					; 00000020H
	mov	WORD PTR ?bitmap_database@@3QBUBitmapData@Bitmap@touchgfx@@B+128, ax
	mov	eax, 19					; 00000013H
	mov	WORD PTR ?bitmap_database@@3QBUBitmapData@Bitmap@touchgfx@@B+130, ax
	mov	eax, 12					; 0000000cH
	mov	WORD PTR ?bitmap_database@@3QBUBitmapData@Bitmap@touchgfx@@B+132, ax
	mov	eax, 10					; 0000000aH
	mov	WORD PTR ?bitmap_database@@3QBUBitmapData@Bitmap@touchgfx@@B+134, ax
	mov	eax, 8
	mov	WORD PTR ?bitmap_database@@3QBUBitmapData@Bitmap@touchgfx@@B+136, ax
	mov	eax, 4
	mov	WORD PTR ?bitmap_database@@3QBUBitmapData@Bitmap@touchgfx@@B+138, ax
	mov	BYTE PTR ?bitmap_database@@3QBUBitmapData@Bitmap@touchgfx@@B+140, 2
; Line 37
	mov	DWORD PTR ?bitmap_database@@3QBUBitmapData@Bitmap@touchgfx@@B+144, OFFSET ?_Dark_Icons_Home_32@@3QBEB ; _Dark_Icons_Home_32
	mov	DWORD PTR ?bitmap_database@@3QBUBitmapData@Bitmap@touchgfx@@B+148, 0
	mov	eax, 32					; 00000020H
	mov	WORD PTR ?bitmap_database@@3QBUBitmapData@Bitmap@touchgfx@@B+152, ax
	mov	eax, 31					; 0000001fH
	mov	WORD PTR ?bitmap_database@@3QBUBitmapData@Bitmap@touchgfx@@B+154, ax
	mov	eax, 24					; 00000018H
	mov	WORD PTR ?bitmap_database@@3QBUBitmapData@Bitmap@touchgfx@@B+156, ax
	mov	eax, 9
	mov	WORD PTR ?bitmap_database@@3QBUBitmapData@Bitmap@touchgfx@@B+158, ax
	mov	eax, 3
	mov	WORD PTR ?bitmap_database@@3QBUBitmapData@Bitmap@touchgfx@@B+160, ax
	mov	eax, 20					; 00000014H
	mov	WORD PTR ?bitmap_database@@3QBUBitmapData@Bitmap@touchgfx@@B+162, ax
	mov	BYTE PTR ?bitmap_database@@3QBUBitmapData@Bitmap@touchgfx@@B+164, 2
; Line 38
	mov	DWORD PTR ?bitmap_database@@3QBUBitmapData@Bitmap@touchgfx@@B+168, OFFSET ?_Dark_Icons_Info_32@@3QBEB ; _Dark_Icons_Info_32
	mov	DWORD PTR ?bitmap_database@@3QBUBitmapData@Bitmap@touchgfx@@B+172, 0
	mov	eax, 32					; 00000020H
	mov	WORD PTR ?bitmap_database@@3QBUBitmapData@Bitmap@touchgfx@@B+176, ax
	mov	eax, 32					; 00000020H
	mov	WORD PTR ?bitmap_database@@3QBUBitmapData@Bitmap@touchgfx@@B+178, ax
	mov	eax, 29					; 0000001dH
	mov	WORD PTR ?bitmap_database@@3QBUBitmapData@Bitmap@touchgfx@@B+180, ax
	mov	eax, 10					; 0000000aH
	mov	WORD PTR ?bitmap_database@@3QBUBitmapData@Bitmap@touchgfx@@B+182, ax
	mov	eax, 1
	mov	WORD PTR ?bitmap_database@@3QBUBitmapData@Bitmap@touchgfx@@B+184, ax
	mov	eax, 10					; 0000000aH
	mov	WORD PTR ?bitmap_database@@3QBUBitmapData@Bitmap@touchgfx@@B+186, ax
	mov	BYTE PTR ?bitmap_database@@3QBUBitmapData@Bitmap@touchgfx@@B+188, 2
; Line 39
	mov	DWORD PTR ?bitmap_database@@3QBUBitmapData@Bitmap@touchgfx@@B+192, OFFSET ?_Dark_Icons_Power_32@@3QBEB ; _Dark_Icons_Power_32
	mov	DWORD PTR ?bitmap_database@@3QBUBitmapData@Bitmap@touchgfx@@B+196, 0
	mov	eax, 31					; 0000001fH
	mov	WORD PTR ?bitmap_database@@3QBUBitmapData@Bitmap@touchgfx@@B+200, ax
	mov	eax, 31					; 0000001fH
	mov	WORD PTR ?bitmap_database@@3QBUBitmapData@Bitmap@touchgfx@@B+202, ax
	mov	eax, 11					; 0000000bH
	mov	WORD PTR ?bitmap_database@@3QBUBitmapData@Bitmap@touchgfx@@B+204, ax
	mov	eax, 14					; 0000000eH
	mov	WORD PTR ?bitmap_database@@3QBUBitmapData@Bitmap@touchgfx@@B+206, ax
	mov	eax, 9
	mov	WORD PTR ?bitmap_database@@3QBUBitmapData@Bitmap@touchgfx@@B+208, ax
	mov	eax, 5
	mov	WORD PTR ?bitmap_database@@3QBUBitmapData@Bitmap@touchgfx@@B+210, ax
	mov	BYTE PTR ?bitmap_database@@3QBUBitmapData@Bitmap@touchgfx@@B+212, 2
; Line 40
	mov	DWORD PTR ?bitmap_database@@3QBUBitmapData@Bitmap@touchgfx@@B+216, OFFSET ?_Dark_Icons_Settings_32@@3QBEB ; _Dark_Icons_Settings_32
	mov	DWORD PTR ?bitmap_database@@3QBUBitmapData@Bitmap@touchgfx@@B+220, 0
	mov	eax, 32					; 00000020H
	mov	WORD PTR ?bitmap_database@@3QBUBitmapData@Bitmap@touchgfx@@B+224, ax
	mov	eax, 32					; 00000020H
	mov	WORD PTR ?bitmap_database@@3QBUBitmapData@Bitmap@touchgfx@@B+226, ax
	mov	eax, 29					; 0000001dH
	mov	WORD PTR ?bitmap_database@@3QBUBitmapData@Bitmap@touchgfx@@B+228, ax
	mov	eax, 12					; 0000000cH
	mov	WORD PTR ?bitmap_database@@3QBUBitmapData@Bitmap@touchgfx@@B+230, ax
	mov	eax, 1
	mov	WORD PTR ?bitmap_database@@3QBUBitmapData@Bitmap@touchgfx@@B+232, ax
	mov	eax, 6
	mov	WORD PTR ?bitmap_database@@3QBUBitmapData@Bitmap@touchgfx@@B+234, ax
	mov	BYTE PTR ?bitmap_database@@3QBUBitmapData@Bitmap@touchgfx@@B+236, 2
; Line 41
	mov	DWORD PTR ?bitmap_database@@3QBUBitmapData@Bitmap@touchgfx@@B+240, OFFSET ?_Dark_Icons_Up_arrow_32@@3QBEB ; _Dark_Icons_Up_arrow_32
	mov	DWORD PTR ?bitmap_database@@3QBUBitmapData@Bitmap@touchgfx@@B+244, 0
	mov	eax, 32					; 00000020H
	mov	WORD PTR ?bitmap_database@@3QBUBitmapData@Bitmap@touchgfx@@B+248, ax
	mov	eax, 19					; 00000013H
	mov	WORD PTR ?bitmap_database@@3QBUBitmapData@Bitmap@touchgfx@@B+250, ax
	mov	eax, 12					; 0000000cH
	mov	WORD PTR ?bitmap_database@@3QBUBitmapData@Bitmap@touchgfx@@B+252, ax
	mov	eax, 3
	mov	WORD PTR ?bitmap_database@@3QBUBitmapData@Bitmap@touchgfx@@B+254, ax
	mov	eax, 8
	mov	WORD PTR ?bitmap_database@@3QBUBitmapData@Bitmap@touchgfx@@B+256, ax
	mov	eax, 4
	mov	WORD PTR ?bitmap_database@@3QBUBitmapData@Bitmap@touchgfx@@B+258, ax
	mov	BYTE PTR ?bitmap_database@@3QBUBitmapData@Bitmap@touchgfx@@B+260, 2
; Line 42
	mov	DWORD PTR ?bitmap_database@@3QBUBitmapData@Bitmap@touchgfx@@B+264, OFFSET ?_Dark_Slider_Vertical_Small_Indicators_Slider3_Vertical_Round_nob@@3QBEB ; _Dark_Slider_Vertical_Small_Indicators_Slider3_Vertical_Round_nob
	mov	DWORD PTR ?bitmap_database@@3QBUBitmapData@Bitmap@touchgfx@@B+268, 0
	mov	eax, 34					; 00000022H
	mov	WORD PTR ?bitmap_database@@3QBUBitmapData@Bitmap@touchgfx@@B+272, ax
	mov	eax, 54					; 00000036H
	mov	WORD PTR ?bitmap_database@@3QBUBitmapData@Bitmap@touchgfx@@B+274, ax
	mov	eax, 5
	mov	WORD PTR ?bitmap_database@@3QBUBitmapData@Bitmap@touchgfx@@B+276, ax
	mov	eax, 7
	mov	WORD PTR ?bitmap_database@@3QBUBitmapData@Bitmap@touchgfx@@B+278, ax
	mov	eax, 24					; 00000018H
	mov	WORD PTR ?bitmap_database@@3QBUBitmapData@Bitmap@touchgfx@@B+280, ax
	mov	eax, 38					; 00000026H
	mov	WORD PTR ?bitmap_database@@3QBUBitmapData@Bitmap@touchgfx@@B+282, ax
	mov	BYTE PTR ?bitmap_database@@3QBUBitmapData@Bitmap@touchgfx@@B+284, 2
; Line 43
	mov	DWORD PTR ?bitmap_database@@3QBUBitmapData@Bitmap@touchgfx@@B+288, OFFSET ?_Dark_Slider_Vertical_Small_Slider3_Vertical_Round_back@@3QBEB ; _Dark_Slider_Vertical_Small_Slider3_Vertical_Round_back
	mov	DWORD PTR ?bitmap_database@@3QBUBitmapData@Bitmap@touchgfx@@B+292, 0
	mov	eax, 40					; 00000028H
	mov	WORD PTR ?bitmap_database@@3QBUBitmapData@Bitmap@touchgfx@@B+296, ax
	mov	eax, 193				; 000000c1H
	mov	WORD PTR ?bitmap_database@@3QBUBitmapData@Bitmap@touchgfx@@B+298, ax
	mov	eax, 1
	mov	WORD PTR ?bitmap_database@@3QBUBitmapData@Bitmap@touchgfx@@B+300, ax
	mov	eax, 14					; 0000000eH
	mov	WORD PTR ?bitmap_database@@3QBUBitmapData@Bitmap@touchgfx@@B+302, ax
	mov	eax, 38					; 00000026H
	mov	WORD PTR ?bitmap_database@@3QBUBitmapData@Bitmap@touchgfx@@B+304, ax
	mov	eax, 164				; 000000a4H
	mov	WORD PTR ?bitmap_database@@3QBUBitmapData@Bitmap@touchgfx@@B+306, ax
	mov	BYTE PTR ?bitmap_database@@3QBUBitmapData@Bitmap@touchgfx@@B+308, 2
; Line 44
	mov	DWORD PTR ?bitmap_database@@3QBUBitmapData@Bitmap@touchgfx@@B+312, OFFSET ?_Dark_Slider_Vertical_Small_Slider3_Vertical_Round_fill@@3QBEB ; _Dark_Slider_Vertical_Small_Slider3_Vertical_Round_fill
	mov	DWORD PTR ?bitmap_database@@3QBUBitmapData@Bitmap@touchgfx@@B+316, 0
	mov	eax, 40					; 00000028H
	mov	WORD PTR ?bitmap_database@@3QBUBitmapData@Bitmap@touchgfx@@B+320, ax
	mov	eax, 193				; 000000c1H
	mov	WORD PTR ?bitmap_database@@3QBUBitmapData@Bitmap@touchgfx@@B+322, ax
	mov	eax, 1
	mov	WORD PTR ?bitmap_database@@3QBUBitmapData@Bitmap@touchgfx@@B+324, ax
	mov	eax, 14					; 0000000eH
	mov	WORD PTR ?bitmap_database@@3QBUBitmapData@Bitmap@touchgfx@@B+326, ax
	mov	eax, 38					; 00000026H
	mov	WORD PTR ?bitmap_database@@3QBUBitmapData@Bitmap@touchgfx@@B+328, ax
	mov	eax, 164				; 000000a4H
	mov	WORD PTR ?bitmap_database@@3QBUBitmapData@Bitmap@touchgfx@@B+330, ax
	mov	BYTE PTR ?bitmap_database@@3QBUBitmapData@Bitmap@touchgfx@@B+332, 2
; Line 45
	mov	DWORD PTR ?bitmap_database@@3QBUBitmapData@Bitmap@touchgfx@@B+336, OFFSET ?_Dark_Togglebars_Toggle_round_small_button_Off@@3QBEB ; _Dark_Togglebars_Toggle_round_small_button_Off
	mov	DWORD PTR ?bitmap_database@@3QBUBitmapData@Bitmap@touchgfx@@B+340, 0
	mov	eax, 96					; 00000060H
	mov	WORD PTR ?bitmap_database@@3QBUBitmapData@Bitmap@touchgfx@@B+344, ax
	mov	eax, 38					; 00000026H
	mov	WORD PTR ?bitmap_database@@3QBUBitmapData@Bitmap@touchgfx@@B+346, ax
	mov	eax, 13					; 0000000dH
	mov	WORD PTR ?bitmap_database@@3QBUBitmapData@Bitmap@touchgfx@@B+348, ax
	mov	eax, 1
	mov	WORD PTR ?bitmap_database@@3QBUBitmapData@Bitmap@touchgfx@@B+350, ax
	mov	eax, 70					; 00000046H
	mov	WORD PTR ?bitmap_database@@3QBUBitmapData@Bitmap@touchgfx@@B+352, ax
	mov	eax, 36					; 00000024H
	mov	WORD PTR ?bitmap_database@@3QBUBitmapData@Bitmap@touchgfx@@B+354, ax
	mov	BYTE PTR ?bitmap_database@@3QBUBitmapData@Bitmap@touchgfx@@B+356, 2
; Line 46
	mov	DWORD PTR ?bitmap_database@@3QBUBitmapData@Bitmap@touchgfx@@B+360, OFFSET ?_Dark_Togglebars_Toggle_round_small_button_On@@3QBEB ; _Dark_Togglebars_Toggle_round_small_button_On
	mov	DWORD PTR ?bitmap_database@@3QBUBitmapData@Bitmap@touchgfx@@B+364, 0
	mov	eax, 96					; 00000060H
	mov	WORD PTR ?bitmap_database@@3QBUBitmapData@Bitmap@touchgfx@@B+368, ax
	mov	eax, 38					; 00000026H
	mov	WORD PTR ?bitmap_database@@3QBUBitmapData@Bitmap@touchgfx@@B+370, ax
	mov	eax, 13					; 0000000dH
	mov	WORD PTR ?bitmap_database@@3QBUBitmapData@Bitmap@touchgfx@@B+372, ax
	mov	eax, 1
	mov	WORD PTR ?bitmap_database@@3QBUBitmapData@Bitmap@touchgfx@@B+374, ax
	mov	eax, 70					; 00000046H
	mov	WORD PTR ?bitmap_database@@3QBUBitmapData@Bitmap@touchgfx@@B+376, ax
	mov	eax, 36					; 00000024H
	mov	WORD PTR ?bitmap_database@@3QBUBitmapData@Bitmap@touchgfx@@B+378, ax
	mov	BYTE PTR ?bitmap_database@@3QBUBitmapData@Bitmap@touchgfx@@B+380, 2
; Line 47
	mov	DWORD PTR ?bitmap_database@@3QBUBitmapData@Bitmap@touchgfx@@B+384, OFFSET ?_Dark_Togglebars_Toggle_small_button_Off@@3QBEB ; _Dark_Togglebars_Toggle_small_button_Off
	mov	DWORD PTR ?bitmap_database@@3QBUBitmapData@Bitmap@touchgfx@@B+388, 0
	mov	eax, 96					; 00000060H
	mov	WORD PTR ?bitmap_database@@3QBUBitmapData@Bitmap@touchgfx@@B+392, ax
	mov	eax, 38					; 00000026H
	mov	WORD PTR ?bitmap_database@@3QBUBitmapData@Bitmap@touchgfx@@B+394, ax
	xor	eax, eax
	mov	WORD PTR ?bitmap_database@@3QBUBitmapData@Bitmap@touchgfx@@B+396, ax
	xor	eax, eax
	mov	WORD PTR ?bitmap_database@@3QBUBitmapData@Bitmap@touchgfx@@B+398, ax
	mov	eax, 96					; 00000060H
	mov	WORD PTR ?bitmap_database@@3QBUBitmapData@Bitmap@touchgfx@@B+400, ax
	mov	eax, 38					; 00000026H
	mov	WORD PTR ?bitmap_database@@3QBUBitmapData@Bitmap@touchgfx@@B+402, ax
	mov	BYTE PTR ?bitmap_database@@3QBUBitmapData@Bitmap@touchgfx@@B+404, 0
; Line 48
	mov	DWORD PTR ?bitmap_database@@3QBUBitmapData@Bitmap@touchgfx@@B+408, OFFSET ?_Dark_Togglebars_Toggle_small_button_On@@3QBEB ; _Dark_Togglebars_Toggle_small_button_On
	mov	DWORD PTR ?bitmap_database@@3QBUBitmapData@Bitmap@touchgfx@@B+412, 0
	mov	eax, 96					; 00000060H
	mov	WORD PTR ?bitmap_database@@3QBUBitmapData@Bitmap@touchgfx@@B+416, ax
	mov	eax, 38					; 00000026H
	mov	WORD PTR ?bitmap_database@@3QBUBitmapData@Bitmap@touchgfx@@B+418, ax
	xor	eax, eax
	mov	WORD PTR ?bitmap_database@@3QBUBitmapData@Bitmap@touchgfx@@B+420, ax
	xor	eax, eax
	mov	WORD PTR ?bitmap_database@@3QBUBitmapData@Bitmap@touchgfx@@B+422, ax
	mov	eax, 96					; 00000060H
	mov	WORD PTR ?bitmap_database@@3QBUBitmapData@Bitmap@touchgfx@@B+424, ax
	mov	eax, 38					; 00000026H
	mov	WORD PTR ?bitmap_database@@3QBUBitmapData@Bitmap@touchgfx@@B+426, ax
	mov	BYTE PTR ?bitmap_database@@3QBUBitmapData@Bitmap@touchgfx@@B+428, 0
; Line 49
	mov	DWORD PTR ?bitmap_database@@3QBUBitmapData@Bitmap@touchgfx@@B+432, OFFSET ?_background@@3QBEB ; _background
	mov	DWORD PTR ?bitmap_database@@3QBUBitmapData@Bitmap@touchgfx@@B+436, 0
	mov	eax, 480				; 000001e0H
	mov	WORD PTR ?bitmap_database@@3QBUBitmapData@Bitmap@touchgfx@@B+440, ax
	mov	eax, 272				; 00000110H
	mov	WORD PTR ?bitmap_database@@3QBUBitmapData@Bitmap@touchgfx@@B+442, ax
	xor	eax, eax
	mov	WORD PTR ?bitmap_database@@3QBUBitmapData@Bitmap@touchgfx@@B+444, ax
	xor	eax, eax
	mov	WORD PTR ?bitmap_database@@3QBUBitmapData@Bitmap@touchgfx@@B+446, ax
	mov	eax, 480				; 000001e0H
	mov	WORD PTR ?bitmap_database@@3QBUBitmapData@Bitmap@touchgfx@@B+448, ax
	mov	eax, 272				; 00000110H
	mov	WORD PTR ?bitmap_database@@3QBUBitmapData@Bitmap@touchgfx@@B+450, ax
	mov	BYTE PTR ?bitmap_database@@3QBUBitmapData@Bitmap@touchgfx@@B+452, 0
	pop	edi
	pop	esi
	pop	ebx
	mov	esp, ebp
	pop	ebp
	ret	0
??__Ebitmap_database@@YAXXZ ENDP			; `dynamic initializer for 'bitmap_database''
text$di	ENDS
; Function compile flags: /Odtp /RTCsu /ZI
;	COMDAT ?getInstanceSize@BitmapDatabase@@YAGXZ
_TEXT	SEGMENT
?getInstanceSize@BitmapDatabase@@YAGXZ PROC		; BitmapDatabase::getInstanceSize, COMDAT
; File c:\users\hjalm\documents\embedded\touchgfx_projects\growhousecontroller\generated\images\src\bitmapdatabase.cpp
; Line 59
	push	ebp
	mov	ebp, esp
	sub	esp, 192				; 000000c0H
	push	ebx
	push	esi
	push	edi
	lea	edi, DWORD PTR [ebp-192]
	mov	ecx, 48					; 00000030H
	mov	eax, -858993460				; ccccccccH
	rep stosd
; Line 60
	mov	eax, 19					; 00000013H
; Line 61
	pop	edi
	pop	esi
	pop	ebx
	mov	esp, ebp
	pop	ebp
	ret	0
?getInstanceSize@BitmapDatabase@@YAGXZ ENDP		; BitmapDatabase::getInstanceSize
_TEXT	ENDS
; Function compile flags: /Odtp /RTCsu /ZI
;	COMDAT ?getInstance@BitmapDatabase@@YAPBUBitmapData@Bitmap@touchgfx@@XZ
_TEXT	SEGMENT
?getInstance@BitmapDatabase@@YAPBUBitmapData@Bitmap@touchgfx@@XZ PROC ; BitmapDatabase::getInstance, COMDAT
; File c:\users\hjalm\documents\embedded\touchgfx_projects\growhousecontroller\generated\images\src\bitmapdatabase.cpp
; Line 55
	push	ebp
	mov	ebp, esp
	sub	esp, 192				; 000000c0H
	push	ebx
	push	esi
	push	edi
	lea	edi, DWORD PTR [ebp-192]
	mov	ecx, 48					; 00000030H
	mov	eax, -858993460				; ccccccccH
	rep stosd
; Line 56
	mov	eax, OFFSET ?bitmap_database@@3QBUBitmapData@Bitmap@touchgfx@@B
; Line 57
	pop	edi
	pop	esi
	pop	ebx
	mov	esp, ebp
	pop	ebp
	ret	0
?getInstance@BitmapDatabase@@YAPBUBitmapData@Bitmap@touchgfx@@XZ ENDP ; BitmapDatabase::getInstance
_TEXT	ENDS
END
