; Listing generated by Microsoft (R) Optimizing Compiler Version 19.11.25507.1 

	TITLE	C:\Users\Hjalm\Documents\Embedded\TouchGFX_Projects\GrowHouseController\generated\images\src\__designer\Dark_Slider_Vertical_Small_Slider3_Vertical_Round_fill.cpp
	.686P
	.XMM
	include listing.inc
	.model	flat

INCLUDELIB MSVCRTD
INCLUDELIB OLDNAMES

PUBLIC	?_Dark_Slider_Vertical_Small_Slider3_Vertical_Round_fill@@3QBEB ; _Dark_Slider_Vertical_Small_Slider3_Vertical_Round_fill
CONST	SEGMENT
?_Dark_Slider_Vertical_Small_Slider3_Vertical_Round_fill@@3QBEB DB 028H ; _Dark_Slider_Vertical_Small_Slider3_Vertical_Round_fill
	DB	024H
	DB	028H
	DB	00H
	DB	028H
	DB	024H
	DB	028H
	DB	00H
	DB	020H
	DB	024H
	DB	020H
	DB	00H
	DB	028H
	DB	024H
	DB	028H
	DB	00H
	DB	028H
	DB	024H
	DB	028H
	DB	00H
	DB	020H
	DB	024H
	DB	020H
	DB	00H
	DB	028H
	DB	024H
	DB	028H
	DB	00H
	DB	028H
	DB	024H
	DB	028H
	DB	00H
	DB	020H
	DB	024H
	DB	020H
	DB	00H
	DB	028H
	DB	024H
	DB	028H
	DB	00H
	DB	028H
	DB	024H
	DB	028H
	DB	00H
	DB	020H
	DB	024H
	DB	020H
	DB	00H
	DB	028H
	DB	024H
	DB	028H
	DB	00H
	DB	028H
	DB	024H
	DB	028H
	DB	00H
	DB	020H
	DB	024H
	DB	020H
	DB	038H
	DB	028H
	DB	024H
	DB	028H
	DB	079H
	DB	028H
	DB	024H
	DB	028H
	DB	0aaH
	DB	020H
	DB	024H
	DB	020H
	DB	0d3H
	DB	028H
	DB	024H
	DB	028H
	DB	0ebH
	DB	028H
	DB	024H
	DB	028H
	DB	0f7H
	DB	020H
	DB	024H
	DB	020H
	DB	0f7H
	DB	028H
	DB	024H
	DB	028H
	DB	0ebH
	DB	028H
	DB	024H
	DB	028H
	DB	0d3H
	DB	020H
	DB	024H
	DB	020H
	DB	0aaH
	DB	028H
	DB	024H
	DB	028H
	DB	079H
	DB	028H
	DB	024H
	DB	028H
	DB	038H
	DB	020H
	DB	024H
	DB	020H
	DB	00H
	DB	028H
	DB	024H
	DB	028H
	DB	00H
	DB	028H
	DB	024H
	DB	028H
	DB	00H
	DB	020H
	DB	024H
	DB	020H
	DB	00H
	DB	028H
	DB	024H
	DB	028H
	DB	00H
	DB	028H
	DB	024H
	DB	028H
	DB	00H
	DB	0c0H
	DB	0c4H
	DB	0c0H
	DB	00H
	DB	0c0H
	DB	0c4H
	DB	0c0H
	DB	00H
	DB	0c8H
	DB	0c4H
	DB	0c8H
	DB	00H
	DB	0c0H
	DB	0c4H
	DB	0c0H
	DB	00H
	DB	0c0H
	DB	0c4H
	DB	0c0H
	DB	00H
	DB	0c8H
	DB	0c4H
	DB	0c8H
	DB	00H
	DB	0c0H
	DB	0c4H
	DB	0c0H
	DB	00H
	DB	0c0H
	DB	0c4H
	DB	0c0H
	DB	00H
	DB	020H
	DB	024H
	DB	020H
	DB	00H
	DB	028H
	DB	024H
	DB	028H
	DB	00H
	DB	028H
	DB	024H
	DB	028H
	DB	00H
	DB	020H
	DB	024H
	DB	020H
	DB	00H
	DB	028H
	DB	024H
	DB	028H
	DB	00H
	DB	028H
	DB	024H
	DB	028H
	DB	00H
	DB	020H
	DB	024H
	DB	020H
	DB	00H
	DB	028H
	DB	024H
	DB	028H
	DB	00H
	DB	028H
	DB	024H
	DB	028H
	DB	00H
	DB	020H
	DB	024H
	DB	020H
	DB	00H
	DB	028H
	DB	024H
	DB	028H
	DB	00H
	DB	028H
	DB	024H
	DB	028H
	DB	01cH
	DB	020H
	DB	024H
	DB	020H
	DB	086H
	DB	028H
	DB	024H
	DB	028H
	DB	0e3H
	DB	028H
	DB	024H
	DB	028H
	DB	0ffH
	DB	020H
	DB	024H
	DB	020H
	DB	0ffH
	DB	028H
	DB	024H
	DB	028H
	DB	0ffH
	DB	028H
	DB	024H
	DB	028H
	DB	0ffH
	DB	020H
	DB	024H
	DB	020H
	DB	0ffH
	DB	028H
	DB	024H
	DB	028H
	DB	0ffH
	DB	028H
	DB	024H
	DB	028H
	DB	0ffH
	DB	020H
	DB	024H
	DB	020H
	DB	0ffH
	DB	028H
	DB	024H
	DB	028H
	DB	0ffH
	DB	028H
	DB	024H
	DB	028H
	DB	0ffH
	DB	020H
	DB	024H
	DB	020H
	DB	0ffH
	DB	028H
	DB	024H
	DB	028H
	DB	0ffH
	DB	028H
	DB	024H
	DB	028H
	DB	0e3H
	DB	020H
	DB	024H
	DB	020H
	DB	086H
	DB	028H
	DB	024H
	DB	028H
	DB	01cH
	DB	028H
	DB	024H
	DB	028H
	DB	00H
	DB	020H
	DB	024H
	DB	020H
	DB	00H
	DB	028H
	DB	024H
	DB	028H
	DB	00H
	DB	0c0H
	DB	0c4H
	DB	0c0H
	DB	00H
	DB	0c8H
	DB	0c4H
	DB	0c8H
	DB	00H
	DB	0c8H
	DB	0c4H
	DB	0c8H
	DB	00H
	DB	0c0H
	DB	0c4H
	DB	0c0H
	DB	00H
	DB	0c8H
	DB	0c4H
	DB	0c8H
	DB	00H
	DB	0c8H
	DB	0c4H
	DB	0c8H
	DB	00H
	DB	0c0H
	DB	0c4H
	DB	0c0H
	DB	00H
	DB	0c8H
	DB	0c4H
	DB	0c8H
	DB	00H
	DB	028H
	DB	024H
	DB	028H
	DB	00H
	DB	020H
	DB	024H
	DB	020H
	DB	00H
	DB	028H
	DB	028H
	DB	028H
	DB	00H
	DB	020H
	DB	024H
	DB	020H
	DB	00H
	DB	028H
	DB	028H
	DB	028H
	DB	00H
	DB	028H
	DB	024H
	DB	028H
	DB	00H
	DB	020H
	DB	028H
	DB	020H
	DB	00H
	DB	028H
	DB	024H
	DB	028H
	DB	00H
	DB	028H
	DB	028H
	DB	028H
	DB	00H
	DB	020H
	DB	024H
	DB	020H
	DB	014H
	DB	028H
	DB	028H
	DB	028H
	DB	096H
	DB	028H
	DB	024H
	DB	028H
	DB	0f7H
	DB	020H
	DB	028H
	DB	020H
	DB	0ffH
	DB	028H
	DB	024H
	DB	028H
	DB	0ffH
	DB	028H
	DB	02cH
	DB	028H
	DB	0ffH
	DB	030H
	DB	034H
	DB	030H
	DB	0ffH
	DB	038H
	DB	038H
	DB	038H
	DB	0ffH
	DB	040H
	DB	040H
	DB	040H
	DB	0ffH
	DB	040H
	DB	040H
	DB	040H
	DB	0ffH
	DB	040H
	DB	040H
	DB	040H
	DB	0ffH
	DB	040H
	DB	044H
	DB	040H
	DB	0ffH
	DB	040H
	DB	040H
	DB	040H
	DB	0ffH
	DB	038H
	DB	03cH
	DB	038H
	DB	0ffH
	DB	038H
	DB	038H
	DB	038H
	DB	0ffH
	DB	030H
	DB	030H
	DB	030H
	DB	0ffH
	DB	028H
	DB	02cH
	DB	028H
	DB	0ffH
	DB	028H
	DB	028H
	DB	028H
	DB	0ffH
	DB	020H
	DB	024H
	DB	020H
	DB	0ffH
	DB	028H
	DB	028H
	DB	028H
	DB	0f7H
	DB	028H
	DB	024H
	DB	028H
	DB	096H
	DB	020H
	DB	024H
	DB	020H
	DB	014H
	DB	028H
	DB	028H
	DB	028H
	DB	00H
	DB	0c0H
	DB	0c4H
	DB	0c0H
	DB	00H
	DB	0c8H
	DB	0c4H
	DB	0c8H
	DB	00H
	DB	0c0H
	DB	0c4H
	DB	0c0H
	DB	00H
	DB	0c0H
	DB	0c4H
	DB	0c0H
	DB	00H
	DB	0c8H
	DB	0c4H
	DB	0c8H
	DB	00H
	DB	0c0H
	DB	0c4H
	DB	0c0H
	DB	00H
	DB	0c8H
	DB	0c4H
	DB	0c8H
	DB	00H
	DB	0c0H
	DB	0c4H
	DB	0c0H
	DB	00H
	DB	028H
	DB	024H
	DB	028H
	DB	00H
	DB	028H
	DB	024H
	DB	028H
	DB	00H
	DB	020H
	DB	024H
	DB	020H
	DB	00H
	DB	028H
	DB	024H
	DB	028H
	DB	00H
	DB	020H
	DB	024H
	DB	020H
	DB	00H
	DB	028H
	DB	028H
	DB	028H
	DB	00H
	DB	020H
	DB	024H
	DB	020H
	DB	00H
	DB	028H
	DB	024H
	DB	028H
	DB	00H
	DB	020H
	DB	024H
	DB	020H
	DB	055H
	DB	028H
	DB	028H
	DB	028H
	DB	0ebH
	DB	020H
	DB	024H
	DB	020H
	DB	0ffH
	DB	028H
	DB	024H
	DB	028H
	DB	0ffH
	DB	030H
	DB	030H
	DB	030H
	DB	0ffH
	DB	038H
	DB	03cH
	DB	038H
	DB	0ffH
	DB	040H
	DB	044H
	DB	040H
	DB	0ffH
	DB	048H
	DB	044H
	DB	048H
	DB	0ffH
	DB	048H
	DB	044H
	DB	048H
	DB	0ffH
	DB	040H
	DB	044H
	DB	040H
	DB	0ffH
	DB	040H
	DB	044H
	DB	040H
	DB	0ffH
	DB	040H
	DB	044H
	DB	040H
	DB	0ffH
	DB	040H
	DB	044H
	DB	040H
	DB	0ffH
	DB	040H
	DB	044H
	DB	040H
	DB	0ffH
	DB	040H
	DB	040H
	DB	040H
	DB	0ffH
	DB	040H
	DB	040H
	DB	040H
	DB	0ffH
	DB	040H
	DB	040H
	DB	040H
	DB	0ffH
	DB	040H
	DB	040H
	DB	040H
	DB	0ffH
	DB	038H
	DB	038H
	DB	038H
	DB	0ffH
	DB	030H
	DB	02cH
	DB	030H
	DB	0ffH
	DB	020H
	DB	024H
	DB	020H
	DB	0ffH
	DB	028H
	DB	028H
	DB	028H
	DB	0ffH
	DB	028H
	DB	024H
	DB	028H
	DB	0ebH
	DB	020H
	DB	024H
	DB	020H
	DB	055H
	DB	0c8H
	DB	0c4H
	DB	0c8H
	DB	00H
	DB	0c0H
	DB	0c4H
	DB	0c0H
	DB	00H
	DB	0c8H
	DB	0c4H
	DB	0c8H
	DB	00H
	DB	0c8H
	DB	0c4H
	DB	0c8H
	DB	00H
	DB	0c0H
	DB	0c4H
	DB	0c0H
	DB	00H
	DB	0c8H
	DB	0c4H
	DB	0c8H
	DB	00H
	DB	0c0H
	DB	0c4H
	DB	0c0H
	DB	00H
	DB	0c8H
	DB	0c4H
	DB	0c8H
	DB	00H
	DB	020H
	DB	024H
	DB	020H
	DB	00H
	DB	028H
	DB	024H
	DB	028H
	DB	00H
	DB	028H
	DB	028H
	DB	028H
	DB	00H
	DB	020H
	DB	024H
	DB	020H
	DB	00H
	DB	028H
	DB	024H
	DB	028H
	DB	00H
	DB	028H
	DB	024H
	DB	028H
	DB	00H
	DB	028H
	DB	024H
	DB	028H
	DB	04H
	DB	020H
	DB	024H
	DB	020H
	DB	096H
	DB	028H
	DB	024H
	DB	028H
	DB	0ffH
	DB	028H
	DB	024H
	DB	028H
	DB	0ffH
	DB	028H
	DB	02cH
	DB	028H
	DB	0ffH
	DB	040H
	DB	040H
	DB	040H
	DB	0ffH
	DB	048H
	DB	044H
	DB	048H
	DB	0ffH
	DB	048H
	DB	048H
	DB	048H
	DB	0ffH
	DB	048H
	DB	048H
	DB	048H
	DB	0ffH
	DB	048H
	DB	044H
	DB	048H
	DB	0ffH
	DB	048H
	DB	048H
	DB	048H
	DB	0ffH
	DB	040H
	DB	044H
	DB	040H
	DB	0ffH
	DB	048H
	DB	044H
	DB	048H
	DB	0ffH
	DB	040H
	DB	044H
	DB	040H
	DB	0ffH
	DB	040H
	DB	044H
	DB	040H
	DB	0ffH
	DB	040H
	DB	040H
	DB	040H
	DB	0ffH
	DB	040H
	DB	040H
	DB	040H
	DB	0ffH
	DB	040H
	DB	040H
	DB	040H
	DB	0ffH
	DB	040H
	DB	040H
	DB	040H
	DB	0ffH
	DB	040H
	DB	040H
	DB	040H
	DB	0ffH
	DB	040H
	DB	040H
	DB	040H
	DB	0ffH
	DB	040H
	DB	040H
	DB	040H
	DB	0ffH
	DB	038H
	DB	038H
	DB	038H
	DB	0ffH
	DB	028H
	DB	02cH
	DB	028H
	DB	0ffH
	DB	028H
	DB	024H
	DB	028H
	DB	0ffH
	DB	028H
	DB	024H
	DB	028H
	DB	0ffH
	DB	028H
	DB	024H
	DB	028H
	DB	096H
	DB	020H
	DB	024H
	DB	020H
	DB	04H
	DB	0c0H
	DB	0c4H
	DB	0c0H
	DB	00H
	DB	0c8H
	DB	0c4H
	DB	0c8H
	DB	00H
	DB	0c0H
	DB	0c4H
	DB	0c0H
	DB	00H
	DB	0c0H
	DB	0c4H
	DB	0c0H
	DB	00H
	DB	0c8H
	DB	0c4H
	DB	0c8H
	DB	00H
	DB	0c0H
	DB	0c4H
	DB	0c0H
	DB	00H
	DB	028H
	DB	024H
	DB	028H
	DB	00H
	DB	020H
	DB	024H
	DB	020H
	DB	00H
	DB	028H
	DB	028H
	DB	028H
	DB	00H
	DB	028H
	DB	024H
	DB	028H
	DB	00H
	DB	020H
	DB	024H
	DB	020H
	DB	00H
	DB	028H
	DB	028H
	DB	028H
	DB	08H
	DB	020H
	DB	024H
	DB	020H
	DB	0b2H
	DB	028H
	DB	028H
	DB	028H
	DB	0ffH
	DB	028H
	DB	024H
	DB	028H
	DB	0ffH
	DB	030H
	DB	034H
	DB	030H
	DB	0ffH
	DB	048H
	DB	048H
	DB	048H
	DB	0ffH
	DB	048H
	DB	048H
	DB	048H
	DB	0ffH
	DB	048H
	DB	048H
	DB	048H
	DB	0ffH
	DB	048H
	DB	048H
	DB	048H
	DB	0ffH
	DB	048H
	DB	048H
	DB	048H
	DB	0ffH
	DB	040H
	DB	044H
	DB	040H
	DB	0ffH
	DB	048H
	DB	048H
	DB	048H
	DB	0ffH
	DB	048H
	DB	044H
	DB	048H
	DB	0ffH
	DB	040H
	DB	044H
	DB	040H
	DB	0ffH
	DB	048H
	DB	044H
	DB	048H
	DB	0ffH
	DB	048H
	DB	044H
	DB	048H
	DB	0ffH
	DB	040H
	DB	040H
	DB	040H
	DB	0ffH
	DB	040H
	DB	040H
	DB	040H
	DB	0ffH
	DB	040H
	DB	044H
	DB	040H
	DB	0ffH
	DB	040H
	DB	040H
	DB	040H
	DB	0ffH
	DB	040H
	DB	040H
	DB	040H
	DB	0ffH
	DB	040H
	DB	040H
	DB	040H
	DB	0ffH
	DB	040H
	DB	03cH
	DB	040H
	DB	0ffH
	DB	038H
	DB	03cH
	DB	038H
	DB	0ffH
	DB	040H
	DB	03cH
	DB	040H
	DB	0ffH
	DB	030H
	DB	034H
	DB	030H
	DB	0ffH
	DB	020H
	DB	024H
	DB	020H
	DB	0ffH
	DB	028H
	DB	028H
	DB	028H
	DB	0ffH
	DB	028H
	DB	024H
	DB	028H
	DB	0b6H
	DB	028H
	DB	024H
	DB	028H
	DB	08H
	DB	0c0H
	DB	0c4H
	DB	0c0H
	DB	00H
	DB	0c8H
	DB	0c4H
	DB	0c8H
	DB	00H
	DB	0c8H
	DB	0c4H
	DB	0c8H
	DB	00H
	DB	0c0H
	DB	0c4H
	DB	0c0H
	DB	00H
	DB	0c8H
	DB	0c4H
	DB	0c8H
	DB	00H
	DB	028H
	DB	024H
	DB	028H
	DB	00H
	DB	020H
	DB	024H
	DB	020H
	DB	00H
	DB	028H
	DB	024H
	DB	028H
	DB	00H
	DB	028H
	DB	024H
	DB	028H
	DB	00H
	DB	020H
	DB	028H
	DB	020H
	DB	04H
	DB	028H
	DB	028H
	DB	028H
	DB	0b2H
	DB	028H
	DB	024H
	DB	028H
	DB	0ffH
	DB	028H
	DB	028H
	DB	028H
	DB	0ffH
	DB	038H
	DB	03cH
	DB	038H
	DB	0ffH
	DB	048H
	DB	048H
	DB	048H
	DB	0ffH
	DB	048H
	DB	048H
	DB	048H
	DB	0ffH
	DB	048H
	DB	048H
	DB	048H
	DB	0ffH
	DB	048H
	DB	048H
	DB	048H
	DB	0ffH
	DB	048H
	DB	048H
	DB	048H
	DB	0ffH
	DB	048H
	DB	048H
	DB	048H
	DB	0ffH
	DB	048H
	DB	044H
	DB	048H
	DB	0ffH
	DB	048H
	DB	044H
	DB	048H
	DB	0ffH
	DB	040H
	DB	044H
	DB	040H
	DB	0ffH
	DB	040H
	DB	044H
	DB	040H
	DB	0ffH
	DB	048H
	DB	044H
	DB	048H
	DB	0ffH
	DB	040H
	DB	044H
	DB	040H
	DB	0ffH
	DB	040H
	DB	040H
	DB	040H
	DB	0ffH
	DB	040H
	DB	040H
	DB	040H
	DB	0ffH
	DB	040H
	DB	040H
	DB	040H
	DB	0ffH
	DB	040H
	DB	040H
	DB	040H
	DB	0ffH
	DB	040H
	DB	040H
	DB	040H
	DB	0ffH
	DB	040H
	DB	040H
	DB	040H
	DB	0ffH
	DB	040H
	DB	03cH
	DB	040H
	DB	0ffH
	DB	038H
	DB	03cH
	DB	038H
	DB	0ffH
	DB	040H
	DB	040H
	DB	040H
	DB	0ffH
	DB	038H
	DB	03cH
	DB	038H
	DB	0ffH
	DB	038H
	DB	038H
	DB	038H
	DB	0ffH
	DB	028H
	DB	028H
	DB	028H
	DB	0ffH
	DB	028H
	DB	024H
	DB	028H
	DB	0ffH
	DB	028H
	DB	028H
	DB	028H
	DB	0b2H
	DB	020H
	DB	024H
	DB	020H
	DB	04H
	DB	0c8H
	DB	0c4H
	DB	0c8H
	DB	00H
	DB	0c0H
	DB	0c4H
	DB	0c0H
	DB	00H
	DB	0c0H
	DB	0c4H
	DB	0c0H
	DB	00H
	DB	0c8H
	DB	0c4H
	DB	0c8H
	DB	00H
	DB	028H
	DB	024H
	DB	028H
	DB	00H
	DB	020H
	DB	028H
	DB	020H
	DB	00H
	DB	028H
	DB	024H
	DB	028H
	DB	00H
	DB	020H
	DB	024H
	DB	020H
	DB	00H
	DB	028H
	DB	028H
	DB	028H
	DB	09aH
	DB	028H
	DB	024H
	DB	028H
	DB	0ffH
	DB	028H
	DB	028H
	DB	028H
	DB	0ffH
	DB	040H
	DB	040H
	DB	040H
	DB	0ffH
	DB	048H
	DB	048H
	DB	048H
	DB	0ffH
	DB	048H
	DB	048H
	DB	048H
	DB	0ffH
	DB	048H
	DB	048H
	DB	048H
	DB	0ffH
	DB	048H
	DB	048H
	DB	048H
	DB	0ffH
	DB	048H
	DB	048H
	DB	048H
	DB	0ffH
	DB	048H
	DB	048H
	DB	048H
	DB	0ffH
	DB	048H
	DB	048H
	DB	048H
	DB	0ffH
	DB	040H
	DB	044H
	DB	040H
	DB	0ffH
	DB	048H
	DB	048H
	DB	048H
	DB	0ffH
	DB	048H
	DB	044H
	DB	048H
	DB	0ffH
	DB	040H
	DB	044H
	DB	040H
	DB	0ffH
	DB	040H
	DB	044H
	DB	040H
	DB	0ffH
	DB	048H
	DB	044H
	DB	048H
	DB	0ffH
	DB	040H
	DB	044H
	DB	040H
	DB	0ffH
	DB	040H
	DB	040H
	DB	040H
	DB	0ffH
	DB	040H
	DB	040H
	DB	040H
	DB	0ffH
	DB	040H
	DB	040H
	DB	040H
	DB	0ffH
	DB	040H
	DB	040H
	DB	040H
	DB	0ffH
	DB	040H
	DB	040H
	DB	040H
	DB	0ffH
	DB	040H
	DB	03cH
	DB	040H
	DB	0ffH
	DB	040H
	DB	03cH
	DB	040H
	DB	0ffH
	DB	038H
	DB	03cH
	DB	038H
	DB	0ffH
	DB	040H
	DB	03cH
	DB	040H
	DB	0ffH
	DB	038H
	DB	03cH
	DB	038H
	DB	0ffH
	DB	038H
	DB	038H
	DB	038H
	DB	0ffH
	DB	028H
	DB	028H
	DB	028H
	DB	0ffH
	DB	020H
	DB	024H
	DB	020H
	DB	0ffH
	DB	028H
	DB	028H
	DB	028H
	DB	09aH
	DB	0c0H
	DB	0c4H
	DB	0c0H
	DB	00H
	DB	0c8H
	DB	0c4H
	DB	0c8H
	DB	00H
	DB	0c8H
	DB	0c4H
	DB	0c8H
	DB	00H
	DB	0c0H
	DB	0c4H
	DB	0c0H
	DB	00H
	DB	028H
	DB	024H
	DB	028H
	DB	00H
	DB	028H
	DB	024H
	DB	028H
	DB	00H
	DB	020H
	DB	024H
	DB	020H
	DB	00H
	DB	028H
	DB	024H
	DB	028H
	DB	055H
	DB	020H
	DB	024H
	DB	020H
	DB	0ffH
	DB	020H
	DB	024H
	DB	020H
	DB	0ffH
	DB	040H
	DB	03cH
	DB	040H
	DB	0ffH
	DB	048H
	DB	048H
	DB	048H
	DB	0ffH
	DB	048H
	DB	048H
	DB	048H
	DB	0ffH
	DB	048H
	DB	048H
	DB	048H
	DB	0ffH
	DB	048H
	DB	04cH
	DB	048H
	DB	0ffH
	DB	048H
	DB	048H
	DB	048H
	DB	0ffH
	DB	048H
	DB	048H
	DB	048H
	DB	0ffH
	DB	048H
	DB	048H
	DB	048H
	DB	0ffH
	DB	048H
	DB	048H
	DB	048H
	DB	0ffH
	DB	048H
	DB	044H
	DB	048H
	DB	0ffH
	DB	048H
	DB	048H
	DB	048H
	DB	0ffH
	DB	048H
	DB	048H
	DB	048H
	DB	0ffH
	DB	048H
	DB	044H
	DB	048H
	DB	0ffH
	DB	048H
	DB	044H
	DB	048H
	DB	0ffH
	DB	048H
	DB	044H
	DB	048H
	DB	0ffH
	DB	040H
	DB	044H
	DB	040H
	DB	0ffH
	DB	048H
	DB	044H
	DB	048H
	DB	0ffH
	DB	040H
	DB	040H
	DB	040H
	DB	0ffH
	DB	040H
	DB	040H
	DB	040H
	DB	0ffH
	DB	040H
	DB	040H
	DB	040H
	DB	0ffH
	DB	040H
	DB	040H
	DB	040H
	DB	0ffH
	DB	040H
	DB	040H
	DB	040H
	DB	0ffH
	DB	038H
	DB	03cH
	DB	038H
	DB	0ffH
	DB	040H
	DB	03cH
	DB	040H
	DB	0ffH
	DB	038H
	DB	03cH
	DB	038H
	DB	0ffH
	DB	038H
	DB	03cH
	DB	038H
	DB	0ffH
	DB	038H
	DB	03cH
	DB	038H
	DB	0ffH
	DB	038H
	DB	034H
	DB	038H
	DB	0ffH
	DB	028H
	DB	024H
	DB	028H
	DB	0ffH
	DB	028H
	DB	024H
	DB	028H
	DB	0ffH
	DB	028H
	DB	024H
	DB	028H
	DB	059H
	DB	0c0H
	DB	0c4H
	DB	0c0H
	DB	00H
	DB	0c0H
	DB	0c4H
	DB	0c0H
	DB	00H
	DB	0c8H
	DB	0c4H
	DB	0c8H
	DB	00H
	DB	020H
	DB	024H
	DB	020H
	DB	00H
	DB	028H
	DB	024H
	DB	028H
	DB	00H
	DB	028H
	DB	028H
	DB	028H
	DB	014H
	DB	028H
	DB	028H
	DB	028H
	DB	0efH
	DB	028H
	DB	024H
	DB	028H
	DB	0ffH
	DB	030H
	DB	034H
	DB	030H
	DB	0ffH
	DB	048H
	DB	044H
	DB	048H
	DB	0ffH
	DB	048H
	DB	04cH
	DB	048H
	DB	0ffH
	DB	048H
	DB	04cH
	DB	048H
	DB	0ffH
	DB	048H
	DB	048H
	DB	048H
	DB	0ffH
	DB	048H
	DB	04cH
	DB	048H
	DB	0ffH
	DB	048H
	DB	048H
	DB	048H
	DB	0ffH
	DB	048H
	DB	048H
	DB	048H
	DB	0ffH
	DB	048H
	DB	048H
	DB	048H
	DB	0ffH
	DB	048H
	DB	048H
	DB	048H
	DB	0ffH
	DB	048H
	DB	048H
	DB	048H
	DB	0ffH
	DB	048H
	DB	048H
	DB	048H
	DB	0ffH
	DB	040H
	DB	044H
	DB	040H
	DB	0ffH
	DB	048H
	DB	048H
	DB	048H
	DB	0ffH
	DB	048H
	DB	044H
	DB	048H
	DB	0ffH
	DB	040H
	DB	044H
	DB	040H
	DB	0ffH
	DB	040H
	DB	044H
	DB	040H
	DB	0ffH
	DB	040H
	DB	040H
	DB	040H
	DB	0ffH
	DB	040H
	DB	044H
	DB	040H
	DB	0ffH
	DB	040H
	DB	040H
	DB	040H
	DB	0ffH
	DB	040H
	DB	040H
	DB	040H
	DB	0ffH
	DB	040H
	DB	040H
	DB	040H
	DB	0ffH
	DB	040H
	DB	03cH
	DB	040H
	DB	0ffH
	DB	038H
	DB	03cH
	DB	038H
	DB	0ffH
	DB	040H
	DB	03cH
	DB	040H
	DB	0ffH
	DB	040H
	DB	03cH
	DB	040H
	DB	0ffH
	DB	038H
	DB	03cH
	DB	038H
	DB	0ffH
	DB	038H
	DB	03cH
	DB	038H
	DB	0ffH
	DB	038H
	DB	038H
	DB	038H
	DB	0ffH
	DB	030H
	DB	030H
	DB	030H
	DB	0ffH
	DB	028H
	DB	024H
	DB	028H
	DB	0ffH
	DB	028H
	DB	028H
	DB	028H
	DB	0efH
	DB	028H
	DB	024H
	DB	020H
	DB	014H
	DB	0c0H
	DB	0c4H
	DB	0c8H
	DB	00H
	DB	0c8H
	DB	0c4H
	DB	0c0H
	DB	00H
	DB	028H
	DB	024H
	DB	028H
	DB	00H
	DB	020H
	DB	024H
	DB	020H
	DB	00H
	DB	028H
	DB	028H
	DB	028H
	DB	09aH
	DB	028H
	DB	024H
	DB	028H
	DB	0ffH
	DB	030H
	DB	030H
	DB	030H
	DB	0ffH
	DB	040H
	DB	044H
	DB	040H
	DB	0ffH
	DB	048H
	DB	048H
	DB	048H
	DB	0ffH
	DB	048H
	DB	04cH
	DB	048H
	DB	0ffH
	DB	048H
	DB	04cH
	DB	048H
	DB	0ffH
	DB	048H
	DB	048H
	DB	048H
	DB	0ffH
	DB	048H
	DB	048H
	DB	048H
	DB	0ffH
	DB	048H
	DB	048H
	DB	048H
	DB	0ffH
	DB	048H
	DB	048H
	DB	048H
	DB	0ffH
	DB	048H
	DB	048H
	DB	048H
	DB	0ffH
	DB	048H
	DB	048H
	DB	048H
	DB	0ffH
	DB	048H
	DB	048H
	DB	048H
	DB	0ffH
	DB	048H
	DB	048H
	DB	048H
	DB	0ffH
	DB	048H
	DB	048H
	DB	048H
	DB	0ffH
	DB	048H
	DB	048H
	DB	048H
	DB	0ffH
	DB	048H
	DB	048H
	DB	048H
	DB	0ffH
	DB	048H
	DB	04cH
	DB	048H
	DB	0ffH
	DB	050H
	DB	04cH
	DB	050H
	DB	0ffH
	DB	050H
	DB	04cH
	DB	050H
	DB	0ffH
	DB	048H
	DB	048H
	DB	048H
	DB	0ffH
	DB	040H
	DB	040H
	DB	040H
	DB	0ffH
	DB	040H
	DB	040H
	DB	040H
	DB	0ffH
	DB	040H
	DB	040H
	DB	040H
	DB	0ffH
	DB	040H
	DB	03cH
	DB	040H
	DB	0ffH
	DB	038H
	DB	03cH
	DB	038H
	DB	0ffH
	DB	040H
	DB	040H
	DB	040H
	DB	0ffH
	DB	040H
	DB	03cH
	DB	040H
	DB	0ffH
	DB	038H
	DB	03cH
	DB	038H
	DB	0ffH
	DB	040H
	DB	03cH
	DB	040H
	DB	0ffH
	DB	038H
	DB	03cH
	DB	038H
	DB	0ffH
	DB	038H
	DB	03cH
	DB	038H
	DB	0ffH
	DB	028H
	DB	02cH
	DB	028H
	DB	0ffH
	DB	028H
	DB	024H
	DB	028H
	DB	0ffH
	DB	028H
	DB	028H
	DB	028H
	DB	09eH
	DB	0c0H
	DB	0c4H
	DB	0c0H
	DB	00H
	DB	0c0H
	DB	0c4H
	DB	0c8H
	DB	00H
	DB	028H
	DB	024H
	DB	028H
	DB	00H
	DB	020H
	DB	024H
	DB	020H
	DB	01cH
	DB	028H
	DB	028H
	DB	028H
	DB	0fbH
	DB	020H
	DB	024H
	DB	020H
	DB	0ffH
	DB	040H
	DB	03cH
	DB	040H
	DB	0ffH
	DB	048H
	DB	048H
	DB	048H
	DB	0ffH
	DB	048H
	DB	04cH
	DB	048H
	DB	0ffH
	DB	050H
	DB	04cH
	DB	050H
	DB	0ffH
	DB	050H
	DB	04cH
	DB	050H
	DB	0ffH
	DB	048H
	DB	04cH
	DB	048H
	DB	0ffH
	DB	048H
	DB	04cH
	DB	048H
	DB	0ffH
	DB	050H
	DB	04cH
	DB	050H
	DB	0ffH
	DB	048H
	DB	04cH
	DB	048H
	DB	0ffH
	DB	048H
	DB	048H
	DB	048H
	DB	0ffH
	DB	048H
	DB	048H
	DB	048H
	DB	0ffH
	DB	040H
	DB	044H
	DB	040H
	DB	0ffH
	DB	040H
	DB	040H
	DB	040H
	DB	0ffH
	DB	040H
	DB	040H
	DB	040H
	DB	0ffH
	DB	040H
	DB	044H
	DB	040H
	DB	0ffH
	DB	040H
	DB	044H
	DB	040H
	DB	0ffH
	DB	048H
	DB	044H
	DB	048H
	DB	0ffH
	DB	048H
	DB	048H
	DB	048H
	DB	0ffH
	DB	050H
	DB	04cH
	DB	050H
	DB	0ffH
	DB	050H
	DB	050H
	DB	050H
	DB	0ffH
	DB	050H
	DB	050H
	DB	050H
	DB	0ffH
	DB	048H
	DB	048H
	DB	048H
	DB	0ffH
	DB	040H
	DB	040H
	DB	040H
	DB	0ffH
	DB	040H
	DB	040H
	DB	040H
	DB	0ffH
	DB	040H
	DB	040H
	DB	040H
	DB	0ffH
	DB	038H
	DB	03cH
	DB	038H
	DB	0ffH
	DB	038H
	DB	03cH
	DB	038H
	DB	0ffH
	DB	038H
	DB	03cH
	DB	038H
	DB	0ffH
	DB	040H
	DB	03cH
	DB	040H
	DB	0ffH
	DB	038H
	DB	038H
	DB	038H
	DB	0ffH
	DB	038H
	DB	038H
	DB	038H
	DB	0ffH
	DB	038H
	DB	038H
	DB	038H
	DB	0ffH
	DB	028H
	DB	024H
	DB	028H
	DB	0ffH
	DB	028H
	DB	028H
	DB	028H
	DB	0fbH
	DB	028H
	DB	024H
	DB	028H
	DB	020H
	DB	0c0H
	DB	0c4H
	DB	0c0H
	DB	00H
	DB	028H
	DB	024H
	DB	028H
	DB	00H
	DB	028H
	DB	02cH
	DB	028H
	DB	092H
	DB	028H
	DB	024H
	DB	028H
	DB	0ffH
	DB	030H
	DB	030H
	DB	030H
	DB	0ffH
	DB	040H
	DB	044H
	DB	040H
	DB	0ffH
	DB	048H
	DB	04cH
	DB	048H
	DB	0ffH
	DB	048H
	DB	04cH
	DB	048H
	DB	0ffH
	DB	050H
	DB	04cH
	DB	050H
	DB	0ffH
	DB	048H
	DB	048H
	DB	048H
	DB	0ffH
	DB	048H
	DB	048H
	DB	048H
	DB	0ffH
	DB	048H
	DB	048H
	DB	048H
	DB	0ffH
	DB	050H
	DB	04cH
	DB	050H
	DB	0ffH
	DB	048H
	DB	048H
	DB	048H
	DB	0ffH
	DB	048H
	DB	044H
	DB	048H
	DB	0ffH
	DB	040H
	DB	040H
	DB	040H
	DB	0ffH
	DB	040H
	DB	040H
	DB	040H
	DB	0ffH
	DB	040H
	DB	040H
	DB	040H
	DB	0ffH
	DB	040H
	DB	040H
	DB	040H
	DB	0ffH
	DB	040H
	DB	040H
	DB	040H
	DB	0ffH
	DB	048H
	DB	044H
	DB	048H
	DB	0ffH
	DB	048H
	DB	044H
	DB	048H
	DB	0ffH
	DB	048H
	DB	044H
	DB	048H
	DB	0ffH
	DB	048H
	DB	048H
	DB	048H
	DB	0ffH
	DB	048H
	DB	04cH
	DB	048H
	DB	0ffH
	DB	050H
	DB	04cH
	DB	050H
	DB	0ffH
	DB	050H
	DB	054H
	DB	050H
	DB	0ffH
	DB	048H
	DB	04cH
	DB	048H
	DB	0ffH
	DB	040H
	DB	040H
	DB	040H
	DB	0ffH
	DB	040H
	DB	03cH
	DB	040H
	DB	0ffH
	DB	040H
	DB	03cH
	DB	040H
	DB	0ffH
	DB	038H
	DB	03cH
	DB	038H
	DB	0ffH
	DB	040H
	DB	03cH
	DB	040H
	DB	0ffH
	DB	038H
	DB	03cH
	DB	038H
	DB	0ffH
	DB	038H
	DB	038H
	DB	038H
	DB	0ffH
	DB	038H
	DB	038H
	DB	038H
	DB	0ffH
	DB	038H
	DB	038H
	DB	038H
	DB	0ffH
	DB	028H
	DB	02cH
	DB	028H
	DB	0ffH
	DB	028H
	DB	024H
	DB	028H
	DB	0ffH
	DB	028H
	DB	02cH
	DB	028H
	DB	092H
	DB	0c8H
	DB	0c4H
	DB	0c0H
	DB	00H
	DB	028H
	DB	024H
	DB	028H
	DB	00H
	DB	028H
	DB	028H
	DB	028H
	DB	0efH
	DB	028H
	DB	024H
	DB	028H
	DB	0ffH
	DB	038H
	DB	03cH
	DB	038H
	DB	0ffH
	DB	048H
	DB	048H
	DB	048H
	DB	0ffH
	DB	048H
	DB	04cH
	DB	048H
	DB	0ffH
	DB	050H
	DB	04cH
	DB	050H
	DB	0ffH
	DB	048H
	DB	04cH
	DB	048H
	DB	0ffH
	DB	048H
	DB	04cH
	DB	048H
	DB	0ffH
	DB	048H
	DB	048H
	DB	048H
	DB	0ffH
	DB	050H
	DB	04cH
	DB	050H
	DB	0ffH
	DB	048H
	DB	04cH
	DB	048H
	DB	0ffH
	DB	048H
	DB	044H
	DB	048H
	DB	0ffH
	DB	038H
	DB	03cH
	DB	038H
	DB	0ffH
	DB	040H
	DB	03cH
	DB	040H
	DB	0ffH
	DB	040H
	DB	03cH
	DB	040H
	DB	0ffH
	DB	040H
	DB	040H
	DB	040H
	DB	0ffH
	DB	040H
	DB	040H
	DB	040H
	DB	0ffH
	DB	040H
	DB	044H
	DB	040H
	DB	0ffH
	DB	040H
	DB	044H
	DB	040H
	DB	0ffH
	DB	048H
	DB	044H
	DB	048H
	DB	0ffH
	DB	048H
	DB	048H
	DB	048H
	DB	0ffH
	DB	048H
	DB	048H
	DB	048H
	DB	0ffH
	DB	048H
	DB	048H
	DB	048H
	DB	0ffH
	DB	048H
	DB	04cH
	DB	048H
	DB	0ffH
	DB	050H
	DB	050H
	DB	050H
	DB	0ffH
	DB	050H
	DB	054H
	DB	050H
	DB	0ffH
	DB	048H
	DB	04cH
	DB	048H
	DB	0ffH
	DB	040H
	DB	03cH
	DB	040H
	DB	0ffH
	DB	040H
	DB	03cH
	DB	040H
	DB	0ffH
	DB	040H
	DB	03cH
	DB	040H
	DB	0ffH
	DB	038H
	DB	03cH
	DB	038H
	DB	0ffH
	DB	040H
	DB	03cH
	DB	040H
	DB	0ffH
	DB	038H
	DB	038H
	DB	038H
	DB	0ffH
	DB	038H
	DB	03cH
	DB	038H
	DB	0ffH
	DB	038H
	DB	038H
	DB	038H
	DB	0ffH
	DB	038H
	DB	034H
	DB	038H
	DB	0ffH
	DB	028H
	DB	024H
	DB	028H
	DB	0ffH
	DB	028H
	DB	028H
	DB	028H
	DB	0ebH
	DB	028H
	DB	024H
	DB	028H
	DB	00H
	DB	028H
	DB	028H
	DB	028H
	DB	038H
	DB	020H
	DB	024H
	DB	020H
	DB	0ffH
	DB	028H
	DB	02cH
	DB	028H
	DB	0ffH
	DB	048H
	DB	044H
	DB	048H
	DB	0ffH
	DB	048H
	DB	048H
	DB	048H
	DB	0ffH
	DB	050H
	DB	04cH
	DB	050H
	DB	0ffH
	DB	050H
	DB	04cH
	DB	050H
	DB	0ffH
	DB	050H
	DB	04cH
	DB	050H
	DB	0ffH
	DB	048H
	DB	04cH
	DB	048H
	DB	0ffH
	DB	050H
	DB	04cH
	DB	050H
	DB	0ffH
	DB	048H
	DB	04cH
	DB	048H
	DB	0ffH
	DB	048H
	DB	048H
	DB	048H
	DB	0ffH
	DB	038H
	DB	03cH
	DB	038H
	DB	0ffH
	DB	038H
	DB	03cH
	DB	038H
	DB	0ffH
	DB	040H
	DB	03cH
	DB	040H
	DB	0ffH
	DB	040H
	DB	03cH
	DB	040H
	DB	0ffH
	DB	040H
	DB	040H
	DB	040H
	DB	0ffH
	DB	040H
	DB	040H
	DB	040H
	DB	0ffH
	DB	040H
	DB	044H
	DB	040H
	DB	0ffH
	DB	040H
	DB	044H
	DB	040H
	DB	0ffH
	DB	048H
	DB	044H
	DB	048H
	DB	0ffH
	DB	048H
	DB	044H
	DB	048H
	DB	0ffH
	DB	048H
	DB	048H
	DB	048H
	DB	0ffH
	DB	048H
	DB	048H
	DB	048H
	DB	0ffH
	DB	048H
	DB	048H
	DB	048H
	DB	0ffH
	DB	050H
	DB	04cH
	DB	050H
	DB	0ffH
	DB	050H
	DB	050H
	DB	050H
	DB	0ffH
	DB	058H
	DB	054H
	DB	058H
	DB	0ffH
	DB	048H
	DB	048H
	DB	048H
	DB	0ffH
	DB	038H
	DB	03cH
	DB	038H
	DB	0ffH
	DB	040H
	DB	03cH
	DB	040H
	DB	0ffH
	DB	038H
	DB	03cH
	DB	038H
	DB	0ffH
	DB	038H
	DB	03cH
	DB	038H
	DB	0ffH
	DB	040H
	DB	038H
	DB	040H
	DB	0ffH
	DB	038H
	DB	03cH
	DB	038H
	DB	0ffH
	DB	038H
	DB	038H
	DB	038H
	DB	0ffH
	DB	038H
	DB	038H
	DB	038H
	DB	0ffH
	DB	028H
	DB	02cH
	DB	028H
	DB	0ffH
	DB	028H
	DB	024H
	DB	028H
	DB	0ffH
	DB	028H
	DB	028H
	DB	028H
	DB	038H
	DB	030H
	DB	034H
	DB	030H
	DB	08aH
	DB	028H
	DB	024H
	DB	028H
	DB	0ffH
	DB	030H
	DB	030H
	DB	030H
	DB	0ffH
	DB	048H
	DB	044H
	DB	048H
	DB	0ffH
	DB	048H
	DB	048H
	DB	048H
	DB	0ffH
	DB	048H
	DB	04cH
	DB	048H
	DB	0ffH
	DB	048H
	DB	04cH
	DB	048H
	DB	0ffH
	DB	050H
	DB	04cH
	DB	050H
	DB	0ffH
	DB	048H
	DB	04cH
	DB	048H
	DB	0ffH
	DB	050H
	DB	04cH
	DB	050H
	DB	0ffH
	DB	048H
	DB	04cH
	DB	048H
	DB	0ffH
	DB	040H
	DB	03cH
	DB	040H
	DB	0ffH
	DB	038H
	DB	038H
	DB	038H
	DB	0ffH
	DB	038H
	DB	03cH
	DB	038H
	DB	0ffH
	DB	040H
	DB	03cH
	DB	040H
	DB	0ffH
	DB	040H
	DB	040H
	DB	040H
	DB	0ffH
	DB	040H
	DB	040H
	DB	040H
	DB	0ffH
	DB	040H
	DB	040H
	DB	040H
	DB	0ffH
	DB	040H
	DB	040H
	DB	040H
	DB	0ffH
	DB	040H
	DB	044H
	DB	040H
	DB	0ffH
	DB	048H
	DB	044H
	DB	048H
	DB	0ffH
	DB	048H
	DB	048H
	DB	048H
	DB	0ffH
	DB	048H
	DB	048H
	DB	048H
	DB	0ffH
	DB	048H
	DB	048H
	DB	048H
	DB	0ffH
	DB	048H
	DB	04cH
	DB	048H
	DB	0ffH
	DB	050H
	DB	04cH
	DB	050H
	DB	0ffH
	DB	050H
	DB	050H
	DB	050H
	DB	0ffH
	DB	050H
	DB	054H
	DB	050H
	DB	0ffH
	DB	058H
	DB	054H
	DB	058H
	DB	0ffH
	DB	040H
	DB	040H
	DB	040H
	DB	0ffH
	DB	038H
	DB	03cH
	DB	038H
	DB	0ffH
	DB	038H
	DB	03cH
	DB	038H
	DB	0ffH
	DB	040H
	DB	03cH
	DB	040H
	DB	0ffH
	DB	038H
	DB	038H
	DB	038H
	DB	0ffH
	DB	038H
	DB	03cH
	DB	038H
	DB	0ffH
	DB	038H
	DB	038H
	DB	038H
	DB	0ffH
	DB	038H
	DB	038H
	DB	038H
	DB	0ffH
	DB	030H
	DB	030H
	DB	030H
	DB	0ffH
	DB	020H
	DB	024H
	DB	020H
	DB	0ffH
	DB	030H
	DB	034H
	DB	030H
	DB	08eH
	DB	030H
	DB	030H
	DB	030H
	DB	0c7H
	DB	028H
	DB	024H
	DB	028H
	DB	0ffH
	DB	038H
	DB	038H
	DB	038H
	DB	0ffH
	DB	048H
	DB	048H
	DB	048H
	DB	0ffH
	DB	048H
	DB	04cH
	DB	048H
	DB	0ffH
	DB	048H
	DB	04cH
	DB	048H
	DB	0ffH
	DB	050H
	DB	04cH
	DB	050H
	DB	0ffH
	DB	048H
	DB	04cH
	DB	048H
	DB	0ffH
	DB	048H
	DB	048H
	DB	048H
	DB	0ffH
	DB	050H
	DB	04cH
	DB	050H
	DB	0ffH
	DB	048H
	DB	044H
	DB	048H
	DB	0ffH
	DB	038H
	DB	038H
	DB	038H
	DB	0ffH
	DB	038H
	DB	03cH
	DB	038H
	DB	0ffH
	DB	038H
	DB	03cH
	DB	038H
	DB	0ffH
	DB	040H
	DB	03cH
	DB	040H
	DB	0ffH
	DB	040H
	DB	03cH
	DB	040H
	DB	0ffH
	DB	040H
	DB	040H
	DB	040H
	DB	0ffH
	DB	040H
	DB	040H
	DB	040H
	DB	0ffH
	DB	040H
	DB	044H
	DB	040H
	DB	0ffH
	DB	040H
	DB	044H
	DB	040H
	DB	0ffH
	DB	048H
	DB	044H
	DB	048H
	DB	0ffH
	DB	048H
	DB	048H
	DB	048H
	DB	0ffH
	DB	048H
	DB	048H
	DB	048H
	DB	0ffH
	DB	048H
	DB	048H
	DB	048H
	DB	0ffH
	DB	048H
	DB	04cH
	DB	048H
	DB	0ffH
	DB	050H
	DB	04cH
	DB	050H
	DB	0ffH
	DB	050H
	DB	04cH
	DB	050H
	DB	0ffH
	DB	050H
	DB	050H
	DB	050H
	DB	0ffH
	DB	058H
	DB	058H
	DB	058H
	DB	0ffH
	DB	048H
	DB	048H
	DB	048H
	DB	0ffH
	DB	040H
	DB	03cH
	DB	040H
	DB	0ffH
	DB	038H
	DB	03cH
	DB	038H
	DB	0ffH
	DB	038H
	DB	03cH
	DB	038H
	DB	0ffH
	DB	038H
	DB	038H
	DB	038H
	DB	0ffH
	DB	040H
	DB	03cH
	DB	040H
	DB	0ffH
	DB	038H
	DB	038H
	DB	038H
	DB	0ffH
	DB	038H
	DB	038H
	DB	038H
	DB	0ffH
	DB	030H
	DB	034H
	DB	030H
	DB	0ffH
	DB	028H
	DB	024H
	DB	028H
	DB	0ffH
	DB	030H
	DB	030H
	DB	030H
	DB	0c3H
	DB	030H
	DB	02cH
	DB	030H
	DB	0e3H
	DB	020H
	DB	024H
	DB	020H
	DB	0ffH
	DB	038H
	DB	03cH
	DB	038H
	DB	0ffH
	DB	048H
	DB	048H
	DB	048H
	DB	0ffH
	DB	048H
	DB	04cH
	DB	048H
	DB	0ffH
	DB	050H
	DB	04cH
	DB	050H
	DB	0ffH
	DB	050H
	DB	04cH
	DB	050H
	DB	0ffH
	DB	050H
	DB	04cH
	DB	050H
	DB	0ffH
	DB	048H
	DB	04cH
	DB	048H
	DB	0ffH
	DB	050H
	DB	04cH
	DB	050H
	DB	0ffH
	DB	040H
	DB	040H
	DB	040H
	DB	0ffH
	DB	038H
	DB	038H
	DB	038H
	DB	0ffH
	DB	038H
	DB	03cH
	DB	038H
	DB	0ffH
	DB	040H
	DB	03cH
	DB	040H
	DB	0ffH
	DB	038H
	DB	03cH
	DB	038H
	DB	0ffH
	DB	040H
	DB	040H
	DB	040H
	DB	0ffH
	DB	040H
	DB	040H
	DB	040H
	DB	0ffH
	DB	040H
	DB	040H
	DB	040H
	DB	0ffH
	DB	040H
	DB	040H
	DB	040H
	DB	0ffH
	DB	040H
	DB	044H
	DB	040H
	DB	0ffH
	DB	048H
	DB	044H
	DB	048H
	DB	0ffH
	DB	048H
	DB	044H
	DB	048H
	DB	0ffH
	DB	048H
	DB	048H
	DB	048H
	DB	0ffH
	DB	048H
	DB	048H
	DB	048H
	DB	0ffH
	DB	048H
	DB	04cH
	DB	048H
	DB	0ffH
	DB	048H
	DB	04cH
	DB	048H
	DB	0ffH
	DB	050H
	DB	04cH
	DB	050H
	DB	0ffH
	DB	050H
	DB	050H
	DB	050H
	DB	0ffH
	DB	050H
	DB	054H
	DB	050H
	DB	0ffH
	DB	050H
	DB	050H
	DB	050H
	DB	0ffH
	DB	040H
	DB	03cH
	DB	040H
	DB	0ffH
	DB	040H
	DB	03cH
	DB	040H
	DB	0ffH
	DB	038H
	DB	03cH
	DB	038H
	DB	0ffH
	DB	038H
	DB	038H
	DB	038H
	DB	0ffH
	DB	038H
	DB	03cH
	DB	038H
	DB	0ffH
	DB	038H
	DB	038H
	DB	038H
	DB	0ffH
	DB	038H
	DB	038H
	DB	038H
	DB	0ffH
	DB	038H
	DB	034H
	DB	038H
	DB	0ffH
	DB	028H
	DB	024H
	DB	028H
	DB	0ffH
	DB	030H
	DB	02cH
	DB	030H
	DB	0e7H
	DB	028H
	DB	028H
	DB	028H
	DB	0f3H
	DB	028H
	DB	024H
	DB	028H
	DB	0ffH
	DB	040H
	DB	040H
	DB	040H
	DB	0ffH
	DB	048H
	DB	048H
	DB	048H
	DB	0ffH
	DB	050H
	DB	04cH
	DB	048H
	DB	0ffH
	DB	050H
	DB	04cH
	DB	050H
	DB	0ffH
	DB	048H
	DB	04cH
	DB	048H
	DB	0ffH
	DB	048H
	DB	04cH
	DB	048H
	DB	0ffH
	DB	050H
	DB	04cH
	DB	050H
	DB	0ffH
	DB	048H
	DB	04cH
	DB	048H
	DB	0ffH
	DB	038H
	DB	03cH
	DB	038H
	DB	0ffH
	DB	038H
	DB	038H
	DB	038H
	DB	0ffH
	DB	038H
	DB	038H
	DB	038H
	DB	0ffH
	DB	040H
	DB	03cH
	DB	040H
	DB	0ffH
	DB	040H
	DB	03cH
	DB	040H
	DB	0ffH
	DB	038H
	DB	03cH
	DB	038H
	DB	0ffH
	DB	040H
	DB	040H
	DB	040H
	DB	0ffH
	DB	040H
	DB	040H
	DB	040H
	DB	0ffH
	DB	040H
	DB	044H
	DB	040H
	DB	0ffH
	DB	048H
	DB	044H
	DB	048H
	DB	0ffH
	DB	040H
	DB	044H
	DB	040H
	DB	0ffH
	DB	048H
	DB	048H
	DB	048H
	DB	0ffH
	DB	048H
	DB	048H
	DB	048H
	DB	0ffH
	DB	048H
	DB	048H
	DB	048H
	DB	0ffH
	DB	048H
	DB	048H
	DB	048H
	DB	0ffH
	DB	048H
	DB	04cH
	DB	048H
	DB	0ffH
	DB	050H
	DB	04cH
	DB	050H
	DB	0ffH
	DB	050H
	DB	050H
	DB	050H
	DB	0ffH
	DB	050H
	DB	054H
	DB	050H
	DB	0ffH
	DB	058H
	DB	054H
	DB	058H
	DB	0ffH
	DB	040H
	DB	03cH
	DB	040H
	DB	0ffH
	DB	038H
	DB	03cH
	DB	038H
	DB	0ffH
	DB	040H
	DB	03cH
	DB	040H
	DB	0ffH
	DB	038H
	DB	038H
	DB	038H
	DB	0ffH
	DB	038H
	DB	03cH
	DB	038H
	DB	0ffH
	DB	038H
	DB	038H
	DB	038H
	DB	0ffH
	DB	038H
	DB	038H
	DB	038H
	DB	0ffH
	DB	038H
	DB	038H
	DB	038H
	DB	0ffH
	DB	028H
	DB	024H
	DB	028H
	DB	0ffH
	DB	028H
	DB	028H
	DB	028H
	DB	0f3H
	DB	028H
	DB	028H
	DB	028H
	DB	0fbH
	DB	028H
	DB	024H
	DB	028H
	DB	0ffH
	DB	040H
	DB	044H
	DB	040H
	DB	0ffH
	DB	048H
	DB	048H
	DB	048H
	DB	0ffH
	DB	050H
	DB	04cH
	DB	050H
	DB	0ffH
	DB	050H
	DB	04cH
	DB	050H
	DB	0ffH
	DB	048H
	DB	04cH
	DB	048H
	DB	0ffH
	DB	048H
	DB	04cH
	DB	050H
	DB	0ffH
	DB	050H
	DB	04cH
	DB	050H
	DB	0ffH
	DB	050H
	DB	04cH
	DB	048H
	DB	0ffH
	DB	038H
	DB	038H
	DB	038H
	DB	0ffH
	DB	038H
	DB	038H
	DB	038H
	DB	0ffH
	DB	038H
	DB	03cH
	DB	038H
	DB	0ffH
	DB	038H
	DB	03cH
	DB	038H
	DB	0ffH
	DB	040H
	DB	03cH
	DB	040H
	DB	0ffH
	DB	040H
	DB	03cH
	DB	040H
	DB	0ffH
	DB	040H
	DB	040H
	DB	040H
	DB	0ffH
	DB	040H
	DB	040H
	DB	040H
	DB	0ffH
	DB	040H
	DB	040H
	DB	040H
	DB	0ffH
	DB	040H
	DB	044H
	DB	040H
	DB	0ffH
	DB	048H
	DB	044H
	DB	048H
	DB	0ffH
	DB	048H
	DB	048H
	DB	048H
	DB	0ffH
	DB	048H
	DB	048H
	DB	048H
	DB	0ffH
	DB	048H
	DB	048H
	DB	048H
	DB	0ffH
	DB	048H
	DB	04cH
	DB	048H
	DB	0ffH
	DB	050H
	DB	04cH
	DB	050H
	DB	0ffH
	DB	050H
	DB	04cH
	DB	050H
	DB	0ffH
	DB	050H
	DB	050H
	DB	050H
	DB	0ffH
	DB	050H
	DB	054H
	DB	050H
	DB	0ffH
	DB	058H
	DB	058H
	DB	058H
	DB	0ffH
	DB	038H
	DB	03cH
	DB	038H
	DB	0ffH
	DB	038H
	DB	03cH
	DB	038H
	DB	0ffH
	DB	040H
	DB	03cH
	DB	040H
	DB	0ffH
	DB	038H
	DB	038H
	DB	038H
	DB	0ffH
	DB	040H
	DB	03cH
	DB	040H
	DB	0ffH
	DB	038H
	DB	038H
	DB	038H
	DB	0ffH
	DB	038H
	DB	038H
	DB	038H
	DB	0ffH
	DB	038H
	DB	038H
	DB	038H
	DB	0ffH
	DB	028H
	DB	028H
	DB	028H
	DB	0ffH
	DB	028H
	DB	028H
	DB	028H
	DB	0fbH
	DB	028H
	DB	024H
	DB	020H
	DB	0ffH
	DB	020H
	DB	024H
	DB	028H
	DB	0ffH
	DB	040H
	DB	044H
	DB	040H
	DB	0ffH
	DB	048H
	DB	048H
	DB	048H
	DB	0ffH
	DB	048H
	DB	04cH
	DB	050H
	DB	0ffH
	DB	050H
	DB	04cH
	DB	050H
	DB	0ffH
	DB	050H
	DB	04cH
	DB	048H
	DB	0ffH
	DB	048H
	DB	04cH
	DB	050H
	DB	0ffH
	DB	050H
	DB	04cH
	DB	048H
	DB	0ffH
	DB	050H
	DB	04cH
	DB	050H
	DB	0ffH
	DB	038H
	DB	038H
	DB	038H
	DB	0ffH
	DB	038H
	DB	038H
	DB	038H
	DB	0ffH
	DB	038H
	DB	03cH
	DB	040H
	DB	0ffH
	DB	040H
	DB	03cH
	DB	038H
	DB	0ffH
	DB	040H
	DB	03cH
	DB	040H
	DB	0ffH
	DB	040H
	DB	040H
	DB	040H
	DB	0ffH
	DB	040H
	DB	040H
	DB	040H
	DB	0ffH
	DB	040H
	DB	040H
	DB	040H
	DB	0ffH
	DB	040H
	DB	044H
	DB	040H
	DB	0ffH
	DB	040H
	DB	044H
	DB	040H
	DB	0ffH
	DB	048H
	DB	044H
	DB	048H
	DB	0ffH
	DB	048H
	DB	044H
	DB	048H
	DB	0ffH
	DB	048H
	DB	048H
	DB	048H
	DB	0ffH
	DB	048H
	DB	048H
	DB	048H
	DB	0ffH
	DB	048H
	DB	04cH
	DB	048H
	DB	0ffH
	DB	050H
	DB	04cH
	DB	050H
	DB	0ffH
	DB	048H
	DB	04cH
	DB	048H
	DB	0ffH
	DB	050H
	DB	050H
	DB	050H
	DB	0ffH
	DB	050H
	DB	054H
	DB	050H
	DB	0ffH
	DB	058H
	DB	058H
	DB	058H
	DB	0ffH
	DB	040H
	DB	03cH
	DB	040H
	DB	0ffH
	DB	038H
	DB	03cH
	DB	038H
	DB	0ffH
	DB	038H
	DB	03cH
	DB	038H
	DB	0ffH
	DB	038H
	DB	038H
	DB	038H
	DB	0ffH
	DB	038H
	DB	03cH
	DB	038H
	DB	0ffH
	DB	038H
	DB	038H
	DB	038H
	DB	0ffH
	DB	038H
	DB	038H
	DB	038H
	DB	0ffH
	DB	038H
	DB	038H
	DB	038H
	DB	0ffH
	DB	028H
	DB	024H
	DB	028H
	DB	0ffH
	DB	020H
	DB	024H
	DB	020H
	DB	0ffH
	DB	028H
	DB	024H
	DB	028H
	DB	0ffH
	DB	028H
	DB	024H
	DB	028H
	DB	0ffH
	DB	040H
	DB	044H
	DB	040H
	DB	0ffH
	DB	048H
	DB	04cH
	DB	048H
	DB	0ffH
	DB	050H
	DB	04cH
	DB	048H
	DB	0ffH
	DB	050H
	DB	04cH
	DB	050H
	DB	0ffH
	DB	048H
	DB	04cH
	DB	048H
	DB	0ffH
	DB	048H
	DB	04cH
	DB	048H
	DB	0ffH
	DB	048H
	DB	04cH
	DB	050H
	DB	0ffH
	DB	050H
	DB	04cH
	DB	050H
	DB	0ffH
	DB	038H
	DB	038H
	DB	038H
	DB	0ffH
	DB	038H
	DB	038H
	DB	038H
	DB	0ffH
	DB	038H
	DB	03cH
	DB	038H
	DB	0ffH
	DB	038H
	DB	03cH
	DB	038H
	DB	0ffH
	DB	040H
	DB	03cH
	DB	040H
	DB	0ffH
	DB	040H
	DB	03cH
	DB	040H
	DB	0ffH
	DB	040H
	DB	040H
	DB	040H
	DB	0ffH
	DB	040H
	DB	040H
	DB	040H
	DB	0ffH
	DB	040H
	DB	040H
	DB	040H
	DB	0ffH
	DB	048H
	DB	044H
	DB	048H
	DB	0ffH
	DB	048H
	DB	044H
	DB	048H
	DB	0ffH
	DB	048H
	DB	048H
	DB	048H
	DB	0ffH
	DB	048H
	DB	048H
	DB	048H
	DB	0ffH
	DB	048H
	DB	048H
	DB	048H
	DB	0ffH
	DB	048H
	DB	04cH
	DB	048H
	DB	0ffH
	DB	048H
	DB	04cH
	DB	048H
	DB	0ffH
	DB	050H
	DB	04cH
	DB	050H
	DB	0ffH
	DB	050H
	DB	050H
	DB	050H
	DB	0ffH
	DB	050H
	DB	054H
	DB	050H
	DB	0ffH
	DB	058H
	DB	058H
	DB	058H
	DB	0ffH
	DB	040H
	DB	03cH
	DB	040H
	DB	0ffH
	DB	040H
	DB	03cH
	DB	040H
	DB	0ffH
	DB	038H
	DB	03cH
	DB	038H
	DB	0ffH
	DB	038H
	DB	038H
	DB	040H
	DB	0ffH
	DB	040H
	DB	03cH
	DB	038H
	DB	0ffH
	DB	038H
	DB	038H
	DB	038H
	DB	0ffH
	DB	038H
	DB	038H
	DB	038H
	DB	0ffH
	DB	038H
	DB	038H
	DB	038H
	DB	0ffH
	DB	028H
	DB	024H
	DB	028H
	DB	0ffH
	DB	020H
	DB	024H
	DB	020H
	DB	0ffH
	DB	020H
	DB	024H
	DB	028H
	DB	0ffH
	DB	028H
	DB	024H
	DB	020H
	DB	0ffH
	DB	040H
	DB	044H
	DB	040H
	DB	0ffH
	DB	048H
	DB	04cH
	DB	048H
	DB	0ffH
	DB	050H
	DB	04cH
	DB	050H
	DB	0ffH
	DB	050H
	DB	04cH
	DB	050H
	DB	0ffH
	DB	048H
	DB	04cH
	DB	048H
	DB	0ffH
	DB	050H
	DB	04cH
	DB	050H
	DB	0ffH
	DB	050H
	DB	04cH
	DB	048H
	DB	0ffH
	DB	048H
	DB	04cH
	DB	048H
	DB	0ffH
	DB	038H
	DB	038H
	DB	038H
	DB	0ffH
	DB	038H
	DB	038H
	DB	038H
	DB	0ffH
	DB	038H
	DB	03cH
	DB	038H
	DB	0ffH
	DB	038H
	DB	03cH
	DB	040H
	DB	0ffH
	DB	040H
	DB	03cH
	DB	038H
	DB	0ffH
	DB	040H
	DB	03cH
	DB	040H
	DB	0ffH
	DB	040H
	DB	040H
	DB	040H
	DB	0ffH
	DB	040H
	DB	040H
	DB	040H
	DB	0ffH
	DB	040H
	DB	044H
	DB	040H
	DB	0ffH
	DB	040H
	DB	044H
	DB	040H
	DB	0ffH
	DB	048H
	DB	044H
	DB	048H
	DB	0ffH
	DB	040H
	DB	048H
	DB	040H
	DB	0ffH
	DB	048H
	DB	048H
	DB	048H
	DB	0ffH
	DB	048H
	DB	048H
	DB	048H
	DB	0ffH
	DB	048H
	DB	048H
	DB	048H
	DB	0ffH
	DB	050H
	DB	04cH
	DB	050H
	DB	0ffH
	DB	050H
	DB	04cH
	DB	050H
	DB	0ffH
	DB	050H
	DB	050H
	DB	050H
	DB	0ffH
	DB	050H
	DB	054H
	DB	050H
	DB	0ffH
	DB	058H
	DB	054H
	DB	058H
	DB	0ffH
	DB	040H
	DB	03cH
	DB	040H
	DB	0ffH
	DB	038H
	DB	03cH
	DB	038H
	DB	0ffH
	DB	040H
	DB	03cH
	DB	038H
	DB	0ffH
	DB	038H
	DB	03cH
	DB	040H
	DB	0ffH
	DB	038H
	DB	038H
	DB	038H
	DB	0ffH
	DB	038H
	DB	038H
	DB	038H
	DB	0ffH
	DB	038H
	DB	03cH
	DB	038H
	DB	0ffH
	DB	038H
	DB	038H
	DB	038H
	DB	0ffH
	DB	028H
	DB	024H
	DB	028H
	DB	0ffH
	DB	028H
	DB	024H
	DB	028H
	DB	0ffH
	DB	028H
	DB	024H
	DB	028H
	DB	0ffH
	DB	028H
	DB	024H
	DB	028H
	DB	0ffH
	DB	040H
	DB	044H
	DB	048H
	DB	0ffH
	DB	048H
	DB	048H
	DB	048H
	DB	0ffH
	DB	050H
	DB	04cH
	DB	050H
	DB	0ffH
	DB	048H
	DB	04cH
	DB	050H
	DB	0ffH
	DB	048H
	DB	04cH
	DB	048H
	DB	0ffH
	DB	050H
	DB	04cH
	DB	050H
	DB	0ffH
	DB	048H
	DB	04cH
	DB	050H
	DB	0ffH
	DB	050H
	DB	04cH
	DB	048H
	DB	0ffH
	DB	038H
	DB	038H
	DB	038H
	DB	0ffH
	DB	038H
	DB	038H
	DB	038H
	DB	0ffH
	DB	040H
	DB	03cH
	DB	040H
	DB	0ffH
	DB	038H
	DB	03cH
	DB	038H
	DB	0ffH
	DB	040H
	DB	03cH
	DB	040H
	DB	0ffH
	DB	038H
	DB	040H
	DB	040H
	DB	0ffH
	DB	040H
	DB	040H
	DB	040H
	DB	0ffH
	DB	040H
	DB	040H
	DB	040H
	DB	0ffH
	DB	040H
	DB	044H
	DB	040H
	DB	0ffH
	DB	040H
	DB	044H
	DB	040H
	DB	0ffH
	DB	048H
	DB	044H
	DB	048H
	DB	0ffH
	DB	048H
	DB	044H
	DB	048H
	DB	0ffH
	DB	048H
	DB	048H
	DB	048H
	DB	0ffH
	DB	048H
	DB	048H
	DB	048H
	DB	0ffH
	DB	048H
	DB	04cH
	DB	048H
	DB	0ffH
	DB	050H
	DB	04cH
	DB	050H
	DB	0ffH
	DB	050H
	DB	04cH
	DB	050H
	DB	0ffH
	DB	050H
	DB	050H
	DB	050H
	DB	0ffH
	DB	050H
	DB	054H
	DB	050H
	DB	0ffH
	DB	058H
	DB	058H
	DB	058H
	DB	0ffH
	DB	040H
	DB	03cH
	DB	040H
	DB	0ffH
	DB	038H
	DB	03cH
	DB	038H
	DB	0ffH
	DB	038H
	DB	03cH
	DB	038H
	DB	0ffH
	DB	040H
	DB	038H
	DB	038H
	DB	0ffH
	DB	038H
	DB	03cH
	DB	040H
	DB	0ffH
	DB	038H
	DB	038H
	DB	038H
	DB	0ffH
	DB	038H
	DB	038H
	DB	038H
	DB	0ffH
	DB	038H
	DB	038H
	DB	038H
	DB	0ffH
	DB	028H
	DB	024H
	DB	028H
	DB	0ffH
	DB	028H
	DB	024H
	DB	028H
	DB	0ffH
	DB	028H
	DB	024H
	DB	020H
	DB	0ffH
	DB	028H
	DB	024H
	DB	028H
	DB	0ffH
	DB	040H
	DB	044H
	DB	040H
	DB	0ffH
	DB	048H
	DB	04cH
	DB	048H
	DB	0ffH
	DB	050H
	DB	04cH
	DB	048H
	DB	0ffH
	DB	050H
	DB	04cH
	DB	050H
	DB	0ffH
	DB	048H
	DB	04cH
	DB	048H
	DB	0ffH
	DB	050H
	DB	04cH
	DB	048H
	DB	0ffH
	DB	048H
	DB	04cH
	DB	050H
	DB	0ffH
	DB	050H
	DB	04cH
	DB	050H
	DB	0ffH
	DB	038H
	DB	03cH
	DB	038H
	DB	0ffH
	DB	038H
	DB	038H
	DB	038H
	DB	0ffH
	DB	038H
	DB	038H
	DB	038H
	DB	0ffH
	DB	040H
	DB	03cH
	DB	038H
	DB	0ffH
	DB	040H
	DB	03cH
	DB	040H
	DB	0ffH
	DB	040H
	DB	03cH
	DB	040H
	DB	0ffH
	DB	040H
	DB	040H
	DB	040H
	DB	0ffH
	DB	040H
	DB	040H
	DB	040H
	DB	0ffH
	DB	040H
	DB	040H
	DB	040H
	DB	0ffH
	DB	040H
	DB	044H
	DB	040H
	DB	0ffH
	DB	048H
	DB	044H
	DB	048H
	DB	0ffH
	DB	048H
	DB	048H
	DB	048H
	DB	0ffH
	DB	048H
	DB	048H
	DB	048H
	DB	0ffH
	DB	048H
	DB	048H
	DB	048H
	DB	0ffH
	DB	048H
	DB	04cH
	DB	048H
	DB	0ffH
	DB	048H
	DB	04cH
	DB	048H
	DB	0ffH
	DB	050H
	DB	04cH
	DB	050H
	DB	0ffH
	DB	050H
	DB	050H
	DB	050H
	DB	0ffH
	DB	050H
	DB	054H
	DB	050H
	DB	0ffH
	DB	058H
	DB	058H
	DB	058H
	DB	0ffH
	DB	040H
	DB	03cH
	DB	040H
	DB	0ffH
	DB	038H
	DB	03cH
	DB	040H
	DB	0ffH
	DB	038H
	DB	03cH
	DB	038H
	DB	0ffH
	DB	038H
	DB	038H
	DB	038H
	DB	0ffH
	DB	040H
	DB	03cH
	DB	038H
	DB	0ffH
	DB	038H
	DB	038H
	DB	038H
	DB	0ffH
	DB	038H
	DB	038H
	DB	038H
	DB	0ffH
	DB	038H
	DB	038H
	DB	038H
	DB	0ffH
	DB	028H
	DB	028H
	DB	028H
	DB	0ffH
	DB	020H
	DB	024H
	DB	020H
	DB	0ffH
	DB	020H
	DB	024H
	DB	028H
	DB	0ffH
	DB	028H
	DB	024H
	DB	020H
	DB	0ffH
	DB	048H
	DB	044H
	DB	048H
	DB	0ffH
	DB	048H
	DB	04cH
	DB	048H
	DB	0ffH
	DB	048H
	DB	04cH
	DB	050H
	DB	0ffH
	DB	050H
	DB	04cH
	DB	050H
	DB	0ffH
	DB	050H
	DB	04cH
	DB	048H
	DB	0ffH
	DB	048H
	DB	04cH
	DB	050H
	DB	0ffH
	DB	050H
	DB	04cH
	DB	048H
	DB	0ffH
	DB	048H
	DB	04cH
	DB	050H
	DB	0ffH
	DB	038H
	DB	038H
	DB	038H
	DB	0ffH
	DB	038H
	DB	038H
	DB	038H
	DB	0ffH
	DB	038H
	DB	03cH
	DB	038H
	DB	0ffH
	DB	038H
	DB	03cH
	DB	040H
	DB	0ffH
	DB	040H
	DB	03cH
	DB	038H
	DB	0ffH
	DB	040H
	DB	040H
	DB	040H
	DB	0ffH
	DB	040H
	DB	040H
	DB	040H
	DB	0ffH
	DB	040H
	DB	040H
	DB	040H
	DB	0ffH
	DB	040H
	DB	040H
	DB	040H
	DB	0ffH
	DB	048H
	DB	044H
	DB	048H
	DB	0ffH
	DB	048H
	DB	044H
	DB	048H
	DB	0ffH
	DB	048H
	DB	048H
	DB	048H
	DB	0ffH
	DB	048H
	DB	048H
	DB	048H
	DB	0ffH
	DB	048H
	DB	048H
	DB	048H
	DB	0ffH
	DB	048H
	DB	048H
	DB	048H
	DB	0ffH
	DB	050H
	DB	04cH
	DB	050H
	DB	0ffH
	DB	048H
	DB	04cH
	DB	048H
	DB	0ffH
	DB	050H
	DB	050H
	DB	050H
	DB	0ffH
	DB	050H
	DB	054H
	DB	050H
	DB	0ffH
	DB	058H
	DB	054H
	DB	058H
	DB	0ffH
	DB	040H
	DB	03cH
	DB	040H
	DB	0ffH
	DB	040H
	DB	03cH
	DB	038H
	DB	0ffH
	DB	038H
	DB	03cH
	DB	040H
	DB	0ffH
	DB	038H
	DB	038H
	DB	038H
	DB	0ffH
	DB	038H
	DB	03cH
	DB	038H
	DB	0ffH
	DB	038H
	DB	038H
	DB	038H
	DB	0ffH
	DB	038H
	DB	038H
	DB	038H
	DB	0ffH
	DB	038H
	DB	038H
	DB	038H
	DB	0ffH
	DB	028H
	DB	024H
	DB	028H
	DB	0ffH
	DB	028H
	DB	024H
	DB	028H
	DB	0ffH
	DB	028H
	DB	024H
	DB	028H
	DB	0ffH
	DB	020H
	DB	024H
	DB	028H
	DB	0ffH
	DB	040H
	DB	044H
	DB	040H
	DB	0ffH
	DB	048H
	DB	04cH
	DB	048H
	DB	0ffH
	DB	050H
	DB	04cH
	DB	050H
	DB	0ffH
	DB	050H
	DB	04cH
	DB	050H
	DB	0ffH
	DB	048H
	DB	04cH
	DB	048H
	DB	0ffH
	DB	048H
	DB	04cH
	DB	050H
	DB	0ffH
	DB	050H
	DB	04cH
	DB	048H
	DB	0ffH
	DB	050H
	DB	04cH
	DB	048H
	DB	0ffH
	DB	038H
	DB	038H
	DB	038H
	DB	0ffH
	DB	038H
	DB	038H
	DB	038H
	DB	0ffH
	DB	038H
	DB	03cH
	DB	040H
	DB	0ffH
	DB	038H
	DB	03cH
	DB	038H
	DB	0ffH
	DB	040H
	DB	03cH
	DB	040H
	DB	0ffH
	DB	038H
	DB	03cH
	DB	040H
	DB	0ffH
	DB	040H
	DB	040H
	DB	040H
	DB	0ffH
	DB	040H
	DB	040H
	DB	040H
	DB	0ffH
	DB	040H
	DB	044H
	DB	040H
	DB	0ffH
	DB	040H
	DB	044H
	DB	040H
	DB	0ffH
	DB	048H
	DB	044H
	DB	048H
	DB	0ffH
	DB	048H
	DB	044H
	DB	048H
	DB	0ffH
	DB	048H
	DB	048H
	DB	048H
	DB	0ffH
	DB	048H
	DB	048H
	DB	048H
	DB	0ffH
	DB	048H
	DB	04cH
	DB	048H
	DB	0ffH
	DB	050H
	DB	04cH
	DB	050H
	DB	0ffH
	DB	050H
	DB	04cH
	DB	050H
	DB	0ffH
	DB	050H
	DB	050H
	DB	050H
	DB	0ffH
	DB	050H
	DB	054H
	DB	050H
	DB	0ffH
	DB	058H
	DB	058H
	DB	058H
	DB	0ffH
	DB	040H
	DB	03cH
	DB	040H
	DB	0ffH
	DB	038H
	DB	03cH
	DB	038H
	DB	0ffH
	DB	040H
	DB	03cH
	DB	038H
	DB	0ffH
	DB	038H
	DB	03cH
	DB	040H
	DB	0ffH
	DB	038H
	DB	038H
	DB	040H
	DB	0ffH
	DB	038H
	DB	038H
	DB	038H
	DB	0ffH
	DB	038H
	DB	03cH
	DB	038H
	DB	0ffH
	DB	038H
	DB	038H
	DB	038H
	DB	0ffH
	DB	028H
	DB	024H
	DB	028H
	DB	0ffH
	DB	020H
	DB	024H
	DB	020H
	DB	0ffH
	DB	028H
	DB	024H
	DB	020H
	DB	0ffH
	DB	028H
	DB	024H
	DB	028H
	DB	0ffH
	DB	040H
	DB	044H
	DB	040H
	DB	0ffH
	DB	048H
	DB	04cH
	DB	048H
	DB	0ffH
	DB	050H
	DB	04cH
	DB	048H
	DB	0ffH
	DB	050H
	DB	04cH
	DB	050H
	DB	0ffH
	DB	048H
	DB	04cH
	DB	048H
	DB	0ffH
	DB	048H
	DB	04cH
	DB	050H
	DB	0ffH
	DB	050H
	DB	04cH
	DB	050H
	DB	0ffH
	DB	048H
	DB	04cH
	DB	050H
	DB	0ffH
	DB	038H
	DB	03cH
	DB	038H
	DB	0ffH
	DB	038H
	DB	038H
	DB	038H
	DB	0ffH
	DB	038H
	DB	038H
	DB	038H
	DB	0ffH
	DB	040H
	DB	03cH
	DB	038H
	DB	0ffH
	DB	040H
	DB	03cH
	DB	040H
	DB	0ffH
	DB	040H
	DB	040H
	DB	040H
	DB	0ffH
	DB	040H
	DB	040H
	DB	040H
	DB	0ffH
	DB	040H
	DB	040H
	DB	040H
	DB	0ffH
	DB	040H
	DB	040H
	DB	040H
	DB	0ffH
	DB	040H
	DB	044H
	DB	040H
	DB	0ffH
	DB	048H
	DB	044H
	DB	048H
	DB	0ffH
	DB	048H
	DB	048H
	DB	040H
	DB	0ffH
	DB	048H
	DB	048H
	DB	048H
	DB	0ffH
	DB	048H
	DB	048H
	DB	048H
	DB	0ffH
	DB	048H
	DB	04cH
	DB	048H
	DB	0ffH
	DB	048H
	DB	04cH
	DB	048H
	DB	0ffH
	DB	050H
	DB	04cH
	DB	050H
	DB	0ffH
	DB	050H
	DB	050H
	DB	050H
	DB	0ffH
	DB	050H
	DB	054H
	DB	050H
	DB	0ffH
	DB	058H
	DB	058H
	DB	058H
	DB	0ffH
	DB	040H
	DB	03cH
	DB	040H
	DB	0ffH
	DB	038H
	DB	03cH
	DB	038H
	DB	0ffH
	DB	038H
	DB	03cH
	DB	038H
	DB	0ffH
	DB	040H
	DB	038H
	DB	038H
	DB	0ffH
	DB	040H
	DB	03cH
	DB	038H
	DB	0ffH
	DB	038H
	DB	038H
	DB	038H
	DB	0ffH
	DB	038H
	DB	038H
	DB	038H
	DB	0ffH
	DB	038H
	DB	038H
	DB	038H
	DB	0ffH
	DB	028H
	DB	028H
	DB	028H
	DB	0ffH
	DB	028H
	DB	024H
	DB	028H
	DB	0ffH
	DB	028H
	DB	024H
	DB	028H
	DB	0ffH
	DB	028H
	DB	024H
	DB	028H
	DB	0ffH
	DB	040H
	DB	044H
	DB	048H
	DB	0ffH
	DB	048H
	DB	04cH
	DB	048H
	DB	0ffH
	DB	050H
	DB	04cH
	DB	050H
	DB	0ffH
	DB	050H
	DB	04cH
	DB	050H
	DB	0ffH
	DB	048H
	DB	04cH
	DB	048H
	DB	0ffH
	DB	050H
	DB	04cH
	DB	048H
	DB	0ffH
	DB	050H
	DB	04cH
	DB	050H
	DB	0ffH
	DB	048H
	DB	04cH
	DB	048H
	DB	0ffH
	DB	038H
	DB	038H
	DB	038H
	DB	0ffH
	DB	038H
	DB	038H
	DB	038H
	DB	0ffH
	DB	038H
	DB	03cH
	DB	038H
	DB	0ffH
	DB	038H
	DB	03cH
	DB	040H
	DB	0ffH
	DB	040H
	DB	03cH
	DB	038H
	DB	0ffH
	DB	040H
	DB	03cH
	DB	040H
	DB	0ffH
	DB	040H
	DB	040H
	DB	040H
	DB	0ffH
	DB	040H
	DB	040H
	DB	040H
	DB	0ffH
	DB	040H
	DB	044H
	DB	040H
	DB	0ffH
	DB	040H
	DB	044H
	DB	040H
	DB	0ffH
	DB	048H
	DB	044H
	DB	048H
	DB	0ffH
	DB	048H
	DB	048H
	DB	048H
	DB	0ffH
	DB	048H
	DB	048H
	DB	048H
	DB	0ffH
	DB	048H
	DB	048H
	DB	048H
	DB	0ffH
	DB	048H
	DB	04cH
	DB	048H
	DB	0ffH
	DB	050H
	DB	04cH
	DB	050H
	DB	0ffH
	DB	050H
	DB	04cH
	DB	050H
	DB	0ffH
	DB	050H
	DB	050H
	DB	050H
	DB	0ffH
	DB	050H
	DB	054H
	DB	050H
	DB	0ffH
	DB	058H
	DB	054H
	DB	058H
	DB	0ffH
	DB	040H
	DB	03cH
	DB	040H
	DB	0ffH
	DB	038H
	DB	03cH
	DB	040H
	DB	0ffH
	DB	038H
	DB	03cH
	DB	038H
	DB	0ffH
	DB	038H
	DB	038H
	DB	038H
	DB	0ffH
	DB	038H
	DB	03cH
	DB	038H
	DB	0ffH
	DB	038H
	DB	038H
	DB	038H
	DB	0ffH
	DB	038H
	DB	038H
	DB	038H
	DB	0ffH
	DB	038H
	DB	038H
	DB	038H
	DB	0ffH
	DB	028H
	DB	024H
	DB	028H
	DB	0ffH
	DB	028H
	DB	024H
	DB	028H
	DB	0ffH
	DB	020H
	DB	024H
	DB	020H
	DB	0ffH
	DB	028H
	DB	024H
	DB	028H
	DB	0ffH
	DB	048H
	DB	044H
	DB	040H
	DB	0ffH
	DB	048H
	DB	04cH
	DB	048H
	DB	0ffH
	DB	048H
	DB	04cH
	DB	050H
	DB	0ffH
	DB	050H
	DB	04cH
	DB	050H
	DB	0ffH
	DB	048H
	DB	04cH
	DB	048H
	DB	0ffH
	DB	048H
	DB	04cH
	DB	048H
	DB	0ffH
	DB	050H
	DB	04cH
	DB	050H
	DB	0ffH
	DB	050H
	DB	04cH
	DB	050H
	DB	0ffH
	DB	038H
	DB	038H
	DB	038H
	DB	0ffH
	DB	038H
	DB	038H
	DB	038H
	DB	0ffH
	DB	040H
	DB	03cH
	DB	038H
	DB	0ffH
	DB	038H
	DB	03cH
	DB	040H
	DB	0ffH
	DB	040H
	DB	03cH
	DB	040H
	DB	0ffH
	DB	040H
	DB	040H
	DB	038H
	DB	0ffH
	DB	040H
	DB	040H
	DB	040H
	DB	0ffH
	DB	040H
	DB	040H
	DB	040H
	DB	0ffH
	DB	040H
	DB	040H
	DB	040H
	DB	0ffH
	DB	040H
	DB	044H
	DB	048H
	DB	0ffH
	DB	048H
	DB	044H
	DB	048H
	DB	0ffH
	DB	048H
	DB	044H
	DB	048H
	DB	0ffH
	DB	048H
	DB	048H
	DB	048H
	DB	0ffH
	DB	048H
	DB	048H
	DB	048H
	DB	0ffH
	DB	048H
	DB	048H
	DB	048H
	DB	0ffH
	DB	048H
	DB	04cH
	DB	048H
	DB	0ffH
	DB	050H
	DB	04cH
	DB	050H
	DB	0ffH
	DB	050H
	DB	050H
	DB	050H
	DB	0ffH
	DB	050H
	DB	054H
	DB	050H
	DB	0ffH
	DB	058H
	DB	058H
	DB	058H
	DB	0ffH
	DB	040H
	DB	03cH
	DB	040H
	DB	0ffH
	DB	040H
	DB	03cH
	DB	038H
	DB	0ffH
	DB	038H
	DB	03cH
	DB	040H
	DB	0ffH
	DB	038H
	DB	038H
	DB	038H
	DB	0ffH
	DB	038H
	DB	03cH
	DB	040H
	DB	0ffH
	DB	038H
	DB	038H
	DB	038H
	DB	0ffH
	DB	038H
	DB	038H
	DB	038H
	DB	0ffH
	DB	038H
	DB	038H
	DB	038H
	DB	0ffH
	DB	028H
	DB	024H
	DB	028H
	DB	0ffH
	DB	020H
	DB	024H
	DB	020H
	DB	0ffH
	DB	028H
	DB	024H
	DB	028H
	DB	0ffH
	DB	020H
	DB	024H
	DB	028H
	DB	0ffH
	DB	040H
	DB	044H
	DB	040H
	DB	0ffH
	DB	048H
	DB	04cH
	DB	048H
	DB	0ffH
	DB	050H
	DB	04cH
	DB	048H
	DB	0ffH
	DB	050H
	DB	04cH
	DB	050H
	DB	0ffH
	DB	048H
	DB	04cH
	DB	050H
	DB	0ffH
	DB	050H
	DB	04cH
	DB	048H
	DB	0ffH
	DB	048H
	DB	04cH
	DB	048H
	DB	0ffH
	DB	050H
	DB	04cH
	DB	050H
	DB	0ffH
	DB	038H
	DB	03cH
	DB	038H
	DB	0ffH
	DB	038H
	DB	038H
	DB	038H
	DB	0ffH
	DB	038H
	DB	038H
	DB	038H
	DB	0ffH
	DB	038H
	DB	03cH
	DB	038H
	DB	0ffH
	DB	040H
	DB	03cH
	DB	040H
	DB	0ffH
	DB	040H
	DB	03cH
	DB	040H
	DB	0ffH
	DB	040H
	DB	040H
	DB	040H
	DB	0ffH
	DB	040H
	DB	040H
	DB	040H
	DB	0ffH
	DB	040H
	DB	044H
	DB	040H
	DB	0ffH
	DB	040H
	DB	044H
	DB	040H
	DB	0ffH
	DB	048H
	DB	044H
	DB	048H
	DB	0ffH
	DB	048H
	DB	048H
	DB	048H
	DB	0ffH
	DB	048H
	DB	048H
	DB	048H
	DB	0ffH
	DB	048H
	DB	048H
	DB	048H
	DB	0ffH
	DB	048H
	DB	04cH
	DB	048H
	DB	0ffH
	DB	048H
	DB	04cH
	DB	050H
	DB	0ffH
	DB	050H
	DB	04cH
	DB	050H
	DB	0ffH
	DB	050H
	DB	050H
	DB	050H
	DB	0ffH
	DB	050H
	DB	054H
	DB	050H
	DB	0ffH
	DB	058H
	DB	058H
	DB	058H
	DB	0ffH
	DB	038H
	DB	03cH
	DB	038H
	DB	0ffH
	DB	040H
	DB	03cH
	DB	038H
	DB	0ffH
	DB	040H
	DB	03cH
	DB	038H
	DB	0ffH
	DB	038H
	DB	038H
	DB	038H
	DB	0ffH
	DB	040H
	DB	03cH
	DB	040H
	DB	0ffH
	DB	038H
	DB	038H
	DB	038H
	DB	0ffH
	DB	038H
	DB	038H
	DB	038H
	DB	0ffH
	DB	038H
	DB	038H
	DB	038H
	DB	0ffH
	DB	028H
	DB	028H
	DB	028H
	DB	0ffH
	DB	028H
	DB	024H
	DB	028H
	DB	0ffH
	DB	028H
	DB	024H
	DB	028H
	DB	0ffH
	DB	028H
	DB	024H
	DB	020H
	DB	0ffH
	DB	040H
	DB	044H
	DB	048H
	DB	0ffH
	DB	048H
	DB	04cH
	DB	048H
	DB	0ffH
	DB	050H
	DB	04cH
	DB	048H
	DB	0ffH
	DB	050H
	DB	04cH
	DB	050H
	DB	0ffH
	DB	048H
	DB	04cH
	DB	050H
	DB	0ffH
	DB	050H
	DB	04cH
	DB	048H
	DB	0ffH
	DB	048H
	DB	04cH
	DB	050H
	DB	0ffH
	DB	048H
	DB	04cH
	DB	048H
	DB	0ffH
	DB	038H
	DB	038H
	DB	038H
	DB	0ffH
	DB	038H
	DB	038H
	DB	038H
	DB	0ffH
	DB	038H
	DB	03cH
	DB	038H
	DB	0ffH
	DB	040H
	DB	03cH
	DB	040H
	DB	0ffH
	DB	038H
	DB	03cH
	DB	040H
	DB	0ffH
	DB	040H
	DB	040H
	DB	040H
	DB	0ffH
	DB	040H
	DB	040H
	DB	040H
	DB	0ffH
	DB	040H
	DB	040H
	DB	040H
	DB	0ffH
	DB	040H
	DB	040H
	DB	040H
	DB	0ffH
	DB	040H
	DB	044H
	DB	040H
	DB	0ffH
	DB	048H
	DB	044H
	DB	048H
	DB	0ffH
	DB	048H
	DB	048H
	DB	048H
	DB	0ffH
	DB	048H
	DB	048H
	DB	048H
	DB	0ffH
	DB	048H
	DB	048H
	DB	048H
	DB	0ffH
	DB	048H
	DB	04cH
	DB	048H
	DB	0ffH
	DB	050H
	DB	04cH
	DB	048H
	DB	0ffH
	DB	050H
	DB	04cH
	DB	050H
	DB	0ffH
	DB	050H
	DB	050H
	DB	050H
	DB	0ffH
	DB	050H
	DB	050H
	DB	050H
	DB	0ffH
	DB	058H
	DB	058H
	DB	058H
	DB	0ffH
	DB	040H
	DB	03cH
	DB	040H
	DB	0ffH
	DB	038H
	DB	03cH
	DB	040H
	DB	0ffH
	DB	038H
	DB	03cH
	DB	038H
	DB	0ffH
	DB	038H
	DB	03cH
	DB	038H
	DB	0ffH
	DB	038H
	DB	038H
	DB	038H
	DB	0ffH
	DB	038H
	DB	038H
	DB	038H
	DB	0ffH
	DB	038H
	DB	03cH
	DB	038H
	DB	0ffH
	DB	038H
	DB	038H
	DB	038H
	DB	0ffH
	DB	028H
	DB	024H
	DB	028H
	DB	0ffH
	DB	020H
	DB	024H
	DB	020H
	DB	0ffH
	DB	028H
	DB	024H
	DB	020H
	DB	0ffH
	DB	028H
	DB	024H
	DB	028H
	DB	0ffH
	DB	040H
	DB	044H
	DB	048H
	DB	0ffH
	DB	048H
	DB	04cH
	DB	048H
	DB	0ffH
	DB	050H
	DB	04cH
	DB	050H
	DB	0ffH
	DB	048H
	DB	04cH
	DB	050H
	DB	0ffH
	DB	048H
	DB	04cH
	DB	048H
	DB	0ffH
	DB	050H
	DB	04cH
	DB	050H
	DB	0ffH
	DB	050H
	DB	04cH
	DB	050H
	DB	0ffH
	DB	050H
	DB	04cH
	DB	048H
	DB	0ffH
	DB	038H
	DB	038H
	DB	038H
	DB	0ffH
	DB	038H
	DB	038H
	DB	038H
	DB	0ffH
	DB	038H
	DB	03cH
	DB	038H
	DB	0ffH
	DB	040H
	DB	03cH
	DB	038H
	DB	0ffH
	DB	040H
	DB	03cH
	DB	040H
	DB	0ffH
	DB	038H
	DB	03cH
	DB	040H
	DB	0ffH
	DB	040H
	DB	040H
	DB	040H
	DB	0ffH
	DB	040H
	DB	040H
	DB	040H
	DB	0ffH
	DB	040H
	DB	044H
	DB	040H
	DB	0ffH
	DB	048H
	DB	044H
	DB	040H
	DB	0ffH
	DB	048H
	DB	044H
	DB	048H
	DB	0ffH
	DB	040H
	DB	044H
	DB	048H
	DB	0ffH
	DB	048H
	DB	048H
	DB	048H
	DB	0ffH
	DB	048H
	DB	048H
	DB	048H
	DB	0ffH
	DB	048H
	DB	04cH
	DB	048H
	DB	0ffH
	DB	048H
	DB	04cH
	DB	050H
	DB	0ffH
	DB	050H
	DB	04cH
	DB	048H
	DB	0ffH
	DB	050H
	DB	050H
	DB	050H
	DB	0ffH
	DB	050H
	DB	054H
	DB	050H
	DB	0ffH
	DB	058H
	DB	058H
	DB	058H
	DB	0ffH
	DB	040H
	DB	03cH
	DB	040H
	DB	0ffH
	DB	038H
	DB	03cH
	DB	040H
	DB	0ffH
	DB	038H
	DB	03cH
	DB	038H
	DB	0ffH
	DB	040H
	DB	038H
	DB	038H
	DB	0ffH
	DB	038H
	DB	03cH
	DB	040H
	DB	0ffH
	DB	038H
	DB	038H
	DB	038H
	DB	0ffH
	DB	038H
	DB	038H
	DB	038H
	DB	0ffH
	DB	038H
	DB	038H
	DB	038H
	DB	0ffH
	DB	028H
	DB	024H
	DB	028H
	DB	0ffH
	DB	028H
	DB	024H
	DB	028H
	DB	0ffH
	DB	020H
	DB	024H
	DB	028H
	DB	0ffH
	DB	028H
	DB	024H
	DB	028H
	DB	0ffH
	DB	048H
	DB	044H
	DB	040H
	DB	0ffH
	DB	048H
	DB	04cH
	DB	048H
	DB	0ffH
	DB	050H
	DB	04cH
	DB	048H
	DB	0ffH
	DB	050H
	DB	04cH
	DB	050H
	DB	0ffH
	DB	048H
	DB	04cH
	DB	048H
	DB	0ffH
	DB	048H
	DB	04cH
	DB	048H
	DB	0ffH
	DB	050H
	DB	04cH
	DB	050H
	DB	0ffH
	DB	048H
	DB	04cH
	DB	050H
	DB	0ffH
	DB	038H
	DB	03cH
	DB	038H
	DB	0ffH
	DB	038H
	DB	038H
	DB	038H
	DB	0ffH
	DB	038H
	DB	038H
	DB	040H
	DB	0ffH
	DB	038H
	DB	03cH
	DB	038H
	DB	0ffH
	DB	040H
	DB	03cH
	DB	038H
	DB	0ffH
	DB	040H
	DB	040H
	DB	040H
	DB	0ffH
	DB	040H
	DB	040H
	DB	040H
	DB	0ffH
	DB	040H
	DB	040H
	DB	040H
	DB	0ffH
	DB	040H
	DB	040H
	DB	040H
	DB	0ffH
	DB	040H
	DB	044H
	DB	040H
	DB	0ffH
	DB	048H
	DB	044H
	DB	048H
	DB	0ffH
	DB	048H
	DB	048H
	DB	048H
	DB	0ffH
	DB	048H
	DB	048H
	DB	048H
	DB	0ffH
	DB	048H
	DB	048H
	DB	048H
	DB	0ffH
	DB	048H
	DB	048H
	DB	048H
	DB	0ffH
	DB	050H
	DB	04cH
	DB	050H
	DB	0ffH
	DB	050H
	DB	04cH
	DB	050H
	DB	0ffH
	DB	050H
	DB	050H
	DB	050H
	DB	0ffH
	DB	050H
	DB	054H
	DB	050H
	DB	0ffH
	DB	058H
	DB	058H
	DB	058H
	DB	0ffH
	DB	040H
	DB	03cH
	DB	040H
	DB	0ffH
	DB	038H
	DB	03cH
	DB	038H
	DB	0ffH
	DB	040H
	DB	03cH
	DB	038H
	DB	0ffH
	DB	038H
	DB	038H
	DB	040H
	DB	0ffH
	DB	038H
	DB	03cH
	DB	038H
	DB	0ffH
	DB	038H
	DB	038H
	DB	038H
	DB	0ffH
	DB	038H
	DB	038H
	DB	038H
	DB	0ffH
	DB	038H
	DB	038H
	DB	038H
	DB	0ffH
	DB	028H
	DB	028H
	DB	028H
	DB	0ffH
	DB	028H
	DB	024H
	DB	020H
	DB	0ffH
	DB	028H
	DB	024H
	DB	028H
	DB	0ffH
	DB	020H
	DB	024H
	DB	020H
	DB	0ffH
	DB	040H
	DB	044H
	DB	040H
	DB	0ffH
	DB	048H
	DB	04cH
	DB	048H
	DB	0ffH
	DB	050H
	DB	04cH
	DB	050H
	DB	0ffH
	DB	050H
	DB	04cH
	DB	050H
	DB	0ffH
	DB	048H
	DB	04cH
	DB	048H
	DB	0ffH
	DB	050H
	DB	04cH
	DB	048H
	DB	0ffH
	DB	048H
	DB	04cH
	DB	050H
	DB	0ffH
	DB	050H
	DB	04cH
	DB	048H
	DB	0ffH
	DB	038H
	DB	038H
	DB	038H
	DB	0ffH
	DB	038H
	DB	038H
	DB	038H
	DB	0ffH
	DB	040H
	DB	03cH
	DB	038H
	DB	0ffH
	DB	038H
	DB	03cH
	DB	040H
	DB	0ffH
	DB	040H
	DB	03cH
	DB	040H
	DB	0ffH
	DB	040H
	DB	03cH
	DB	040H
	DB	0ffH
	DB	040H
	DB	040H
	DB	040H
	DB	0ffH
	DB	040H
	DB	040H
	DB	040H
	DB	0ffH
	DB	040H
	DB	044H
	DB	040H
	DB	0ffH
	DB	040H
	DB	044H
	DB	040H
	DB	0ffH
	DB	048H
	DB	044H
	DB	048H
	DB	0ffH
	DB	048H
	DB	048H
	DB	048H
	DB	0ffH
	DB	048H
	DB	048H
	DB	048H
	DB	0ffH
	DB	048H
	DB	048H
	DB	048H
	DB	0ffH
	DB	048H
	DB	04cH
	DB	048H
	DB	0ffH
	DB	048H
	DB	04cH
	DB	048H
	DB	0ffH
	DB	050H
	DB	04cH
	DB	050H
	DB	0ffH
	DB	050H
	DB	050H
	DB	050H
	DB	0ffH
	DB	050H
	DB	054H
	DB	050H
	DB	0ffH
	DB	058H
	DB	054H
	DB	058H
	DB	0ffH
	DB	040H
	DB	03cH
	DB	040H
	DB	0ffH
	DB	038H
	DB	03cH
	DB	038H
	DB	0ffH
	DB	038H
	DB	03cH
	DB	038H
	DB	0ffH
	DB	040H
	DB	038H
	DB	038H
	DB	0ffH
	DB	038H
	DB	03cH
	DB	038H
	DB	0ffH
	DB	038H
	DB	038H
	DB	038H
	DB	0ffH
	DB	038H
	DB	038H
	DB	038H
	DB	0ffH
	DB	038H
	DB	038H
	DB	038H
	DB	0ffH
	DB	028H
	DB	024H
	DB	028H
	DB	0ffH
	DB	020H
	DB	024H
	DB	028H
	DB	0ffH
	DB	028H
	DB	024H
	DB	028H
	DB	0ffH
	DB	028H
	DB	024H
	DB	028H
	DB	0ffH
	DB	040H
	DB	044H
	DB	048H
	DB	0ffH
	DB	048H
	DB	04cH
	DB	048H
	DB	0ffH
	DB	048H
	DB	04cH
	DB	050H
	DB	0ffH
	DB	050H
	DB	04cH
	DB	050H
	DB	0ffH
	DB	050H
	DB	04cH
	DB	048H
	DB	0ffH
	DB	048H
	DB	04cH
	DB	050H
	DB	0ffH
	DB	050H
	DB	04cH
	DB	050H
	DB	0ffH
	DB	050H
	DB	04cH
	DB	048H
	DB	0ffH
	DB	038H
	DB	038H
	DB	038H
	DB	0ffH
	DB	038H
	DB	038H
	DB	038H
	DB	0ffH
	DB	038H
	DB	03cH
	DB	038H
	DB	0ffH
	DB	038H
	DB	03cH
	DB	038H
	DB	0ffH
	DB	040H
	DB	03cH
	DB	040H
	DB	0ffH
	DB	040H
	DB	040H
	DB	040H
	DB	0ffH
	DB	040H
	DB	040H
	DB	040H
	DB	0ffH
	DB	040H
	DB	040H
	DB	040H
	DB	0ffH
	DB	040H
	DB	040H
	DB	040H
	DB	0ffH
	DB	048H
	DB	044H
	DB	048H
	DB	0ffH
	DB	048H
	DB	044H
	DB	048H
	DB	0ffH
	DB	048H
	DB	044H
	DB	040H
	DB	0ffH
	DB	048H
	DB	048H
	DB	048H
	DB	0ffH
	DB	048H
	DB	048H
	DB	048H
	DB	0ffH
	DB	048H
	DB	04cH
	DB	048H
	DB	0ffH
	DB	050H
	DB	04cH
	DB	050H
	DB	0ffH
	DB	048H
	DB	04cH
	DB	050H
	DB	0ffH
	DB	050H
	DB	050H
	DB	050H
	DB	0ffH
	DB	050H
	DB	054H
	DB	050H
	DB	0ffH
	DB	058H
	DB	058H
	DB	058H
	DB	0ffH
	DB	040H
	DB	03cH
	DB	040H
	DB	0ffH
	DB	038H
	DB	03cH
	DB	040H
	DB	0ffH
	DB	038H
	DB	03cH
	DB	038H
	DB	0ffH
	DB	040H
	DB	038H
	DB	038H
	DB	0ffH
	DB	038H
	DB	03cH
	DB	040H
	DB	0ffH
	DB	038H
	DB	038H
	DB	038H
	DB	0ffH
	DB	038H
	DB	038H
	DB	038H
	DB	0ffH
	DB	038H
	DB	038H
	DB	038H
	DB	0ffH
	DB	028H
	DB	024H
	DB	028H
	DB	0ffH
	DB	028H
	DB	024H
	DB	020H
	DB	0ffH
	DB	028H
	DB	024H
	DB	020H
	DB	0ffH
	DB	028H
	DB	024H
	DB	028H
	DB	0ffH
	DB	048H
	DB	044H
	DB	040H
	DB	0ffH
	DB	048H
	DB	04cH
	DB	048H
	DB	0ffH
	DB	050H
	DB	04cH
	DB	048H
	DB	0ffH
	DB	050H
	DB	04cH
	DB	050H
	DB	0ffH
	DB	048H
	DB	04cH
	DB	048H
	DB	0ffH
	DB	048H
	DB	04cH
	DB	050H
	DB	0ffH
	DB	050H
	DB	04cH
	DB	048H
	DB	0ffH
	DB	048H
	DB	04cH
	DB	050H
	DB	0ffH
	DB	038H
	DB	03cH
	DB	038H
	DB	0ffH
	DB	038H
	DB	038H
	DB	038H
	DB	0ffH
	DB	038H
	DB	03cH
	DB	040H
	DB	0ffH
	DB	040H
	DB	03cH
	DB	038H
	DB	0ffH
	DB	038H
	DB	03cH
	DB	038H
	DB	0ffH
	DB	040H
	DB	03cH
	DB	040H
	DB	0ffH
	DB	040H
	DB	040H
	DB	040H
	DB	0ffH
	DB	040H
	DB	040H
	DB	040H
	DB	0ffH
	DB	040H
	DB	044H
	DB	040H
	DB	0ffH
	DB	040H
	DB	044H
	DB	040H
	DB	0ffH
	DB	048H
	DB	044H
	DB	048H
	DB	0ffH
	DB	040H
	DB	048H
	DB	048H
	DB	0ffH
	DB	048H
	DB	048H
	DB	048H
	DB	0ffH
	DB	048H
	DB	048H
	DB	048H
	DB	0ffH
	DB	048H
	DB	048H
	DB	048H
	DB	0ffH
	DB	050H
	DB	04cH
	DB	048H
	DB	0ffH
	DB	050H
	DB	04cH
	DB	050H
	DB	0ffH
	DB	050H
	DB	050H
	DB	050H
	DB	0ffH
	DB	050H
	DB	054H
	DB	050H
	DB	0ffH
	DB	058H
	DB	058H
	DB	058H
	DB	0ffH
	DB	040H
	DB	03cH
	DB	038H
	DB	0ffH
	DB	038H
	DB	03cH
	DB	040H
	DB	0ffH
	DB	040H
	DB	03cH
	DB	038H
	DB	0ffH
	DB	038H
	DB	038H
	DB	038H
	DB	0ffH
	DB	038H
	DB	03cH
	DB	040H
	DB	0ffH
	DB	038H
	DB	038H
	DB	038H
	DB	0ffH
	DB	038H
	DB	038H
	DB	038H
	DB	0ffH
	DB	038H
	DB	038H
	DB	038H
	DB	0ffH
	DB	028H
	DB	028H
	DB	028H
	DB	0ffH
	DB	028H
	DB	024H
	DB	028H
	DB	0ffH
	DB	020H
	DB	024H
	DB	028H
	DB	0ffH
	DB	020H
	DB	024H
	DB	020H
	DB	0ffH
	DB	040H
	DB	044H
	DB	048H
	DB	0ffH
	DB	048H
	DB	04cH
	DB	048H
	DB	0ffH
	DB	050H
	DB	04cH
	DB	050H
	DB	0ffH
	DB	050H
	DB	04cH
	DB	050H
	DB	0ffH
	DB	048H
	DB	04cH
	DB	048H
	DB	0ffH
	DB	050H
	DB	04cH
	DB	048H
	DB	0ffH
	DB	048H
	DB	04cH
	DB	050H
	DB	0ffH
	DB	050H
	DB	04cH
	DB	050H
	DB	0ffH
	DB	038H
	DB	038H
	DB	038H
	DB	0ffH
	DB	038H
	DB	038H
	DB	038H
	DB	0ffH
	DB	038H
	DB	038H
	DB	038H
	DB	0ffH
	DB	040H
	DB	03cH
	DB	040H
	DB	0ffH
	DB	040H
	DB	03cH
	DB	040H
	DB	0ffH
	DB	038H
	DB	03cH
	DB	040H
	DB	0ffH
	DB	040H
	DB	040H
	DB	040H
	DB	0ffH
	DB	040H
	DB	040H
	DB	040H
	DB	0ffH
	DB	040H
	DB	040H
	DB	040H
	DB	0ffH
	DB	040H
	DB	044H
	DB	040H
	DB	0ffH
	DB	048H
	DB	044H
	DB	048H
	DB	0ffH
	DB	048H
	DB	048H
	DB	048H
	DB	0ffH
	DB	048H
	DB	048H
	DB	048H
	DB	0ffH
	DB	048H
	DB	048H
	DB	048H
	DB	0ffH
	DB	048H
	DB	04cH
	DB	048H
	DB	0ffH
	DB	048H
	DB	04cH
	DB	050H
	DB	0ffH
	DB	050H
	DB	04cH
	DB	048H
	DB	0ffH
	DB	050H
	DB	050H
	DB	050H
	DB	0ffH
	DB	050H
	DB	050H
	DB	050H
	DB	0ffH
	DB	058H
	DB	058H
	DB	058H
	DB	0ffH
	DB	040H
	DB	03cH
	DB	040H
	DB	0ffH
	DB	038H
	DB	03cH
	DB	038H
	DB	0ffH
	DB	038H
	DB	03cH
	DB	040H
	DB	0ffH
	DB	038H
	DB	038H
	DB	038H
	DB	0ffH
	DB	040H
	DB	03cH
	DB	038H
	DB	0ffH
	DB	038H
	DB	038H
	DB	038H
	DB	0ffH
	DB	038H
	DB	038H
	DB	038H
	DB	0ffH
	DB	038H
	DB	038H
	DB	038H
	DB	0ffH
	DB	028H
	DB	028H
	DB	028H
	DB	0ffH
	DB	020H
	DB	024H
	DB	020H
	DB	0ffH
	DB	028H
	DB	024H
	DB	028H
	DB	0ffH
	DB	028H
	DB	024H
	DB	028H
	DB	0ffH
	DB	040H
	DB	044H
	DB	040H
	DB	0ffH
	DB	048H
	DB	04cH
	DB	048H
	DB	0ffH
	DB	048H
	DB	04cH
	DB	050H
	DB	0ffH
	DB	050H
	DB	04cH
	DB	050H
	DB	0ffH
	DB	048H
	DB	04cH
	DB	048H
	DB	0ffH
	DB	048H
	DB	04cH
	DB	050H
	DB	0ffH
	DB	050H
	DB	04cH
	DB	048H
	DB	0ffH
	DB	050H
	DB	04cH
	DB	048H
	DB	0ffH
	DB	038H
	DB	038H
	DB	038H
	DB	0ffH
	DB	038H
	DB	038H
	DB	038H
	DB	0ffH
	DB	038H
	DB	03cH
	DB	038H
	DB	0ffH
	DB	038H
	DB	03cH
	DB	038H
	DB	0ffH
	DB	040H
	DB	03cH
	DB	040H
	DB	0ffH
	DB	040H
	DB	040H
	DB	040H
	DB	0ffH
	DB	040H
	DB	040H
	DB	040H
	DB	0ffH
	DB	040H
	DB	040H
	DB	040H
	DB	0ffH
	DB	040H
	DB	044H
	DB	040H
	DB	0ffH
	DB	048H
	DB	044H
	DB	040H
	DB	0ffH
	DB	048H
	DB	044H
	DB	048H
	DB	0ffH
	DB	048H
	DB	044H
	DB	048H
	DB	0ffH
	DB	048H
	DB	048H
	DB	048H
	DB	0ffH
	DB	048H
	DB	048H
	DB	048H
	DB	0ffH
	DB	048H
	DB	04cH
	DB	048H
	DB	0ffH
	DB	050H
	DB	04cH
	DB	050H
	DB	0ffH
	DB	050H
	DB	04cH
	DB	050H
	DB	0ffH
	DB	050H
	DB	050H
	DB	050H
	DB	0ffH
	DB	050H
	DB	054H
	DB	050H
	DB	0ffH
	DB	058H
	DB	058H
	DB	058H
	DB	0ffH
	DB	040H
	DB	03cH
	DB	040H
	DB	0ffH
	DB	040H
	DB	03cH
	DB	038H
	DB	0ffH
	DB	038H
	DB	03cH
	DB	038H
	DB	0ffH
	DB	038H
	DB	038H
	DB	038H
	DB	0ffH
	DB	040H
	DB	03cH
	DB	038H
	DB	0ffH
	DB	038H
	DB	038H
	DB	038H
	DB	0ffH
	DB	038H
	DB	038H
	DB	038H
	DB	0ffH
	DB	038H
	DB	038H
	DB	038H
	DB	0ffH
	DB	028H
	DB	024H
	DB	028H
	DB	0ffH
	DB	028H
	DB	024H
	DB	028H
	DB	0ffH
	DB	028H
	DB	024H
	DB	020H
	DB	0ffH
	DB	028H
	DB	024H
	DB	028H
	DB	0ffH
	DB	048H
	DB	044H
	DB	040H
	DB	0ffH
	DB	048H
	DB	04cH
	DB	048H
	DB	0ffH
	DB	050H
	DB	04cH
	DB	048H
	DB	0ffH
	DB	050H
	DB	04cH
	DB	050H
	DB	0ffH
	DB	048H
	DB	04cH
	DB	048H
	DB	0ffH
	DB	050H
	DB	04cH
	DB	050H
	DB	0ffH
	DB	048H
	DB	04cH
	DB	050H
	DB	0ffH
	DB	048H
	DB	04cH
	DB	048H
	DB	0ffH
	DB	038H
	DB	038H
	DB	038H
	DB	0ffH
	DB	038H
	DB	038H
	DB	038H
	DB	0ffH
	DB	038H
	DB	03cH
	DB	038H
	DB	0ffH
	DB	040H
	DB	03cH
	DB	038H
	DB	0ffH
	DB	040H
	DB	03cH
	DB	040H
	DB	0ffH
	DB	040H
	DB	040H
	DB	040H
	DB	0ffH
	DB	040H
	DB	040H
	DB	040H
	DB	0ffH
	DB	040H
	DB	040H
	DB	040H
	DB	0ffH
	DB	040H
	DB	040H
	DB	040H
	DB	0ffH
	DB	040H
	DB	044H
	DB	040H
	DB	0ffH
	DB	048H
	DB	044H
	DB	048H
	DB	0ffH
	DB	048H
	DB	048H
	DB	048H
	DB	0ffH
	DB	048H
	DB	048H
	DB	048H
	DB	0ffH
	DB	048H
	DB	048H
	DB	048H
	DB	0ffH
	DB	048H
	DB	04cH
	DB	048H
	DB	0ffH
	DB	050H
	DB	04cH
	DB	048H
	DB	0ffH
	DB	048H
	DB	04cH
	DB	050H
	DB	0ffH
	DB	050H
	DB	050H
	DB	050H
	DB	0ffH
	DB	050H
	DB	054H
	DB	050H
	DB	0ffH
	DB	058H
	DB	058H
	DB	058H
	DB	0ffH
	DB	040H
	DB	03cH
	DB	040H
	DB	0ffH
	DB	038H
	DB	03cH
	DB	040H
	DB	0ffH
	DB	038H
	DB	03cH
	DB	038H
	DB	0ffH
	DB	038H
	DB	038H
	DB	040H
	DB	0ffH
	DB	038H
	DB	03cH
	DB	040H
	DB	0ffH
	DB	038H
	DB	038H
	DB	038H
	DB	0ffH
	DB	038H
	DB	038H
	DB	038H
	DB	0ffH
	DB	038H
	DB	038H
	DB	038H
	DB	0ffH
	DB	028H
	DB	024H
	DB	028H
	DB	0ffH
	DB	020H
	DB	024H
	DB	020H
	DB	0ffH
	DB	020H
	DB	024H
	DB	028H
	DB	0ffH
	DB	028H
	DB	024H
	DB	028H
	DB	0ffH
	DB	040H
	DB	044H
	DB	048H
	DB	0ffH
	DB	048H
	DB	04cH
	DB	048H
	DB	0ffH
	DB	050H
	DB	04cH
	DB	050H
	DB	0ffH
	DB	050H
	DB	04cH
	DB	050H
	DB	0ffH
	DB	048H
	DB	04cH
	DB	048H
	DB	0ffH
	DB	050H
	DB	04cH
	DB	048H
	DB	0ffH
	DB	050H
	DB	04cH
	DB	050H
	DB	0ffH
	DB	048H
	DB	04cH
	DB	050H
	DB	0ffH
	DB	038H
	DB	03cH
	DB	038H
	DB	0ffH
	DB	038H
	DB	038H
	DB	038H
	DB	0ffH
	DB	038H
	DB	03cH
	DB	040H
	DB	0ffH
	DB	038H
	DB	03cH
	DB	038H
	DB	0ffH
	DB	040H
	DB	03cH
	DB	040H
	DB	0ffH
	DB	040H
	DB	03cH
	DB	040H
	DB	0ffH
	DB	040H
	DB	040H
	DB	040H
	DB	0ffH
	DB	040H
	DB	040H
	DB	040H
	DB	0ffH
	DB	040H
	DB	044H
	DB	040H
	DB	0ffH
	DB	040H
	DB	044H
	DB	040H
	DB	0ffH
	DB	048H
	DB	044H
	DB	048H
	DB	0ffH
	DB	048H
	DB	048H
	DB	048H
	DB	0ffH
	DB	048H
	DB	048H
	DB	048H
	DB	0ffH
	DB	048H
	DB	048H
	DB	048H
	DB	0ffH
	DB	048H
	DB	048H
	DB	048H
	DB	0ffH
	DB	048H
	DB	04cH
	DB	050H
	DB	0ffH
	DB	050H
	DB	04cH
	DB	050H
	DB	0ffH
	DB	050H
	DB	050H
	DB	050H
	DB	0ffH
	DB	050H
	DB	054H
	DB	050H
	DB	0ffH
	DB	058H
	DB	054H
	DB	058H
	DB	0ffH
	DB	040H
	DB	03cH
	DB	040H
	DB	0ffH
	DB	038H
	DB	03cH
	DB	038H
	DB	0ffH
	DB	040H
	DB	03cH
	DB	038H
	DB	0ffH
	DB	038H
	DB	03cH
	DB	038H
	DB	0ffH
	DB	038H
	DB	038H
	DB	038H
	DB	0ffH
	DB	038H
	DB	038H
	DB	038H
	DB	0ffH
	DB	038H
	DB	03cH
	DB	038H
	DB	0ffH
	DB	038H
	DB	038H
	DB	038H
	DB	0ffH
	DB	028H
	DB	028H
	DB	028H
	DB	0ffH
	DB	028H
	DB	024H
	DB	028H
	DB	0ffH
	DB	028H
	DB	024H
	DB	020H
	DB	0ffH
	DB	028H
	DB	024H
	DB	028H
	DB	0ffH
	DB	040H
	DB	044H
	DB	040H
	DB	0ffH
	DB	048H
	DB	04cH
	DB	048H
	DB	0ffH
	DB	048H
	DB	04cH
	DB	050H
	DB	0ffH
	DB	050H
	DB	04cH
	DB	050H
	DB	0ffH
	DB	048H
	DB	04cH
	DB	048H
	DB	0ffH
	DB	048H
	DB	04cH
	DB	048H
	DB	0ffH
	DB	050H
	DB	04cH
	DB	050H
	DB	0ffH
	DB	050H
	DB	04cH
	DB	050H
	DB	0ffH
	DB	038H
	DB	038H
	DB	038H
	DB	0ffH
	DB	038H
	DB	038H
	DB	038H
	DB	0ffH
	DB	040H
	DB	038H
	DB	038H
	DB	0ffH
	DB	038H
	DB	03cH
	DB	038H
	DB	0ffH
	DB	038H
	DB	03cH
	DB	040H
	DB	0ffH
	DB	040H
	DB	03cH
	DB	040H
	DB	0ffH
	DB	040H
	DB	040H
	DB	040H
	DB	0ffH
	DB	040H
	DB	040H
	DB	040H
	DB	0ffH
	DB	040H
	DB	040H
	DB	040H
	DB	0ffH
	DB	040H
	DB	044H
	DB	040H
	DB	0ffH
	DB	048H
	DB	044H
	DB	048H
	DB	0ffH
	DB	048H
	DB	044H
	DB	048H
	DB	0ffH
	DB	048H
	DB	048H
	DB	048H
	DB	0ffH
	DB	048H
	DB	048H
	DB	048H
	DB	0ffH
	DB	048H
	DB	04cH
	DB	048H
	DB	0ffH
	DB	050H
	DB	04cH
	DB	048H
	DB	0ffH
	DB	050H
	DB	04cH
	DB	050H
	DB	0ffH
	DB	050H
	DB	050H
	DB	050H
	DB	0ffH
	DB	050H
	DB	054H
	DB	050H
	DB	0ffH
	DB	058H
	DB	058H
	DB	058H
	DB	0ffH
	DB	040H
	DB	03cH
	DB	040H
	DB	0ffH
	DB	038H
	DB	03cH
	DB	038H
	DB	0ffH
	DB	040H
	DB	03cH
	DB	038H
	DB	0ffH
	DB	038H
	DB	038H
	DB	038H
	DB	0ffH
	DB	040H
	DB	03cH
	DB	040H
	DB	0ffH
	DB	038H
	DB	038H
	DB	038H
	DB	0ffH
	DB	038H
	DB	038H
	DB	038H
	DB	0ffH
	DB	038H
	DB	038H
	DB	038H
	DB	0ffH
	DB	028H
	DB	024H
	DB	028H
	DB	0ffH
	DB	028H
	DB	024H
	DB	020H
	DB	0ffH
	DB	028H
	DB	024H
	DB	028H
	DB	0ffH
	DB	020H
	DB	024H
	DB	020H
	DB	0ffH
	DB	048H
	DB	044H
	DB	040H
	DB	0ffH
	DB	048H
	DB	04cH
	DB	048H
	DB	0ffH
	DB	050H
	DB	04cH
	DB	048H
	DB	0ffH
	DB	050H
	DB	04cH
	DB	050H
	DB	0ffH
	DB	048H
	DB	04cH
	DB	050H
	DB	0ffH
	DB	050H
	DB	04cH
	DB	048H
	DB	0ffH
	DB	048H
	DB	04cH
	DB	048H
	DB	0ffH
	DB	050H
	DB	04cH
	DB	050H
	DB	0ffH
	DB	038H
	DB	038H
	DB	038H
	DB	0ffH
	DB	038H
	DB	038H
	DB	038H
	DB	0ffH
	DB	038H
	DB	03cH
	DB	038H
	DB	0ffH
	DB	040H
	DB	03cH
	DB	040H
	DB	0ffH
	DB	040H
	DB	03cH
	DB	038H
	DB	0ffH
	DB	040H
	DB	040H
	DB	040H
	DB	0ffH
	DB	040H
	DB	040H
	DB	040H
	DB	0ffH
	DB	040H
	DB	040H
	DB	040H
	DB	0ffH
	DB	040H
	DB	044H
	DB	040H
	DB	0ffH
	DB	040H
	DB	044H
	DB	040H
	DB	0ffH
	DB	048H
	DB	044H
	DB	048H
	DB	0ffH
	DB	048H
	DB	048H
	DB	048H
	DB	0ffH
	DB	048H
	DB	048H
	DB	048H
	DB	0ffH
	DB	048H
	DB	048H
	DB	048H
	DB	0ffH
	DB	048H
	DB	04cH
	DB	048H
	DB	0ffH
	DB	050H
	DB	04cH
	DB	050H
	DB	0ffH
	DB	048H
	DB	04cH
	DB	048H
	DB	0ffH
	DB	050H
	DB	050H
	DB	050H
	DB	0ffH
	DB	050H
	DB	054H
	DB	050H
	DB	0ffH
	DB	058H
	DB	058H
	DB	058H
	DB	0ffH
	DB	040H
	DB	03cH
	DB	040H
	DB	0ffH
	DB	038H
	DB	03cH
	DB	040H
	DB	0ffH
	DB	038H
	DB	03cH
	DB	038H
	DB	0ffH
	DB	038H
	DB	038H
	DB	038H
	DB	0ffH
	DB	038H
	DB	03cH
	DB	040H
	DB	0ffH
	DB	038H
	DB	038H
	DB	038H
	DB	0ffH
	DB	038H
	DB	038H
	DB	038H
	DB	0ffH
	DB	038H
	DB	038H
	DB	038H
	DB	0ffH
	DB	028H
	DB	024H
	DB	028H
	DB	0ffH
	DB	020H
	DB	024H
	DB	028H
	DB	0ffH
	DB	020H
	DB	024H
	DB	028H
	DB	0ffH
	DB	028H
	DB	024H
	DB	028H
	DB	0ffH
	DB	040H
	DB	044H
	DB	048H
	DB	0ffH
	DB	048H
	DB	04cH
	DB	048H
	DB	0ffH
	DB	050H
	DB	04cH
	DB	050H
	DB	0ffH
	DB	050H
	DB	04cH
	DB	050H
	DB	0ffH
	DB	048H
	DB	04cH
	DB	048H
	DB	0ffH
	DB	050H
	DB	04cH
	DB	050H
	DB	0ffH
	DB	048H
	DB	04cH
	DB	048H
	DB	0ffH
	DB	048H
	DB	04cH
	DB	050H
	DB	0ffH
	DB	038H
	DB	03cH
	DB	038H
	DB	0ffH
	DB	038H
	DB	038H
	DB	038H
	DB	0ffH
	DB	038H
	DB	03cH
	DB	038H
	DB	0ffH
	DB	038H
	DB	03cH
	DB	040H
	DB	0ffH
	DB	040H
	DB	03cH
	DB	040H
	DB	0ffH
	DB	040H
	DB	03cH
	DB	038H
	DB	0ffH
	DB	040H
	DB	040H
	DB	040H
	DB	0ffH
	DB	040H
	DB	040H
	DB	040H
	DB	0ffH
	DB	040H
	DB	040H
	DB	040H
	DB	0ffH
	DB	040H
	DB	044H
	DB	048H
	DB	0ffH
	DB	048H
	DB	044H
	DB	048H
	DB	0ffH
	DB	048H
	DB	048H
	DB	040H
	DB	0ffH
	DB	048H
	DB	048H
	DB	048H
	DB	0ffH
	DB	048H
	DB	048H
	DB	048H
	DB	0ffH
	DB	048H
	DB	048H
	DB	048H
	DB	0ffH
	DB	048H
	DB	04cH
	DB	050H
	DB	0ffH
	DB	050H
	DB	04cH
	DB	050H
	DB	0ffH
	DB	050H
	DB	050H
	DB	050H
	DB	0ffH
	DB	050H
	DB	050H
	DB	050H
	DB	0ffH
	DB	058H
	DB	058H
	DB	058H
	DB	0ffH
	DB	040H
	DB	03cH
	DB	040H
	DB	0ffH
	DB	040H
	DB	03cH
	DB	038H
	DB	0ffH
	DB	038H
	DB	03cH
	DB	038H
	DB	0ffH
	DB	038H
	DB	038H
	DB	038H
	DB	0ffH
	DB	040H
	DB	03cH
	DB	038H
	DB	0ffH
	DB	038H
	DB	038H
	DB	038H
	DB	0ffH
	DB	038H
	DB	038H
	DB	038H
	DB	0ffH
	DB	038H
	DB	038H
	DB	038H
	DB	0ffH
	DB	028H
	DB	028H
	DB	028H
	DB	0ffH
	DB	028H
	DB	024H
	DB	020H
	DB	0ffH
	DB	028H
	DB	024H
	DB	020H
	DB	0ffH
	DB	028H
	DB	024H
	DB	028H
	DB	0ffH
	DB	040H
	DB	044H
	DB	040H
	DB	0ffH
	DB	048H
	DB	04cH
	DB	048H
	DB	0ffH
	DB	050H
	DB	04cH
	DB	050H
	DB	0ffH
	DB	048H
	DB	04cH
	DB	048H
	DB	0ffH
	DB	048H
	DB	04cH
	DB	048H
	DB	0ffH
	DB	050H
	DB	04cH
	DB	050H
	DB	0ffH
	DB	050H
	DB	04cH
	DB	050H
	DB	0ffH
	DB	050H
	DB	04cH
	DB	048H
	DB	0ffH
	DB	038H
	DB	038H
	DB	038H
	DB	0ffH
	DB	038H
	DB	038H
	DB	038H
	DB	0ffH
	DB	038H
	DB	03cH
	DB	038H
	DB	0ffH
	DB	038H
	DB	03cH
	DB	038H
	DB	0ffH
	DB	040H
	DB	03cH
	DB	040H
	DB	0ffH
	DB	040H
	DB	040H
	DB	040H
	DB	0ffH
	DB	040H
	DB	040H
	DB	040H
	DB	0ffH
	DB	040H
	DB	040H
	DB	040H
	DB	0ffH
	DB	040H
	DB	044H
	DB	040H
	DB	0ffH
	DB	040H
	DB	044H
	DB	040H
	DB	0ffH
	DB	048H
	DB	044H
	DB	048H
	DB	0ffH
	DB	048H
	DB	044H
	DB	048H
	DB	0ffH
	DB	048H
	DB	048H
	DB	048H
	DB	0ffH
	DB	048H
	DB	048H
	DB	048H
	DB	0ffH
	DB	048H
	DB	04cH
	DB	048H
	DB	0ffH
	DB	050H
	DB	04cH
	DB	048H
	DB	0ffH
	DB	050H
	DB	04cH
	DB	050H
	DB	0ffH
	DB	050H
	DB	050H
	DB	050H
	DB	0ffH
	DB	050H
	DB	054H
	DB	050H
	DB	0ffH
	DB	058H
	DB	058H
	DB	058H
	DB	0ffH
	DB	040H
	DB	03cH
	DB	040H
	DB	0ffH
	DB	038H
	DB	03cH
	DB	038H
	DB	0ffH
	DB	038H
	DB	03cH
	DB	040H
	DB	0ffH
	DB	040H
	DB	038H
	DB	038H
	DB	0ffH
	DB	038H
	DB	03cH
	DB	038H
	DB	0ffH
	DB	038H
	DB	038H
	DB	038H
	DB	0ffH
	DB	038H
	DB	038H
	DB	038H
	DB	0ffH
	DB	038H
	DB	038H
	DB	038H
	DB	0ffH
	DB	028H
	DB	024H
	DB	028H
	DB	0ffH
	DB	020H
	DB	024H
	DB	028H
	DB	0ffH
	DB	028H
	DB	024H
	DB	028H
	DB	0ffH
	DB	028H
	DB	024H
	DB	028H
	DB	0ffH
	DB	040H
	DB	044H
	DB	040H
	DB	0ffH
	DB	048H
	DB	04cH
	DB	048H
	DB	0ffH
	DB	050H
	DB	04cH
	DB	050H
	DB	0ffH
	DB	050H
	DB	04cH
	DB	050H
	DB	0ffH
	DB	048H
	DB	04cH
	DB	048H
	DB	0ffH
	DB	048H
	DB	04cH
	DB	050H
	DB	0ffH
	DB	050H
	DB	04cH
	DB	048H
	DB	0ffH
	DB	048H
	DB	04cH
	DB	050H
	DB	0ffH
	DB	038H
	DB	038H
	DB	038H
	DB	0ffH
	DB	038H
	DB	038H
	DB	038H
	DB	0ffH
	DB	040H
	DB	038H
	DB	038H
	DB	0ffH
	DB	038H
	DB	03cH
	DB	038H
	DB	0ffH
	DB	040H
	DB	03cH
	DB	040H
	DB	0ffH
	DB	040H
	DB	03cH
	DB	040H
	DB	0ffH
	DB	040H
	DB	040H
	DB	040H
	DB	0ffH
	DB	040H
	DB	040H
	DB	040H
	DB	0ffH
	DB	040H
	DB	040H
	DB	040H
	DB	0ffH
	DB	040H
	DB	044H
	DB	040H
	DB	0ffH
	DB	048H
	DB	044H
	DB	048H
	DB	0ffH
	DB	048H
	DB	048H
	DB	048H
	DB	0ffH
	DB	048H
	DB	048H
	DB	048H
	DB	0ffH
	DB	048H
	DB	048H
	DB	048H
	DB	0ffH
	DB	048H
	DB	04cH
	DB	048H
	DB	0ffH
	DB	048H
	DB	04cH
	DB	050H
	DB	0ffH
	DB	050H
	DB	04cH
	DB	050H
	DB	0ffH
	DB	050H
	DB	050H
	DB	050H
	DB	0ffH
	DB	050H
	DB	054H
	DB	050H
	DB	0ffH
	DB	058H
	DB	058H
	DB	058H
	DB	0ffH
	DB	040H
	DB	03cH
	DB	040H
	DB	0ffH
	DB	038H
	DB	03cH
	DB	038H
	DB	0ffH
	DB	038H
	DB	03cH
	DB	040H
	DB	0ffH
	DB	038H
	DB	038H
	DB	038H
	DB	0ffH
	DB	038H
	DB	03cH
	DB	040H
	DB	0ffH
	DB	038H
	DB	038H
	DB	038H
	DB	0ffH
	DB	038H
	DB	038H
	DB	038H
	DB	0ffH
	DB	038H
	DB	038H
	DB	038H
	DB	0ffH
	DB	028H
	DB	028H
	DB	028H
	DB	0ffH
	DB	028H
	DB	024H
	DB	020H
	DB	0ffH
	DB	020H
	DB	024H
	DB	028H
	DB	0ffH
	DB	028H
	DB	024H
	DB	028H
	DB	0ffH
	DB	048H
	DB	044H
	DB	040H
	DB	0ffH
	DB	048H
	DB	04cH
	DB	048H
	DB	0ffH
	DB	048H
	DB	04cH
	DB	050H
	DB	0ffH
	DB	050H
	DB	04cH
	DB	050H
	DB	0ffH
	DB	050H
	DB	04cH
	DB	048H
	DB	0ffH
	DB	048H
	DB	04cH
	DB	048H
	DB	0ffH
	DB	050H
	DB	04cH
	DB	050H
	DB	0ffH
	DB	050H
	DB	04cH
	DB	048H
	DB	0ffH
	DB	038H
	DB	038H
	DB	038H
	DB	0ffH
	DB	038H
	DB	038H
	DB	038H
	DB	0ffH
	DB	038H
	DB	03cH
	DB	040H
	DB	0ffH
	DB	038H
	DB	03cH
	DB	038H
	DB	0ffH
	DB	040H
	DB	03cH
	DB	040H
	DB	0ffH
	DB	040H
	DB	040H
	DB	040H
	DB	0ffH
	DB	040H
	DB	040H
	DB	040H
	DB	0ffH
	DB	040H
	DB	040H
	DB	040H
	DB	0ffH
	DB	040H
	DB	044H
	DB	040H
	DB	0ffH
	DB	048H
	DB	044H
	DB	040H
	DB	0ffH
	DB	048H
	DB	044H
	DB	048H
	DB	0ffH
	DB	040H
	DB	048H
	DB	048H
	DB	0ffH
	DB	048H
	DB	048H
	DB	048H
	DB	0ffH
	DB	048H
	DB	048H
	DB	048H
	DB	0ffH
	DB	048H
	DB	04cH
	DB	048H
	DB	0ffH
	DB	050H
	DB	04cH
	DB	050H
	DB	0ffH
	DB	050H
	DB	04cH
	DB	048H
	DB	0ffH
	DB	050H
	DB	050H
	DB	050H
	DB	0ffH
	DB	050H
	DB	054H
	DB	050H
	DB	0ffH
	DB	058H
	DB	054H
	DB	058H
	DB	0ffH
	DB	040H
	DB	03cH
	DB	040H
	DB	0ffH
	DB	040H
	DB	03cH
	DB	038H
	DB	0ffH
	DB	038H
	DB	03cH
	DB	038H
	DB	0ffH
	DB	040H
	DB	038H
	DB	038H
	DB	0ffH
	DB	040H
	DB	03cH
	DB	038H
	DB	0ffH
	DB	038H
	DB	038H
	DB	038H
	DB	0ffH
	DB	038H
	DB	038H
	DB	038H
	DB	0ffH
	DB	038H
	DB	038H
	DB	038H
	DB	0ffH
	DB	028H
	DB	024H
	DB	028H
	DB	0ffH
	DB	028H
	DB	024H
	DB	028H
	DB	0ffH
	DB	028H
	DB	024H
	DB	020H
	DB	0ffH
	DB	020H
	DB	024H
	DB	028H
	DB	0ffH
	DB	040H
	DB	044H
	DB	040H
	DB	0ffH
	DB	048H
	DB	04cH
	DB	048H
	DB	0ffH
	DB	050H
	DB	04cH
	DB	050H
	DB	0ffH
	DB	050H
	DB	04cH
	DB	050H
	DB	0ffH
	DB	048H
	DB	04cH
	DB	048H
	DB	0ffH
	DB	048H
	DB	04cH
	DB	050H
	DB	0ffH
	DB	050H
	DB	04cH
	DB	050H
	DB	0ffH
	DB	048H
	DB	04cH
	DB	048H
	DB	0ffH
	DB	038H
	DB	03cH
	DB	038H
	DB	0ffH
	DB	038H
	DB	038H
	DB	038H
	DB	0ffH
	DB	038H
	DB	03cH
	DB	038H
	DB	0ffH
	DB	040H
	DB	03cH
	DB	040H
	DB	0ffH
	DB	038H
	DB	03cH
	DB	038H
	DB	0ffH
	DB	040H
	DB	03cH
	DB	040H
	DB	0ffH
	DB	040H
	DB	040H
	DB	040H
	DB	0ffH
	DB	040H
	DB	040H
	DB	040H
	DB	0ffH
	DB	040H
	DB	040H
	DB	040H
	DB	0ffH
	DB	040H
	DB	044H
	DB	048H
	DB	0ffH
	DB	048H
	DB	044H
	DB	048H
	DB	0ffH
	DB	048H
	DB	044H
	DB	048H
	DB	0ffH
	DB	048H
	DB	048H
	DB	048H
	DB	0ffH
	DB	048H
	DB	048H
	DB	048H
	DB	0ffH
	DB	048H
	DB	048H
	DB	048H
	DB	0ffH
	DB	048H
	DB	04cH
	DB	048H
	DB	0ffH
	DB	050H
	DB	04cH
	DB	050H
	DB	0ffH
	DB	050H
	DB	050H
	DB	050H
	DB	0ffH
	DB	050H
	DB	054H
	DB	050H
	DB	0ffH
	DB	058H
	DB	058H
	DB	058H
	DB	0ffH
	DB	040H
	DB	03cH
	DB	040H
	DB	0ffH
	DB	038H
	DB	03cH
	DB	038H
	DB	0ffH
	DB	038H
	DB	03cH
	DB	040H
	DB	0ffH
	DB	038H
	DB	03cH
	DB	038H
	DB	0ffH
	DB	038H
	DB	038H
	DB	038H
	DB	0ffH
	DB	038H
	DB	038H
	DB	038H
	DB	0ffH
	DB	038H
	DB	03cH
	DB	038H
	DB	0ffH
	DB	038H
	DB	038H
	DB	038H
	DB	0ffH
	DB	028H
	DB	024H
	DB	028H
	DB	0ffH
	DB	020H
	DB	024H
	DB	028H
	DB	0ffH
	DB	028H
	DB	024H
	DB	028H
	DB	0ffH
	DB	028H
	DB	024H
	DB	028H
	DB	0ffH
	DB	040H
	DB	044H
	DB	040H
	DB	0ffH
	DB	048H
	DB	04cH
	DB	048H
	DB	0ffH
	DB	050H
	DB	04cH
	DB	050H
	DB	0ffH
	DB	050H
	DB	04cH
	DB	048H
	DB	0ffH
	DB	048H
	DB	04cH
	DB	048H
	DB	0ffH
	DB	050H
	DB	04cH
	DB	050H
	DB	0ffH
	DB	048H
	DB	04cH
	DB	048H
	DB	0ffH
	DB	050H
	DB	04cH
	DB	050H
	DB	0ffH
	DB	038H
	DB	038H
	DB	038H
	DB	0ffH
	DB	038H
	DB	038H
	DB	038H
	DB	0ffH
	DB	038H
	DB	03cH
	DB	038H
	DB	0ffH
	DB	040H
	DB	03cH
	DB	038H
	DB	0ffH
	DB	040H
	DB	03cH
	DB	040H
	DB	0ffH
	DB	038H
	DB	03cH
	DB	040H
	DB	0ffH
	DB	040H
	DB	040H
	DB	040H
	DB	0ffH
	DB	040H
	DB	040H
	DB	040H
	DB	0ffH
	DB	040H
	DB	044H
	DB	040H
	DB	0ffH
	DB	040H
	DB	044H
	DB	040H
	DB	0ffH
	DB	048H
	DB	044H
	DB	048H
	DB	0ffH
	DB	048H
	DB	048H
	DB	040H
	DB	0ffH
	DB	048H
	DB	048H
	DB	048H
	DB	0ffH
	DB	048H
	DB	048H
	DB	048H
	DB	0ffH
	DB	048H
	DB	04cH
	DB	048H
	DB	0ffH
	DB	050H
	DB	04cH
	DB	050H
	DB	0ffH
	DB	050H
	DB	04cH
	DB	050H
	DB	0ffH
	DB	050H
	DB	050H
	DB	050H
	DB	0ffH
	DB	050H
	DB	054H
	DB	050H
	DB	0ffH
	DB	058H
	DB	058H
	DB	058H
	DB	0ffH
	DB	040H
	DB	03cH
	DB	040H
	DB	0ffH
	DB	038H
	DB	03cH
	DB	038H
	DB	0ffH
	DB	038H
	DB	03cH
	DB	040H
	DB	0ffH
	DB	038H
	DB	038H
	DB	038H
	DB	0ffH
	DB	040H
	DB	03cH
	DB	040H
	DB	0ffH
	DB	038H
	DB	038H
	DB	038H
	DB	0ffH
	DB	038H
	DB	038H
	DB	038H
	DB	0ffH
	DB	038H
	DB	038H
	DB	038H
	DB	0ffH
	DB	028H
	DB	028H
	DB	028H
	DB	0ffH
	DB	028H
	DB	024H
	DB	020H
	DB	0ffH
	DB	028H
	DB	024H
	DB	028H
	DB	0ffH
	DB	028H
	DB	024H
	DB	028H
	DB	0ffH
	DB	040H
	DB	044H
	DB	040H
	DB	0ffH
	DB	048H
	DB	04cH
	DB	048H
	DB	0ffH
	DB	050H
	DB	04cH
	DB	050H
	DB	0ffH
	DB	048H
	DB	04cH
	DB	050H
	DB	0ffH
	DB	050H
	DB	04cH
	DB	048H
	DB	0ffH
	DB	050H
	DB	04cH
	DB	050H
	DB	0ffH
	DB	048H
	DB	04cH
	DB	048H
	DB	0ffH
	DB	050H
	DB	04cH
	DB	050H
	DB	0ffH
	DB	038H
	DB	038H
	DB	038H
	DB	0ffH
	DB	038H
	DB	038H
	DB	038H
	DB	0ffH
	DB	038H
	DB	03cH
	DB	040H
	DB	0ffH
	DB	038H
	DB	03cH
	DB	038H
	DB	0ffH
	DB	040H
	DB	03cH
	DB	040H
	DB	0ffH
	DB	040H
	DB	040H
	DB	040H
	DB	0ffH
	DB	040H
	DB	040H
	DB	040H
	DB	0ffH
	DB	040H
	DB	040H
	DB	040H
	DB	0ffH
	DB	040H
	DB	040H
	DB	040H
	DB	0ffH
	DB	040H
	DB	044H
	DB	040H
	DB	0ffH
	DB	048H
	DB	044H
	DB	048H
	DB	0ffH
	DB	048H
	DB	048H
	DB	048H
	DB	0ffH
	DB	048H
	DB	048H
	DB	048H
	DB	0ffH
	DB	048H
	DB	048H
	DB	048H
	DB	0ffH
	DB	048H
	DB	04cH
	DB	048H
	DB	0ffH
	DB	048H
	DB	04cH
	DB	050H
	DB	0ffH
	DB	050H
	DB	04cH
	DB	050H
	DB	0ffH
	DB	050H
	DB	050H
	DB	050H
	DB	0ffH
	DB	050H
	DB	050H
	DB	050H
	DB	0ffH
	DB	058H
	DB	058H
	DB	058H
	DB	0ffH
	DB	040H
	DB	03cH
	DB	040H
	DB	0ffH
	DB	040H
	DB	03cH
	DB	038H
	DB	0ffH
	DB	038H
	DB	03cH
	DB	038H
	DB	0ffH
	DB	038H
	DB	038H
	DB	038H
	DB	0ffH
	DB	040H
	DB	03cH
	DB	038H
	DB	0ffH
	DB	038H
	DB	038H
	DB	038H
	DB	0ffH
	DB	038H
	DB	038H
	DB	038H
	DB	0ffH
	DB	038H
	DB	038H
	DB	038H
	DB	0ffH
	DB	028H
	DB	024H
	DB	028H
	DB	0ffH
	DB	020H
	DB	024H
	DB	028H
	DB	0ffH
	DB	020H
	DB	024H
	DB	020H
	DB	0ffH
	DB	028H
	DB	024H
	DB	028H
	DB	0ffH
	DB	048H
	DB	044H
	DB	040H
	DB	0ffH
	DB	048H
	DB	04cH
	DB	048H
	DB	0ffH
	DB	048H
	DB	04cH
	DB	050H
	DB	0ffH
	DB	050H
	DB	04cH
	DB	050H
	DB	0ffH
	DB	048H
	DB	04cH
	DB	048H
	DB	0ffH
	DB	048H
	DB	04cH
	DB	050H
	DB	0ffH
	DB	050H
	DB	04cH
	DB	050H
	DB	0ffH
	DB	048H
	DB	04cH
	DB	048H
	DB	0ffH
	DB	038H
	DB	038H
	DB	038H
	DB	0ffH
	DB	038H
	DB	038H
	DB	038H
	DB	0ffH
	DB	038H
	DB	03cH
	DB	038H
	DB	0ffH
	DB	040H
	DB	03cH
	DB	038H
	DB	0ffH
	DB	040H
	DB	03cH
	DB	040H
	DB	0ffH
	DB	040H
	DB	03cH
	DB	040H
	DB	0ffH
	DB	040H
	DB	040H
	DB	040H
	DB	0ffH
	DB	040H
	DB	040H
	DB	040H
	DB	0ffH
	DB	040H
	DB	044H
	DB	040H
	DB	0ffH
	DB	048H
	DB	044H
	DB	040H
	DB	0ffH
	DB	048H
	DB	044H
	DB	048H
	DB	0ffH
	DB	040H
	DB	044H
	DB	048H
	DB	0ffH
	DB	048H
	DB	048H
	DB	048H
	DB	0ffH
	DB	048H
	DB	048H
	DB	048H
	DB	0ffH
	DB	048H
	DB	048H
	DB	048H
	DB	0ffH
	DB	050H
	DB	04cH
	DB	048H
	DB	0ffH
	DB	048H
	DB	04cH
	DB	050H
	DB	0ffH
	DB	050H
	DB	050H
	DB	050H
	DB	0ffH
	DB	050H
	DB	054H
	DB	050H
	DB	0ffH
	DB	058H
	DB	058H
	DB	058H
	DB	0ffH
	DB	038H
	DB	03cH
	DB	040H
	DB	0ffH
	DB	040H
	DB	03cH
	DB	038H
	DB	0ffH
	DB	038H
	DB	03cH
	DB	040H
	DB	0ffH
	DB	038H
	DB	038H
	DB	038H
	DB	0ffH
	DB	038H
	DB	03cH
	DB	038H
	DB	0ffH
	DB	038H
	DB	038H
	DB	038H
	DB	0ffH
	DB	038H
	DB	038H
	DB	038H
	DB	0ffH
	DB	038H
	DB	038H
	DB	038H
	DB	0ffH
	DB	028H
	DB	024H
	DB	028H
	DB	0ffH
	DB	028H
	DB	024H
	DB	020H
	DB	0ffH
	DB	028H
	DB	024H
	DB	028H
	DB	0ffH
	DB	020H
	DB	024H
	DB	028H
	DB	0ffH
	DB	048H
	DB	044H
	DB	040H
	DB	0ffH
	DB	048H
	DB	04cH
	DB	048H
	DB	0ffH
	DB	050H
	DB	04cH
	DB	050H
	DB	0ffH
	DB	050H
	DB	04cH
	DB	048H
	DB	0ffH
	DB	048H
	DB	04cH
	DB	048H
	DB	0ffH
	DB	050H
	DB	04cH
	DB	050H
	DB	0ffH
	DB	050H
	DB	04cH
	DB	048H
	DB	0ffH
	DB	048H
	DB	04cH
	DB	050H
	DB	0ffH
	DB	038H
	DB	038H
	DB	038H
	DB	0ffH
	DB	038H
	DB	038H
	DB	038H
	DB	0ffH
	DB	038H
	DB	03cH
	DB	038H
	DB	0ffH
	DB	038H
	DB	03cH
	DB	040H
	DB	0ffH
	DB	040H
	DB	03cH
	DB	040H
	DB	0ffH
	DB	040H
	DB	03cH
	DB	038H
	DB	0ffH
	DB	040H
	DB	040H
	DB	040H
	DB	0ffH
	DB	040H
	DB	040H
	DB	040H
	DB	0ffH
	DB	040H
	DB	044H
	DB	040H
	DB	0ffH
	DB	040H
	DB	044H
	DB	048H
	DB	0ffH
	DB	048H
	DB	044H
	DB	048H
	DB	0ffH
	DB	048H
	DB	048H
	DB	048H
	DB	0ffH
	DB	048H
	DB	048H
	DB	048H
	DB	0ffH
	DB	048H
	DB	048H
	DB	048H
	DB	0ffH
	DB	048H
	DB	04cH
	DB	048H
	DB	0ffH
	DB	050H
	DB	04cH
	DB	050H
	DB	0ffH
	DB	050H
	DB	04cH
	DB	048H
	DB	0ffH
	DB	050H
	DB	050H
	DB	050H
	DB	0ffH
	DB	050H
	DB	054H
	DB	050H
	DB	0ffH
	DB	058H
	DB	058H
	DB	058H
	DB	0ffH
	DB	040H
	DB	03cH
	DB	040H
	DB	0ffH
	DB	038H
	DB	03cH
	DB	038H
	DB	0ffH
	DB	040H
	DB	03cH
	DB	040H
	DB	0ffH
	DB	038H
	DB	038H
	DB	038H
	DB	0ffH
	DB	038H
	DB	03cH
	DB	040H
	DB	0ffH
	DB	038H
	DB	038H
	DB	038H
	DB	0ffH
	DB	038H
	DB	038H
	DB	038H
	DB	0ffH
	DB	038H
	DB	038H
	DB	038H
	DB	0ffH
	DB	028H
	DB	028H
	DB	028H
	DB	0ffH
	DB	020H
	DB	024H
	DB	028H
	DB	0ffH
	DB	028H
	DB	024H
	DB	028H
	DB	0ffH
	DB	020H
	DB	024H
	DB	028H
	DB	0ffH
	DB	040H
	DB	044H
	DB	040H
	DB	0ffH
	DB	048H
	DB	04cH
	DB	048H
	DB	0ffH
	DB	050H
	DB	04cH
	DB	050H
	DB	0ffH
	DB	050H
	DB	04cH
	DB	050H
	DB	0ffH
	DB	048H
	DB	04cH
	DB	048H
	DB	0ffH
	DB	048H
	DB	04cH
	DB	048H
	DB	0ffH
	DB	050H
	DB	04cH
	DB	050H
	DB	0ffH
	DB	050H
	DB	04cH
	DB	050H
	DB	0ffH
	DB	038H
	DB	038H
	DB	038H
	DB	0ffH
	DB	038H
	DB	038H
	DB	038H
	DB	0ffH
	DB	040H
	DB	03cH
	DB	038H
	DB	0ffH
	DB	038H
	DB	03cH
	DB	038H
	DB	0ffH
	DB	038H
	DB	03cH
	DB	040H
	DB	0ffH
	DB	040H
	DB	040H
	DB	040H
	DB	0ffH
	DB	040H
	DB	040H
	DB	040H
	DB	0ffH
	DB	040H
	DB	040H
	DB	040H
	DB	0ffH
	DB	040H
	DB	040H
	DB	040H
	DB	0ffH
	DB	040H
	DB	044H
	DB	040H
	DB	0ffH
	DB	048H
	DB	044H
	DB	048H
	DB	0ffH
	DB	048H
	DB	044H
	DB	048H
	DB	0ffH
	DB	048H
	DB	048H
	DB	048H
	DB	0ffH
	DB	048H
	DB	048H
	DB	048H
	DB	0ffH
	DB	048H
	DB	04cH
	DB	048H
	DB	0ffH
	DB	048H
	DB	04cH
	DB	050H
	DB	0ffH
	DB	050H
	DB	04cH
	DB	050H
	DB	0ffH
	DB	050H
	DB	050H
	DB	050H
	DB	0ffH
	DB	050H
	DB	054H
	DB	050H
	DB	0ffH
	DB	058H
	DB	054H
	DB	058H
	DB	0ffH
	DB	040H
	DB	03cH
	DB	040H
	DB	0ffH
	DB	038H
	DB	03cH
	DB	038H
	DB	0ffH
	DB	038H
	DB	03cH
	DB	038H
	DB	0ffH
	DB	040H
	DB	038H
	DB	038H
	DB	0ffH
	DB	038H
	DB	03cH
	DB	038H
	DB	0ffH
	DB	038H
	DB	038H
	DB	038H
	DB	0ffH
	DB	038H
	DB	038H
	DB	038H
	DB	0ffH
	DB	038H
	DB	038H
	DB	038H
	DB	0ffH
	DB	028H
	DB	024H
	DB	028H
	DB	0ffH
	DB	028H
	DB	024H
	DB	028H
	DB	0ffH
	DB	028H
	DB	024H
	DB	020H
	DB	0ffH
	DB	028H
	DB	024H
	DB	028H
	DB	0ffH
	DB	040H
	DB	044H
	DB	048H
	DB	0ffH
	DB	048H
	DB	04cH
	DB	048H
	DB	0ffH
	DB	050H
	DB	04cH
	DB	048H
	DB	0ffH
	DB	050H
	DB	04cH
	DB	050H
	DB	0ffH
	DB	048H
	DB	04cH
	DB	050H
	DB	0ffH
	DB	048H
	DB	04cH
	DB	048H
	DB	0ffH
	DB	050H
	DB	04cH
	DB	048H
	DB	0ffH
	DB	050H
	DB	04cH
	DB	050H
	DB	0ffH
	DB	038H
	DB	03cH
	DB	038H
	DB	0ffH
	DB	038H
	DB	038H
	DB	038H
	DB	0ffH
	DB	038H
	DB	038H
	DB	038H
	DB	0ffH
	DB	040H
	DB	03cH
	DB	040H
	DB	0ffH
	DB	040H
	DB	03cH
	DB	040H
	DB	0ffH
	DB	040H
	DB	03cH
	DB	040H
	DB	0ffH
	DB	040H
	DB	040H
	DB	040H
	DB	0ffH
	DB	040H
	DB	040H
	DB	040H
	DB	0ffH
	DB	040H
	DB	040H
	DB	040H
	DB	0ffH
	DB	040H
	DB	044H
	DB	040H
	DB	0ffH
	DB	048H
	DB	044H
	DB	048H
	DB	0ffH
	DB	048H
	DB	048H
	DB	048H
	DB	0ffH
	DB	048H
	DB	048H
	DB	048H
	DB	0ffH
	DB	048H
	DB	048H
	DB	048H
	DB	0ffH
	DB	048H
	DB	04cH
	DB	048H
	DB	0ffH
	DB	050H
	DB	04cH
	DB	048H
	DB	0ffH
	DB	050H
	DB	04cH
	DB	050H
	DB	0ffH
	DB	050H
	DB	050H
	DB	050H
	DB	0ffH
	DB	050H
	DB	054H
	DB	050H
	DB	0ffH
	DB	058H
	DB	058H
	DB	058H
	DB	0ffH
	DB	040H
	DB	03cH
	DB	040H
	DB	0ffH
	DB	038H
	DB	03cH
	DB	038H
	DB	0ffH
	DB	038H
	DB	03cH
	DB	040H
	DB	0ffH
	DB	040H
	DB	038H
	DB	038H
	DB	0ffH
	DB	038H
	DB	03cH
	DB	038H
	DB	0ffH
	DB	038H
	DB	038H
	DB	038H
	DB	0ffH
	DB	038H
	DB	038H
	DB	038H
	DB	0ffH
	DB	038H
	DB	038H
	DB	038H
	DB	0ffH
	DB	028H
	DB	028H
	DB	028H
	DB	0ffH
	DB	020H
	DB	024H
	DB	020H
	DB	0ffH
	DB	028H
	DB	024H
	DB	028H
	DB	0ffH
	DB	028H
	DB	024H
	DB	020H
	DB	0ffH
	DB	040H
	DB	044H
	DB	040H
	DB	0ffH
	DB	048H
	DB	04cH
	DB	048H
	DB	0ffH
	DB	050H
	DB	04cH
	DB	050H
	DB	0ffH
	DB	050H
	DB	04cH
	DB	050H
	DB	0ffH
	DB	048H
	DB	04cH
	DB	048H
	DB	0ffH
	DB	050H
	DB	04cH
	DB	050H
	DB	0ffH
	DB	048H
	DB	04cH
	DB	050H
	DB	0ffH
	DB	048H
	DB	04cH
	DB	048H
	DB	0ffH
	DB	038H
	DB	038H
	DB	038H
	DB	0ffH
	DB	038H
	DB	038H
	DB	038H
	DB	0ffH
	DB	038H
	DB	03cH
	DB	038H
	DB	0ffH
	DB	038H
	DB	03cH
	DB	038H
	DB	0ffH
	DB	040H
	DB	03cH
	DB	040H
	DB	0ffH
	DB	040H
	DB	03cH
	DB	038H
	DB	0ffH
	DB	040H
	DB	040H
	DB	040H
	DB	0ffH
	DB	040H
	DB	040H
	DB	040H
	DB	0ffH
	DB	040H
	DB	044H
	DB	040H
	DB	0ffH
	DB	040H
	DB	044H
	DB	040H
	DB	0ffH
	DB	048H
	DB	044H
	DB	048H
	DB	0ffH
	DB	048H
	DB	048H
	DB	048H
	DB	0ffH
	DB	048H
	DB	048H
	DB	048H
	DB	0ffH
	DB	048H
	DB	048H
	DB	048H
	DB	0ffH
	DB	048H
	DB	04cH
	DB	048H
	DB	0ffH
	DB	050H
	DB	04cH
	DB	050H
	DB	0ffH
	DB	048H
	DB	04cH
	DB	050H
	DB	0ffH
	DB	050H
	DB	050H
	DB	050H
	DB	0ffH
	DB	050H
	DB	054H
	DB	050H
	DB	0ffH
	DB	058H
	DB	058H
	DB	058H
	DB	0ffH
	DB	040H
	DB	03cH
	DB	040H
	DB	0ffH
	DB	040H
	DB	03cH
	DB	038H
	DB	0ffH
	DB	038H
	DB	03cH
	DB	040H
	DB	0ffH
	DB	038H
	DB	03cH
	DB	038H
	DB	0ffH
	DB	040H
	DB	038H
	DB	040H
	DB	0ffH
	DB	038H
	DB	038H
	DB	038H
	DB	0ffH
	DB	038H
	DB	03cH
	DB	038H
	DB	0ffH
	DB	038H
	DB	038H
	DB	038H
	DB	0ffH
	DB	028H
	DB	024H
	DB	028H
	DB	0ffH
	DB	028H
	DB	024H
	DB	028H
	DB	0ffH
	DB	020H
	DB	024H
	DB	028H
	DB	0ffH
	DB	028H
	DB	024H
	DB	028H
	DB	0ffH
	DB	048H
	DB	044H
	DB	040H
	DB	0ffH
	DB	048H
	DB	04cH
	DB	048H
	DB	0ffH
	DB	048H
	DB	04cH
	DB	050H
	DB	0ffH
	DB	050H
	DB	04cH
	DB	050H
	DB	0ffH
	DB	048H
	DB	04cH
	DB	048H
	DB	0ffH
	DB	050H
	DB	04cH
	DB	048H
	DB	0ffH
	DB	050H
	DB	04cH
	DB	050H
	DB	0ffH
	DB	048H
	DB	04cH
	DB	050H
	DB	0ffH
	DB	038H
	DB	038H
	DB	038H
	DB	0ffH
	DB	038H
	DB	038H
	DB	038H
	DB	0ffH
	DB	038H
	DB	03cH
	DB	038H
	DB	0ffH
	DB	038H
	DB	03cH
	DB	040H
	DB	0ffH
	DB	040H
	DB	03cH
	DB	040H
	DB	0ffH
	DB	040H
	DB	040H
	DB	040H
	DB	0ffH
	DB	040H
	DB	040H
	DB	040H
	DB	0ffH
	DB	040H
	DB	040H
	DB	040H
	DB	0ffH
	DB	040H
	DB	044H
	DB	040H
	DB	0ffH
	DB	048H
	DB	044H
	DB	040H
	DB	0ffH
	DB	048H
	DB	044H
	DB	048H
	DB	0ffH
	DB	048H
	DB	044H
	DB	048H
	DB	0ffH
	DB	048H
	DB	048H
	DB	048H
	DB	0ffH
	DB	048H
	DB	048H
	DB	048H
	DB	0ffH
	DB	048H
	DB	048H
	DB	048H
	DB	0ffH
	DB	048H
	DB	04cH
	DB	048H
	DB	0ffH
	DB	050H
	DB	04cH
	DB	050H
	DB	0ffH
	DB	050H
	DB	050H
	DB	050H
	DB	0ffH
	DB	050H
	DB	050H
	DB	050H
	DB	0ffH
	DB	058H
	DB	058H
	DB	058H
	DB	0ffH
	DB	040H
	DB	03cH
	DB	040H
	DB	0ffH
	DB	038H
	DB	03cH
	DB	038H
	DB	0ffH
	DB	038H
	DB	03cH
	DB	038H
	DB	0ffH
	DB	038H
	DB	038H
	DB	038H
	DB	0ffH
	DB	038H
	DB	03cH
	DB	038H
	DB	0ffH
	DB	038H
	DB	038H
	DB	038H
	DB	0ffH
	DB	038H
	DB	038H
	DB	038H
	DB	0ffH
	DB	038H
	DB	038H
	DB	038H
	DB	0ffH
	DB	028H
	DB	024H
	DB	028H
	DB	0ffH
	DB	028H
	DB	024H
	DB	028H
	DB	0ffH
	DB	028H
	DB	024H
	DB	028H
	DB	0ffH
	DB	020H
	DB	024H
	DB	028H
	DB	0ffH
	DB	040H
	DB	044H
	DB	040H
	DB	0ffH
	DB	048H
	DB	04cH
	DB	048H
	DB	0ffH
	DB	050H
	DB	04cH
	DB	050H
	DB	0ffH
	DB	050H
	DB	04cH
	DB	050H
	DB	0ffH
	DB	048H
	DB	04cH
	DB	048H
	DB	0ffH
	DB	048H
	DB	04cH
	DB	048H
	DB	0ffH
	DB	050H
	DB	04cH
	DB	050H
	DB	0ffH
	DB	050H
	DB	04cH
	DB	048H
	DB	0ffH
	DB	038H
	DB	038H
	DB	038H
	DB	0ffH
	DB	038H
	DB	038H
	DB	038H
	DB	0ffH
	DB	040H
	DB	03cH
	DB	038H
	DB	0ffH
	DB	038H
	DB	03cH
	DB	038H
	DB	0ffH
	DB	040H
	DB	03cH
	DB	040H
	DB	0ffH
	DB	040H
	DB	03cH
	DB	040H
	DB	0ffH
	DB	040H
	DB	040H
	DB	040H
	DB	0ffH
	DB	040H
	DB	040H
	DB	040H
	DB	0ffH
	DB	040H
	DB	040H
	DB	040H
	DB	0ffH
	DB	040H
	DB	044H
	DB	048H
	DB	0ffH
	DB	040H
	DB	044H
	DB	040H
	DB	0ffH
	DB	048H
	DB	048H
	DB	048H
	DB	0ffH
	DB	048H
	DB	048H
	DB	048H
	DB	0ffH
	DB	048H
	DB	048H
	DB	048H
	DB	0ffH
	DB	048H
	DB	04cH
	DB	048H
	DB	0ffH
	DB	050H
	DB	04cH
	DB	048H
	DB	0ffH
	DB	050H
	DB	04cH
	DB	050H
	DB	0ffH
	DB	050H
	DB	050H
	DB	050H
	DB	0ffH
	DB	050H
	DB	054H
	DB	050H
	DB	0ffH
	DB	058H
	DB	058H
	DB	058H
	DB	0ffH
	DB	040H
	DB	03cH
	DB	040H
	DB	0ffH
	DB	038H
	DB	03cH
	DB	038H
	DB	0ffH
	DB	040H
	DB	03cH
	DB	040H
	DB	0ffH
	DB	038H
	DB	038H
	DB	038H
	DB	0ffH
	DB	038H
	DB	03cH
	DB	038H
	DB	0ffH
	DB	038H
	DB	038H
	DB	040H
	DB	0ffH
	DB	038H
	DB	038H
	DB	038H
	DB	0ffH
	DB	038H
	DB	038H
	DB	038H
	DB	0ffH
	DB	028H
	DB	028H
	DB	028H
	DB	0ffH
	DB	020H
	DB	024H
	DB	020H
	DB	0ffH
	DB	028H
	DB	024H
	DB	020H
	DB	0ffH
	DB	028H
	DB	024H
	DB	028H
	DB	0ffH
	DB	040H
	DB	044H
	DB	048H
	DB	0ffH
	DB	048H
	DB	04cH
	DB	048H
	DB	0ffH
	DB	050H
	DB	04cH
	DB	048H
	DB	0ffH
	DB	050H
	DB	04cH
	DB	050H
	DB	0ffH
	DB	048H
	DB	04cH
	DB	050H
	DB	0ffH
	DB	048H
	DB	04cH
	DB	048H
	DB	0ffH
	DB	050H
	DB	04cH
	DB	050H
	DB	0ffH
	DB	050H
	DB	04cH
	DB	050H
	DB	0ffH
	DB	038H
	DB	03cH
	DB	038H
	DB	0ffH
	DB	038H
	DB	038H
	DB	038H
	DB	0ffH
	DB	038H
	DB	038H
	DB	038H
	DB	0ffH
	DB	038H
	DB	03cH
	DB	038H
	DB	0ffH
	DB	040H
	DB	03cH
	DB	040H
	DB	0ffH
	DB	040H
	DB	040H
	DB	040H
	DB	0ffH
	DB	040H
	DB	040H
	DB	040H
	DB	0ffH
	DB	040H
	DB	040H
	DB	040H
	DB	0ffH
	DB	040H
	DB	044H
	DB	040H
	DB	0ffH
	DB	040H
	DB	044H
	DB	040H
	DB	0ffH
	DB	048H
	DB	044H
	DB	048H
	DB	0ffH
	DB	048H
	DB	048H
	DB	048H
	DB	0ffH
	DB	048H
	DB	048H
	DB	048H
	DB	0ffH
	DB	048H
	DB	048H
	DB	048H
	DB	0ffH
	DB	048H
	DB	04cH
	DB	048H
	DB	0ffH
	DB	050H
	DB	04cH
	DB	050H
	DB	0ffH
	DB	050H
	DB	04cH
	DB	050H
	DB	0ffH
	DB	050H
	DB	050H
	DB	050H
	DB	0ffH
	DB	050H
	DB	054H
	DB	050H
	DB	0ffH
	DB	058H
	DB	058H
	DB	058H
	DB	0ffH
	DB	040H
	DB	03cH
	DB	040H
	DB	0ffH
	DB	038H
	DB	03cH
	DB	038H
	DB	0ffH
	DB	040H
	DB	03cH
	DB	040H
	DB	0ffH
	DB	038H
	DB	038H
	DB	038H
	DB	0ffH
	DB	040H
	DB	03cH
	DB	038H
	DB	0ffH
	DB	038H
	DB	038H
	DB	038H
	DB	0ffH
	DB	038H
	DB	038H
	DB	038H
	DB	0ffH
	DB	038H
	DB	038H
	DB	038H
	DB	0ffH
	DB	028H
	DB	024H
	DB	028H
	DB	0ffH
	DB	028H
	DB	024H
	DB	028H
	DB	0ffH
	DB	028H
	DB	024H
	DB	028H
	DB	0ffH
	DB	028H
	DB	024H
	DB	020H
	DB	0ffH
	DB	040H
	DB	044H
	DB	040H
	DB	0ffH
	DB	048H
	DB	04cH
	DB	048H
	DB	0ffH
	DB	050H
	DB	04cH
	DB	050H
	DB	0ffH
	DB	050H
	DB	04cH
	DB	050H
	DB	0ffH
	DB	048H
	DB	04cH
	DB	048H
	DB	0ffH
	DB	050H
	DB	04cH
	DB	048H
	DB	0ffH
	DB	048H
	DB	04cH
	DB	050H
	DB	0ffH
	DB	048H
	DB	04cH
	DB	048H
	DB	0ffH
	DB	038H
	DB	038H
	DB	038H
	DB	0ffH
	DB	038H
	DB	038H
	DB	038H
	DB	0ffH
	DB	038H
	DB	03cH
	DB	040H
	DB	0ffH
	DB	040H
	DB	03cH
	DB	038H
	DB	0ffH
	DB	038H
	DB	03cH
	DB	040H
	DB	0ffH
	DB	040H
	DB	03cH
	DB	040H
	DB	0ffH
	DB	040H
	DB	040H
	DB	040H
	DB	0ffH
	DB	040H
	DB	040H
	DB	040H
	DB	0ffH
	DB	040H
	DB	040H
	DB	040H
	DB	0ffH
	DB	048H
	DB	044H
	DB	040H
	DB	0ffH
	DB	048H
	DB	044H
	DB	048H
	DB	0ffH
	DB	048H
	DB	044H
	DB	048H
	DB	0ffH
	DB	048H
	DB	048H
	DB	048H
	DB	0ffH
	DB	048H
	DB	048H
	DB	048H
	DB	0ffH
	DB	048H
	DB	048H
	DB	048H
	DB	0ffH
	DB	048H
	DB	04cH
	DB	050H
	DB	0ffH
	DB	050H
	DB	04cH
	DB	048H
	DB	0ffH
	DB	050H
	DB	050H
	DB	050H
	DB	0ffH
	DB	050H
	DB	054H
	DB	050H
	DB	0ffH
	DB	058H
	DB	054H
	DB	058H
	DB	0ffH
	DB	040H
	DB	03cH
	DB	040H
	DB	0ffH
	DB	038H
	DB	03cH
	DB	038H
	DB	0ffH
	DB	038H
	DB	03cH
	DB	038H
	DB	0ffH
	DB	038H
	DB	038H
	DB	040H
	DB	0ffH
	DB	038H
	DB	03cH
	DB	038H
	DB	0ffH
	DB	038H
	DB	038H
	DB	038H
	DB	0ffH
	DB	038H
	DB	038H
	DB	038H
	DB	0ffH
	DB	038H
	DB	038H
	DB	038H
	DB	0ffH
	DB	028H
	DB	024H
	DB	028H
	DB	0ffH
	DB	020H
	DB	024H
	DB	020H
	DB	0ffH
	DB	020H
	DB	024H
	DB	028H
	DB	0ffH
	DB	028H
	DB	024H
	DB	028H
	DB	0ffH
	DB	048H
	DB	044H
	DB	040H
	DB	0ffH
	DB	048H
	DB	048H
	DB	048H
	DB	0ffH
	DB	048H
	DB	04cH
	DB	050H
	DB	0ffH
	DB	050H
	DB	04cH
	DB	050H
	DB	0ffH
	DB	048H
	DB	04cH
	DB	048H
	DB	0ffH
	DB	050H
	DB	04cH
	DB	050H
	DB	0ffH
	DB	050H
	DB	04cH
	DB	048H
	DB	0ffH
	DB	048H
	DB	04cH
	DB	050H
	DB	0ffH
	DB	038H
	DB	038H
	DB	038H
	DB	0ffH
	DB	038H
	DB	038H
	DB	038H
	DB	0ffH
	DB	040H
	DB	03cH
	DB	038H
	DB	0ffH
	DB	038H
	DB	03cH
	DB	038H
	DB	0ffH
	DB	040H
	DB	03cH
	DB	040H
	DB	0ffH
	DB	040H
	DB	040H
	DB	040H
	DB	0ffH
	DB	040H
	DB	040H
	DB	040H
	DB	0ffH
	DB	040H
	DB	040H
	DB	040H
	DB	0ffH
	DB	040H
	DB	044H
	DB	040H
	DB	0ffH
	DB	040H
	DB	044H
	DB	040H
	DB	0ffH
	DB	048H
	DB	044H
	DB	048H
	DB	0ffH
	DB	040H
	DB	048H
	DB	048H
	DB	0ffH
	DB	048H
	DB	048H
	DB	048H
	DB	0ffH
	DB	048H
	DB	048H
	DB	048H
	DB	0ffH
	DB	048H
	DB	04cH
	DB	048H
	DB	0ffH
	DB	048H
	DB	04cH
	DB	048H
	DB	0ffH
	DB	050H
	DB	04cH
	DB	050H
	DB	0ffH
	DB	050H
	DB	050H
	DB	050H
	DB	0ffH
	DB	050H
	DB	054H
	DB	050H
	DB	0ffH
	DB	058H
	DB	058H
	DB	058H
	DB	0ffH
	DB	040H
	DB	03cH
	DB	040H
	DB	0ffH
	DB	038H
	DB	03cH
	DB	038H
	DB	0ffH
	DB	040H
	DB	03cH
	DB	038H
	DB	0ffH
	DB	038H
	DB	038H
	DB	038H
	DB	0ffH
	DB	038H
	DB	03cH
	DB	040H
	DB	0ffH
	DB	038H
	DB	038H
	DB	038H
	DB	0ffH
	DB	038H
	DB	038H
	DB	038H
	DB	0ffH
	DB	038H
	DB	038H
	DB	038H
	DB	0ffH
	DB	028H
	DB	028H
	DB	028H
	DB	0ffH
	DB	028H
	DB	024H
	DB	028H
	DB	0ffH
	DB	028H
	DB	024H
	DB	028H
	DB	0ffH
	DB	020H
	DB	024H
	DB	028H
	DB	0ffH
	DB	040H
	DB	044H
	DB	040H
	DB	0ffH
	DB	048H
	DB	04cH
	DB	048H
	DB	0ffH
	DB	050H
	DB	04cH
	DB	050H
	DB	0ffH
	DB	050H
	DB	04cH
	DB	048H
	DB	0ffH
	DB	048H
	DB	04cH
	DB	048H
	DB	0ffH
	DB	048H
	DB	04cH
	DB	050H
	DB	0ffH
	DB	050H
	DB	04cH
	DB	050H
	DB	0ffH
	DB	050H
	DB	04cH
	DB	048H
	DB	0ffH
	DB	038H
	DB	038H
	DB	038H
	DB	0ffH
	DB	038H
	DB	038H
	DB	038H
	DB	0ffH
	DB	038H
	DB	03cH
	DB	038H
	DB	0ffH
	DB	038H
	DB	03cH
	DB	040H
	DB	0ffH
	DB	040H
	DB	03cH
	DB	038H
	DB	0ffH
	DB	040H
	DB	03cH
	DB	040H
	DB	0ffH
	DB	040H
	DB	040H
	DB	040H
	DB	0ffH
	DB	040H
	DB	040H
	DB	040H
	DB	0ffH
	DB	040H
	DB	040H
	DB	040H
	DB	0ffH
	DB	040H
	DB	044H
	DB	048H
	DB	0ffH
	DB	048H
	DB	044H
	DB	048H
	DB	0ffH
	DB	048H
	DB	048H
	DB	040H
	DB	0ffH
	DB	048H
	DB	048H
	DB	048H
	DB	0ffH
	DB	048H
	DB	048H
	DB	048H
	DB	0ffH
	DB	048H
	DB	04cH
	DB	048H
	DB	0ffH
	DB	050H
	DB	04cH
	DB	050H
	DB	0ffH
	DB	050H
	DB	04cH
	DB	050H
	DB	0ffH
	DB	050H
	DB	050H
	DB	050H
	DB	0ffH
	DB	050H
	DB	054H
	DB	050H
	DB	0ffH
	DB	058H
	DB	058H
	DB	058H
	DB	0ffH
	DB	040H
	DB	03cH
	DB	040H
	DB	0ffH
	DB	038H
	DB	03cH
	DB	040H
	DB	0ffH
	DB	040H
	DB	03cH
	DB	038H
	DB	0ffH
	DB	038H
	DB	038H
	DB	038H
	DB	0ffH
	DB	040H
	DB	03cH
	DB	038H
	DB	0ffH
	DB	038H
	DB	038H
	DB	038H
	DB	0ffH
	DB	038H
	DB	038H
	DB	038H
	DB	0ffH
	DB	038H
	DB	038H
	DB	038H
	DB	0ffH
	DB	028H
	DB	028H
	DB	028H
	DB	0ffH
	DB	028H
	DB	024H
	DB	020H
	DB	0ffH
	DB	028H
	DB	024H
	DB	020H
	DB	0ffH
	DB	028H
	DB	024H
	DB	028H
	DB	0ffH
	DB	040H
	DB	044H
	DB	048H
	DB	0ffH
	DB	048H
	DB	04cH
	DB	048H
	DB	0ffH
	DB	050H
	DB	04cH
	DB	050H
	DB	0ffH
	DB	050H
	DB	04cH
	DB	050H
	DB	0ffH
	DB	048H
	DB	04cH
	DB	048H
	DB	0ffH
	DB	048H
	DB	04cH
	DB	048H
	DB	0ffH
	DB	050H
	DB	04cH
	DB	050H
	DB	0ffH
	DB	048H
	DB	04cH
	DB	050H
	DB	0ffH
	DB	038H
	DB	03cH
	DB	038H
	DB	0ffH
	DB	038H
	DB	038H
	DB	038H
	DB	0ffH
	DB	038H
	DB	038H
	DB	038H
	DB	0ffH
	DB	038H
	DB	03cH
	DB	040H
	DB	0ffH
	DB	040H
	DB	03cH
	DB	040H
	DB	0ffH
	DB	040H
	DB	03cH
	DB	038H
	DB	0ffH
	DB	040H
	DB	040H
	DB	040H
	DB	0ffH
	DB	040H
	DB	040H
	DB	040H
	DB	0ffH
	DB	040H
	DB	044H
	DB	040H
	DB	0ffH
	DB	040H
	DB	044H
	DB	040H
	DB	0ffH
	DB	048H
	DB	044H
	DB	048H
	DB	0ffH
	DB	048H
	DB	044H
	DB	048H
	DB	0ffH
	DB	048H
	DB	048H
	DB	048H
	DB	0ffH
	DB	048H
	DB	048H
	DB	048H
	DB	0ffH
	DB	048H
	DB	04cH
	DB	048H
	DB	0ffH
	DB	050H
	DB	04cH
	DB	050H
	DB	0ffH
	DB	048H
	DB	04cH
	DB	050H
	DB	0ffH
	DB	050H
	DB	050H
	DB	050H
	DB	0ffH
	DB	050H
	DB	050H
	DB	050H
	DB	0ffH
	DB	058H
	DB	058H
	DB	058H
	DB	0ffH
	DB	040H
	DB	03cH
	DB	040H
	DB	0ffH
	DB	038H
	DB	03cH
	DB	038H
	DB	0ffH
	DB	038H
	DB	03cH
	DB	040H
	DB	0ffH
	DB	038H
	DB	038H
	DB	038H
	DB	0ffH
	DB	038H
	DB	03cH
	DB	038H
	DB	0ffH
	DB	038H
	DB	038H
	DB	038H
	DB	0ffH
	DB	038H
	DB	038H
	DB	038H
	DB	0ffH
	DB	038H
	DB	038H
	DB	038H
	DB	0ffH
	DB	028H
	DB	024H
	DB	028H
	DB	0ffH
	DB	020H
	DB	024H
	DB	028H
	DB	0ffH
	DB	028H
	DB	024H
	DB	028H
	DB	0ffH
	DB	028H
	DB	024H
	DB	020H
	DB	0ffH
	DB	040H
	DB	044H
	DB	040H
	DB	0ffH
	DB	048H
	DB	04cH
	DB	048H
	DB	0ffH
	DB	050H
	DB	04cH
	DB	050H
	DB	0ffH
	DB	050H
	DB	04cH
	DB	050H
	DB	0ffH
	DB	048H
	DB	04cH
	DB	048H
	DB	0ffH
	DB	050H
	DB	04cH
	DB	050H
	DB	0ffH
	DB	050H
	DB	04cH
	DB	048H
	DB	0ffH
	DB	048H
	DB	04cH
	DB	048H
	DB	0ffH
	DB	038H
	DB	038H
	DB	038H
	DB	0ffH
	DB	038H
	DB	038H
	DB	038H
	DB	0ffH
	DB	040H
	DB	03cH
	DB	038H
	DB	0ffH
	DB	038H
	DB	03cH
	DB	038H
	DB	0ffH
	DB	040H
	DB	03cH
	DB	040H
	DB	0ffH
	DB	040H
	DB	040H
	DB	040H
	DB	0ffH
	DB	040H
	DB	040H
	DB	040H
	DB	0ffH
	DB	040H
	DB	040H
	DB	040H
	DB	0ffH
	DB	040H
	DB	040H
	DB	040H
	DB	0ffH
	DB	040H
	DB	044H
	DB	040H
	DB	0ffH
	DB	048H
	DB	044H
	DB	048H
	DB	0ffH
	DB	048H
	DB	048H
	DB	048H
	DB	0ffH
	DB	048H
	DB	048H
	DB	048H
	DB	0ffH
	DB	048H
	DB	048H
	DB	048H
	DB	0ffH
	DB	048H
	DB	048H
	DB	048H
	DB	0ffH
	DB	050H
	DB	04cH
	DB	048H
	DB	0ffH
	DB	050H
	DB	04cH
	DB	050H
	DB	0ffH
	DB	050H
	DB	050H
	DB	050H
	DB	0ffH
	DB	050H
	DB	054H
	DB	050H
	DB	0ffH
	DB	058H
	DB	058H
	DB	058H
	DB	0ffH
	DB	040H
	DB	03cH
	DB	038H
	DB	0ffH
	DB	038H
	DB	03cH
	DB	038H
	DB	0ffH
	DB	040H
	DB	03cH
	DB	040H
	DB	0ffH
	DB	038H
	DB	03cH
	DB	038H
	DB	0ffH
	DB	038H
	DB	038H
	DB	040H
	DB	0ffH
	DB	038H
	DB	038H
	DB	038H
	DB	0ffH
	DB	038H
	DB	03cH
	DB	038H
	DB	0ffH
	DB	038H
	DB	038H
	DB	038H
	DB	0ffH
	DB	028H
	DB	024H
	DB	028H
	DB	0ffH
	DB	028H
	DB	024H
	DB	020H
	DB	0ffH
	DB	020H
	DB	024H
	DB	028H
	DB	0ffH
	DB	028H
	DB	024H
	DB	028H
	DB	0ffH
	DB	048H
	DB	044H
	DB	040H
	DB	0ffH
	DB	048H
	DB	04cH
	DB	048H
	DB	0ffH
	DB	048H
	DB	04cH
	DB	048H
	DB	0ffH
	DB	050H
	DB	04cH
	DB	050H
	DB	0ffH
	DB	048H
	DB	04cH
	DB	048H
	DB	0ffH
	DB	050H
	DB	04cH
	DB	050H
	DB	0ffH
	DB	048H
	DB	04cH
	DB	050H
	DB	0ffH
	DB	050H
	DB	04cH
	DB	048H
	DB	0ffH
	DB	038H
	DB	038H
	DB	038H
	DB	0ffH
	DB	038H
	DB	038H
	DB	038H
	DB	0ffH
	DB	038H
	DB	03cH
	DB	040H
	DB	0ffH
	DB	038H
	DB	03cH
	DB	038H
	DB	0ffH
	DB	040H
	DB	03cH
	DB	040H
	DB	0ffH
	DB	040H
	DB	040H
	DB	040H
	DB	0ffH
	DB	040H
	DB	040H
	DB	040H
	DB	0ffH
	DB	040H
	DB	040H
	DB	040H
	DB	0ffH
	DB	040H
	DB	044H
	DB	040H
	DB	0ffH
	DB	040H
	DB	044H
	DB	040H
	DB	0ffH
	DB	048H
	DB	044H
	DB	048H
	DB	0ffH
	DB	048H
	DB	048H
	DB	048H
	DB	0ffH
	DB	048H
	DB	048H
	DB	048H
	DB	0ffH
	DB	048H
	DB	048H
	DB	048H
	DB	0ffH
	DB	048H
	DB	04cH
	DB	048H
	DB	0ffH
	DB	048H
	DB	04cH
	DB	050H
	DB	0ffH
	DB	050H
	DB	04cH
	DB	048H
	DB	0ffH
	DB	050H
	DB	050H
	DB	050H
	DB	0ffH
	DB	050H
	DB	054H
	DB	050H
	DB	0ffH
	DB	058H
	DB	058H
	DB	058H
	DB	0ffH
	DB	040H
	DB	03cH
	DB	040H
	DB	0ffH
	DB	038H
	DB	03cH
	DB	040H
	DB	0ffH
	DB	040H
	DB	03cH
	DB	038H
	DB	0ffH
	DB	038H
	DB	038H
	DB	038H
	DB	0ffH
	DB	040H
	DB	03cH
	DB	038H
	DB	0ffH
	DB	038H
	DB	038H
	DB	038H
	DB	0ffH
	DB	038H
	DB	038H
	DB	038H
	DB	0ffH
	DB	038H
	DB	038H
	DB	038H
	DB	0ffH
	DB	028H
	DB	028H
	DB	028H
	DB	0ffH
	DB	028H
	DB	024H
	DB	028H
	DB	0ffH
	DB	028H
	DB	024H
	DB	028H
	DB	0ffH
	DB	020H
	DB	024H
	DB	028H
	DB	0ffH
	DB	040H
	DB	044H
	DB	048H
	DB	0ffH
	DB	048H
	DB	04cH
	DB	048H
	DB	0ffH
	DB	050H
	DB	04cH
	DB	050H
	DB	0ffH
	DB	050H
	DB	04cH
	DB	050H
	DB	0ffH
	DB	048H
	DB	04cH
	DB	048H
	DB	0ffH
	DB	048H
	DB	04cH
	DB	048H
	DB	0ffH
	DB	050H
	DB	04cH
	DB	050H
	DB	0ffH
	DB	050H
	DB	04cH
	DB	050H
	DB	0ffH
	DB	038H
	DB	03cH
	DB	038H
	DB	0ffH
	DB	038H
	DB	038H
	DB	038H
	DB	0ffH
	DB	038H
	DB	038H
	DB	038H
	DB	0ffH
	DB	040H
	DB	03cH
	DB	040H
	DB	0ffH
	DB	038H
	DB	03cH
	DB	038H
	DB	0ffH
	DB	040H
	DB	03cH
	DB	040H
	DB	0ffH
	DB	040H
	DB	040H
	DB	040H
	DB	0ffH
	DB	040H
	DB	040H
	DB	040H
	DB	0ffH
	DB	040H
	DB	040H
	DB	040H
	DB	0ffH
	DB	040H
	DB	044H
	DB	048H
	DB	0ffH
	DB	048H
	DB	044H
	DB	048H
	DB	0ffH
	DB	048H
	DB	044H
	DB	048H
	DB	0ffH
	DB	048H
	DB	048H
	DB	048H
	DB	0ffH
	DB	048H
	DB	048H
	DB	048H
	DB	0ffH
	DB	048H
	DB	04cH
	DB	048H
	DB	0ffH
	DB	050H
	DB	04cH
	DB	050H
	DB	0ffH
	DB	048H
	DB	04cH
	DB	050H
	DB	0ffH
	DB	050H
	DB	050H
	DB	050H
	DB	0ffH
	DB	050H
	DB	054H
	DB	050H
	DB	0ffH
	DB	058H
	DB	054H
	DB	058H
	DB	0ffH
	DB	040H
	DB	03cH
	DB	040H
	DB	0ffH
	DB	038H
	DB	03cH
	DB	038H
	DB	0ffH
	DB	038H
	DB	03cH
	DB	038H
	DB	0ffH
	DB	038H
	DB	038H
	DB	038H
	DB	0ffH
	DB	038H
	DB	03cH
	DB	040H
	DB	0ffH
	DB	038H
	DB	038H
	DB	038H
	DB	0ffH
	DB	038H
	DB	038H
	DB	038H
	DB	0ffH
	DB	038H
	DB	038H
	DB	038H
	DB	0ffH
	DB	028H
	DB	024H
	DB	028H
	DB	0ffH
	DB	020H
	DB	024H
	DB	028H
	DB	0ffH
	DB	028H
	DB	024H
	DB	020H
	DB	0ffH
	DB	028H
	DB	024H
	DB	020H
	DB	0ffH
	DB	040H
	DB	044H
	DB	040H
	DB	0ffH
	DB	048H
	DB	04cH
	DB	048H
	DB	0ffH
	DB	050H
	DB	04cH
	DB	050H
	DB	0ffH
	DB	050H
	DB	04cH
	DB	050H
	DB	0ffH
	DB	048H
	DB	04cH
	DB	048H
	DB	0ffH
	DB	050H
	DB	04cH
	DB	050H
	DB	0ffH
	DB	048H
	DB	04cH
	DB	048H
	DB	0ffH
	DB	048H
	DB	04cH
	DB	050H
	DB	0ffH
	DB	038H
	DB	038H
	DB	038H
	DB	0ffH
	DB	038H
	DB	038H
	DB	038H
	DB	0ffH
	DB	040H
	DB	03cH
	DB	038H
	DB	0ffH
	DB	038H
	DB	03cH
	DB	038H
	DB	0ffH
	DB	040H
	DB	03cH
	DB	040H
	DB	0ffH
	DB	040H
	DB	03cH
	DB	040H
	DB	0ffH
	DB	040H
	DB	040H
	DB	040H
	DB	0ffH
	DB	040H
	DB	040H
	DB	040H
	DB	0ffH
	DB	040H
	DB	044H
	DB	040H
	DB	0ffH
	DB	040H
	DB	044H
	DB	040H
	DB	0ffH
	DB	048H
	DB	044H
	DB	048H
	DB	0ffH
	DB	048H
	DB	048H
	DB	040H
	DB	0ffH
	DB	048H
	DB	048H
	DB	048H
	DB	0ffH
	DB	048H
	DB	048H
	DB	048H
	DB	0ffH
	DB	048H
	DB	04cH
	DB	048H
	DB	0ffH
	DB	050H
	DB	04cH
	DB	048H
	DB	0ffH
	DB	050H
	DB	04cH
	DB	050H
	DB	0ffH
	DB	050H
	DB	050H
	DB	050H
	DB	0ffH
	DB	050H
	DB	054H
	DB	050H
	DB	0ffH
	DB	058H
	DB	058H
	DB	058H
	DB	0ffH
	DB	040H
	DB	03cH
	DB	040H
	DB	0ffH
	DB	038H
	DB	03cH
	DB	038H
	DB	0ffH
	DB	040H
	DB	03cH
	DB	040H
	DB	0ffH
	DB	038H
	DB	038H
	DB	038H
	DB	0ffH
	DB	038H
	DB	03cH
	DB	038H
	DB	0ffH
	DB	038H
	DB	038H
	DB	038H
	DB	0ffH
	DB	038H
	DB	038H
	DB	038H
	DB	0ffH
	DB	038H
	DB	038H
	DB	038H
	DB	0ffH
	DB	028H
	DB	024H
	DB	028H
	DB	0ffH
	DB	028H
	DB	024H
	DB	020H
	DB	0ffH
	DB	028H
	DB	024H
	DB	028H
	DB	0ffH
	DB	028H
	DB	024H
	DB	028H
	DB	0ffH
	DB	040H
	DB	044H
	DB	040H
	DB	0ffH
	DB	048H
	DB	04cH
	DB	048H
	DB	0ffH
	DB	050H
	DB	04cH
	DB	050H
	DB	0ffH
	DB	050H
	DB	04cH
	DB	048H
	DB	0ffH
	DB	048H
	DB	04cH
	DB	050H
	DB	0ffH
	DB	050H
	DB	04cH
	DB	048H
	DB	0ffH
	DB	050H
	DB	04cH
	DB	050H
	DB	0ffH
	DB	048H
	DB	04cH
	DB	048H
	DB	0ffH
	DB	038H
	DB	038H
	DB	038H
	DB	0ffH
	DB	038H
	DB	038H
	DB	038H
	DB	0ffH
	DB	038H
	DB	03cH
	DB	040H
	DB	0ffH
	DB	038H
	DB	03cH
	DB	038H
	DB	0ffH
	DB	040H
	DB	03cH
	DB	040H
	DB	0ffH
	DB	040H
	DB	040H
	DB	040H
	DB	0ffH
	DB	040H
	DB	040H
	DB	040H
	DB	0ffH
	DB	040H
	DB	040H
	DB	040H
	DB	0ffH
	DB	040H
	DB	040H
	DB	040H
	DB	0ffH
	DB	040H
	DB	044H
	DB	040H
	DB	0ffH
	DB	048H
	DB	044H
	DB	048H
	DB	0ffH
	DB	048H
	DB	048H
	DB	048H
	DB	0ffH
	DB	048H
	DB	048H
	DB	048H
	DB	0ffH
	DB	048H
	DB	048H
	DB	048H
	DB	0ffH
	DB	048H
	DB	048H
	DB	048H
	DB	0ffH
	DB	048H
	DB	04cH
	DB	050H
	DB	0ffH
	DB	050H
	DB	04cH
	DB	050H
	DB	0ffH
	DB	050H
	DB	050H
	DB	050H
	DB	0ffH
	DB	050H
	DB	054H
	DB	050H
	DB	0ffH
	DB	058H
	DB	058H
	DB	058H
	DB	0ffH
	DB	040H
	DB	03cH
	DB	040H
	DB	0ffH
	DB	038H
	DB	03cH
	DB	038H
	DB	0ffH
	DB	040H
	DB	03cH
	DB	040H
	DB	0ffH
	DB	038H
	DB	038H
	DB	038H
	DB	0ffH
	DB	040H
	DB	03cH
	DB	038H
	DB	0ffH
	DB	038H
	DB	038H
	DB	038H
	DB	0ffH
	DB	038H
	DB	038H
	DB	038H
	DB	0ffH
	DB	038H
	DB	038H
	DB	038H
	DB	0ffH
	DB	028H
	DB	028H
	DB	028H
	DB	0ffH
	DB	028H
	DB	024H
	DB	028H
	DB	0ffH
	DB	020H
	DB	024H
	DB	028H
	DB	0ffH
	DB	028H
	DB	024H
	DB	028H
	DB	0ffH
	DB	048H
	DB	044H
	DB	048H
	DB	0ffH
	DB	048H
	DB	04cH
	DB	048H
	DB	0ffH
	DB	048H
	DB	04cH
	DB	048H
	DB	0ffH
	DB	050H
	DB	04cH
	DB	050H
	DB	0ffH
	DB	048H
	DB	04cH
	DB	048H
	DB	0ffH
	DB	048H
	DB	04cH
	DB	050H
	DB	0ffH
	DB	050H
	DB	04cH
	DB	048H
	DB	0ffH
	DB	050H
	DB	04cH
	DB	050H
	DB	0ffH
	DB	038H
	DB	03cH
	DB	038H
	DB	0ffH
	DB	038H
	DB	038H
	DB	038H
	DB	0ffH
	DB	038H
	DB	03cH
	DB	038H
	DB	0ffH
	DB	040H
	DB	03cH
	DB	038H
	DB	0ffH
	DB	038H
	DB	03cH
	DB	040H
	DB	0ffH
	DB	040H
	DB	03cH
	DB	040H
	DB	0ffH
	DB	040H
	DB	040H
	DB	040H
	DB	0ffH
	DB	040H
	DB	040H
	DB	040H
	DB	0ffH
	DB	040H
	DB	044H
	DB	040H
	DB	0ffH
	DB	048H
	DB	044H
	DB	040H
	DB	0ffH
	DB	048H
	DB	044H
	DB	048H
	DB	0ffH
	DB	040H
	DB	044H
	DB	048H
	DB	0ffH
	DB	048H
	DB	048H
	DB	048H
	DB	0ffH
	DB	048H
	DB	048H
	DB	048H
	DB	0ffH
	DB	048H
	DB	04cH
	DB	048H
	DB	0ffH
	DB	050H
	DB	04cH
	DB	050H
	DB	0ffH
	DB	050H
	DB	04cH
	DB	048H
	DB	0ffH
	DB	050H
	DB	050H
	DB	050H
	DB	0ffH
	DB	050H
	DB	050H
	DB	050H
	DB	0ffH
	DB	058H
	DB	058H
	DB	058H
	DB	0ffH
	DB	040H
	DB	03cH
	DB	040H
	DB	0ffH
	DB	038H
	DB	03cH
	DB	038H
	DB	0ffH
	DB	038H
	DB	03cH
	DB	038H
	DB	0ffH
	DB	038H
	DB	038H
	DB	040H
	DB	0ffH
	DB	038H
	DB	03cH
	DB	038H
	DB	0ffH
	DB	038H
	DB	038H
	DB	038H
	DB	0ffH
	DB	038H
	DB	038H
	DB	038H
	DB	0ffH
	DB	038H
	DB	038H
	DB	038H
	DB	0ffH
	DB	028H
	DB	024H
	DB	028H
	DB	0ffH
	DB	020H
	DB	024H
	DB	020H
	DB	0ffH
	DB	028H
	DB	024H
	DB	020H
	DB	0ffH
	DB	020H
	DB	024H
	DB	028H
	DB	0ffH
	DB	048H
	DB	044H
	DB	040H
	DB	0ffH
	DB	048H
	DB	04cH
	DB	048H
	DB	0ffH
	DB	048H
	DB	04cH
	DB	050H
	DB	0ffH
	DB	050H
	DB	04cH
	DB	050H
	DB	0ffH
	DB	050H
	DB	04cH
	DB	048H
	DB	0ffH
	DB	048H
	DB	04cH
	DB	050H
	DB	0ffH
	DB	048H
	DB	04cH
	DB	050H
	DB	0ffH
	DB	050H
	DB	04cH
	DB	048H
	DB	0ffH
	DB	038H
	DB	038H
	DB	038H
	DB	0ffH
	DB	038H
	DB	038H
	DB	038H
	DB	0ffH
	DB	040H
	DB	038H
	DB	038H
	DB	0ffH
	DB	038H
	DB	03cH
	DB	040H
	DB	0ffH
	DB	040H
	DB	03cH
	DB	038H
	DB	0ffH
	DB	040H
	DB	040H
	DB	040H
	DB	0ffH
	DB	040H
	DB	040H
	DB	040H
	DB	0ffH
	DB	040H
	DB	040H
	DB	040H
	DB	0ffH
	DB	040H
	DB	040H
	DB	040H
	DB	0ffH
	DB	040H
	DB	044H
	DB	048H
	DB	0ffH
	DB	048H
	DB	044H
	DB	048H
	DB	0ffH
	DB	048H
	DB	048H
	DB	048H
	DB	0ffH
	DB	048H
	DB	048H
	DB	048H
	DB	0ffH
	DB	048H
	DB	048H
	DB	048H
	DB	0ffH
	DB	048H
	DB	04cH
	DB	048H
	DB	0ffH
	DB	050H
	DB	04cH
	DB	048H
	DB	0ffH
	DB	048H
	DB	04cH
	DB	050H
	DB	0ffH
	DB	050H
	DB	050H
	DB	050H
	DB	0ffH
	DB	050H
	DB	054H
	DB	050H
	DB	0ffH
	DB	058H
	DB	058H
	DB	058H
	DB	0ffH
	DB	040H
	DB	03cH
	DB	040H
	DB	0ffH
	DB	038H
	DB	03cH
	DB	038H
	DB	0ffH
	DB	040H
	DB	03cH
	DB	038H
	DB	0ffH
	DB	038H
	DB	038H
	DB	038H
	DB	0ffH
	DB	038H
	DB	03cH
	DB	040H
	DB	0ffH
	DB	038H
	DB	038H
	DB	038H
	DB	0ffH
	DB	038H
	DB	038H
	DB	038H
	DB	0ffH
	DB	038H
	DB	038H
	DB	038H
	DB	0ffH
	DB	028H
	DB	028H
	DB	028H
	DB	0ffH
	DB	028H
	DB	024H
	DB	028H
	DB	0ffH
	DB	028H
	DB	024H
	DB	028H
	DB	0ffH
	DB	020H
	DB	024H
	DB	020H
	DB	0ffH
	DB	040H
	DB	044H
	DB	048H
	DB	0ffH
	DB	048H
	DB	04cH
	DB	048H
	DB	0ffH
	DB	050H
	DB	04cH
	DB	050H
	DB	0ffH
	DB	050H
	DB	04cH
	DB	050H
	DB	0ffH
	DB	048H
	DB	04cH
	DB	048H
	DB	0ffH
	DB	050H
	DB	04cH
	DB	048H
	DB	0ffH
	DB	050H
	DB	04cH
	DB	050H
	DB	0ffH
	DB	048H
	DB	04cH
	DB	050H
	DB	0ffH
	DB	038H
	DB	038H
	DB	038H
	DB	0ffH
	DB	038H
	DB	038H
	DB	038H
	DB	0ffH
	DB	038H
	DB	03cH
	DB	038H
	DB	0ffH
	DB	038H
	DB	03cH
	DB	040H
	DB	0ffH
	DB	040H
	DB	03cH
	DB	040H
	DB	0ffH
	DB	040H
	DB	03cH
	DB	038H
	DB	0ffH
	DB	040H
	DB	040H
	DB	040H
	DB	0ffH
	DB	040H
	DB	040H
	DB	040H
	DB	0ffH
	DB	040H
	DB	044H
	DB	040H
	DB	0ffH
	DB	040H
	DB	044H
	DB	040H
	DB	0ffH
	DB	048H
	DB	044H
	DB	048H
	DB	0ffH
	DB	048H
	DB	048H
	DB	048H
	DB	0ffH
	DB	048H
	DB	048H
	DB	048H
	DB	0ffH
	DB	048H
	DB	048H
	DB	048H
	DB	0ffH
	DB	048H
	DB	048H
	DB	048H
	DB	0ffH
	DB	048H
	DB	04cH
	DB	050H
	DB	0ffH
	DB	050H
	DB	04cH
	DB	050H
	DB	0ffH
	DB	050H
	DB	050H
	DB	050H
	DB	0ffH
	DB	050H
	DB	054H
	DB	050H
	DB	0ffH
	DB	058H
	DB	058H
	DB	058H
	DB	0ffH
	DB	040H
	DB	03cH
	DB	040H
	DB	0ffH
	DB	038H
	DB	03cH
	DB	040H
	DB	0ffH
	DB	040H
	DB	03cH
	DB	038H
	DB	0ffH
	DB	038H
	DB	038H
	DB	038H
	DB	0ffH
	DB	040H
	DB	03cH
	DB	038H
	DB	0ffH
	DB	038H
	DB	038H
	DB	038H
	DB	0ffH
	DB	038H
	DB	038H
	DB	038H
	DB	0ffH
	DB	038H
	DB	038H
	DB	038H
	DB	0ffH
	DB	028H
	DB	024H
	DB	028H
	DB	0ffH
	DB	028H
	DB	024H
	DB	028H
	DB	0ffH
	DB	028H
	DB	024H
	DB	028H
	DB	0ffH
	DB	028H
	DB	024H
	DB	028H
	DB	0ffH
	DB	048H
	DB	044H
	DB	040H
	DB	0ffH
	DB	048H
	DB	04cH
	DB	048H
	DB	0ffH
	DB	050H
	DB	04cH
	DB	048H
	DB	0ffH
	DB	050H
	DB	04cH
	DB	050H
	DB	0ffH
	DB	048H
	DB	04cH
	DB	048H
	DB	0ffH
	DB	048H
	DB	04cH
	DB	048H
	DB	0ffH
	DB	050H
	DB	04cH
	DB	050H
	DB	0ffH
	DB	050H
	DB	04cH
	DB	048H
	DB	0ffH
	DB	038H
	DB	03cH
	DB	038H
	DB	0ffH
	DB	038H
	DB	038H
	DB	038H
	DB	0ffH
	DB	038H
	DB	03cH
	DB	038H
	DB	0ffH
	DB	038H
	DB	03cH
	DB	038H
	DB	0ffH
	DB	040H
	DB	03cH
	DB	040H
	DB	0ffH
	DB	040H
	DB	040H
	DB	040H
	DB	0ffH
	DB	040H
	DB	040H
	DB	040H
	DB	0ffH
	DB	040H
	DB	040H
	DB	040H
	DB	0ffH
	DB	040H
	DB	040H
	DB	040H
	DB	0ffH
	DB	040H
	DB	044H
	DB	040H
	DB	0ffH
	DB	048H
	DB	044H
	DB	048H
	DB	0ffH
	DB	048H
	DB	044H
	DB	048H
	DB	0ffH
	DB	048H
	DB	048H
	DB	048H
	DB	0ffH
	DB	048H
	DB	048H
	DB	048H
	DB	0ffH
	DB	048H
	DB	04cH
	DB	048H
	DB	0ffH
	DB	050H
	DB	04cH
	DB	050H
	DB	0ffH
	DB	050H
	DB	04cH
	DB	048H
	DB	0ffH
	DB	050H
	DB	050H
	DB	050H
	DB	0ffH
	DB	050H
	DB	054H
	DB	050H
	DB	0ffH
	DB	058H
	DB	054H
	DB	058H
	DB	0ffH
	DB	040H
	DB	03cH
	DB	040H
	DB	0ffH
	DB	038H
	DB	03cH
	DB	038H
	DB	0ffH
	DB	038H
	DB	03cH
	DB	040H
	DB	0ffH
	DB	038H
	DB	038H
	DB	038H
	DB	0ffH
	DB	038H
	DB	03cH
	DB	040H
	DB	0ffH
	DB	038H
	DB	038H
	DB	038H
	DB	0ffH
	DB	038H
	DB	03cH
	DB	038H
	DB	0ffH
	DB	038H
	DB	038H
	DB	038H
	DB	0ffH
	DB	028H
	DB	024H
	DB	028H
	DB	0ffH
	DB	020H
	DB	024H
	DB	020H
	DB	0ffH
	DB	020H
	DB	024H
	DB	020H
	DB	0ffH
	DB	028H
	DB	024H
	DB	028H
	DB	0ffH
	DB	040H
	DB	044H
	DB	048H
	DB	0ffH
	DB	048H
	DB	04cH
	DB	048H
	DB	0ffH
	DB	048H
	DB	04cH
	DB	050H
	DB	0ffH
	DB	050H
	DB	04cH
	DB	050H
	DB	0ffH
	DB	048H
	DB	04cH
	DB	048H
	DB	0ffH
	DB	048H
	DB	04cH
	DB	050H
	DB	0ffH
	DB	050H
	DB	04cH
	DB	050H
	DB	0ffH
	DB	048H
	DB	04cH
	DB	048H
	DB	0ffH
	DB	038H
	DB	038H
	DB	038H
	DB	0ffH
	DB	038H
	DB	038H
	DB	038H
	DB	0ffH
	DB	040H
	DB	03cH
	DB	040H
	DB	0ffH
	DB	038H
	DB	03cH
	DB	038H
	DB	0ffH
	DB	040H
	DB	03cH
	DB	040H
	DB	0ffH
	DB	040H
	DB	03cH
	DB	040H
	DB	0ffH
	DB	040H
	DB	040H
	DB	040H
	DB	0ffH
	DB	040H
	DB	040H
	DB	040H
	DB	0ffH
	DB	040H
	DB	044H
	DB	040H
	DB	0ffH
	DB	040H
	DB	044H
	DB	040H
	DB	0ffH
	DB	048H
	DB	044H
	DB	048H
	DB	0ffH
	DB	048H
	DB	048H
	DB	048H
	DB	0ffH
	DB	048H
	DB	048H
	DB	048H
	DB	0ffH
	DB	048H
	DB	048H
	DB	048H
	DB	0ffH
	DB	048H
	DB	04cH
	DB	048H
	DB	0ffH
	DB	050H
	DB	04cH
	DB	048H
	DB	0ffH
	DB	050H
	DB	04cH
	DB	050H
	DB	0ffH
	DB	050H
	DB	050H
	DB	050H
	DB	0ffH
	DB	050H
	DB	054H
	DB	050H
	DB	0ffH
	DB	058H
	DB	058H
	DB	058H
	DB	0ffH
	DB	040H
	DB	03cH
	DB	040H
	DB	0ffH
	DB	040H
	DB	03cH
	DB	038H
	DB	0ffH
	DB	038H
	DB	03cH
	DB	038H
	DB	0ffH
	DB	038H
	DB	03cH
	DB	038H
	DB	0ffH
	DB	040H
	DB	038H
	DB	038H
	DB	0ffH
	DB	038H
	DB	038H
	DB	038H
	DB	0ffH
	DB	038H
	DB	038H
	DB	038H
	DB	0ffH
	DB	038H
	DB	038H
	DB	038H
	DB	0ffH
	DB	028H
	DB	028H
	DB	028H
	DB	0ffH
	DB	028H
	DB	024H
	DB	028H
	DB	0ffH
	DB	028H
	DB	024H
	DB	028H
	DB	0ffH
	DB	028H
	DB	024H
	DB	020H
	DB	0ffH
	DB	040H
	DB	044H
	DB	040H
	DB	0ffH
	DB	048H
	DB	04cH
	DB	048H
	DB	0ffH
	DB	050H
	DB	04cH
	DB	050H
	DB	0ffH
	DB	050H
	DB	04cH
	DB	050H
	DB	0ffH
	DB	048H
	DB	04cH
	DB	048H
	DB	0ffH
	DB	050H
	DB	04cH
	DB	050H
	DB	0ffH
	DB	050H
	DB	04cH
	DB	048H
	DB	0ffH
	DB	048H
	DB	04cH
	DB	050H
	DB	0ffH
	DB	038H
	DB	038H
	DB	038H
	DB	0ffH
	DB	038H
	DB	038H
	DB	038H
	DB	0ffH
	DB	038H
	DB	038H
	DB	038H
	DB	0ffH
	DB	038H
	DB	03cH
	DB	038H
	DB	0ffH
	DB	040H
	DB	03cH
	DB	040H
	DB	0ffH
	DB	040H
	DB	03cH
	DB	040H
	DB	0ffH
	DB	040H
	DB	040H
	DB	040H
	DB	0ffH
	DB	040H
	DB	040H
	DB	040H
	DB	0ffH
	DB	040H
	DB	040H
	DB	040H
	DB	0ffH
	DB	040H
	DB	044H
	DB	040H
	DB	0ffH
	DB	048H
	DB	044H
	DB	048H
	DB	0ffH
	DB	048H
	DB	048H
	DB	048H
	DB	0ffH
	DB	048H
	DB	048H
	DB	048H
	DB	0ffH
	DB	048H
	DB	048H
	DB	048H
	DB	0ffH
	DB	048H
	DB	04cH
	DB	048H
	DB	0ffH
	DB	048H
	DB	04cH
	DB	050H
	DB	0ffH
	DB	050H
	DB	04cH
	DB	050H
	DB	0ffH
	DB	050H
	DB	050H
	DB	050H
	DB	0ffH
	DB	050H
	DB	054H
	DB	050H
	DB	0ffH
	DB	058H
	DB	058H
	DB	058H
	DB	0ffH
	DB	040H
	DB	03cH
	DB	040H
	DB	0ffH
	DB	038H
	DB	03cH
	DB	038H
	DB	0ffH
	DB	038H
	DB	03cH
	DB	040H
	DB	0ffH
	DB	040H
	DB	038H
	DB	038H
	DB	0ffH
	DB	038H
	DB	03cH
	DB	038H
	DB	0ffH
	DB	038H
	DB	038H
	DB	038H
	DB	0ffH
	DB	038H
	DB	038H
	DB	038H
	DB	0ffH
	DB	038H
	DB	038H
	DB	038H
	DB	0ffH
	DB	028H
	DB	024H
	DB	028H
	DB	0ffH
	DB	020H
	DB	024H
	DB	020H
	DB	0ffH
	DB	028H
	DB	024H
	DB	028H
	DB	0ffH
	DB	028H
	DB	024H
	DB	028H
	DB	0ffH
	DB	040H
	DB	044H
	DB	040H
	DB	0ffH
	DB	048H
	DB	04cH
	DB	048H
	DB	0ffH
	DB	050H
	DB	04cH
	DB	048H
	DB	0ffH
	DB	050H
	DB	04cH
	DB	050H
	DB	0ffH
	DB	048H
	DB	04cH
	DB	048H
	DB	0ffH
	DB	050H
	DB	04cH
	DB	048H
	DB	0ffH
	DB	048H
	DB	04cH
	DB	050H
	DB	0ffH
	DB	050H
	DB	04cH
	DB	050H
	DB	0ffH
	DB	038H
	DB	03cH
	DB	038H
	DB	0ffH
	DB	038H
	DB	038H
	DB	038H
	DB	0ffH
	DB	038H
	DB	03cH
	DB	038H
	DB	0ffH
	DB	040H
	DB	03cH
	DB	040H
	DB	0ffH
	DB	038H
	DB	03cH
	DB	040H
	DB	0ffH
	DB	040H
	DB	040H
	DB	038H
	DB	0ffH
	DB	040H
	DB	040H
	DB	040H
	DB	0ffH
	DB	040H
	DB	040H
	DB	040H
	DB	0ffH
	DB	040H
	DB	044H
	DB	040H
	DB	0ffH
	DB	040H
	DB	044H
	DB	048H
	DB	0ffH
	DB	048H
	DB	044H
	DB	048H
	DB	0ffH
	DB	048H
	DB	044H
	DB	040H
	DB	0ffH
	DB	048H
	DB	048H
	DB	048H
	DB	0ffH
	DB	048H
	DB	048H
	DB	048H
	DB	0ffH
	DB	048H
	DB	048H
	DB	048H
	DB	0ffH
	DB	048H
	DB	04cH
	DB	050H
	DB	0ffH
	DB	050H
	DB	04cH
	DB	050H
	DB	0ffH
	DB	050H
	DB	050H
	DB	050H
	DB	0ffH
	DB	050H
	DB	050H
	DB	050H
	DB	0ffH
	DB	058H
	DB	058H
	DB	058H
	DB	0ffH
	DB	040H
	DB	03cH
	DB	040H
	DB	0ffH
	DB	038H
	DB	03cH
	DB	038H
	DB	0ffH
	DB	038H
	DB	03cH
	DB	040H
	DB	0ffH
	DB	038H
	DB	038H
	DB	038H
	DB	0ffH
	DB	040H
	DB	03cH
	DB	040H
	DB	0ffH
	DB	038H
	DB	038H
	DB	038H
	DB	0ffH
	DB	038H
	DB	038H
	DB	038H
	DB	0ffH
	DB	038H
	DB	038H
	DB	038H
	DB	0ffH
	DB	028H
	DB	024H
	DB	028H
	DB	0ffH
	DB	028H
	DB	024H
	DB	028H
	DB	0ffH
	DB	020H
	DB	024H
	DB	028H
	DB	0ffH
	DB	028H
	DB	024H
	DB	028H
	DB	0ffH
	DB	040H
	DB	044H
	DB	048H
	DB	0ffH
	DB	048H
	DB	04cH
	DB	048H
	DB	0ffH
	DB	050H
	DB	04cH
	DB	050H
	DB	0ffH
	DB	048H
	DB	04cH
	DB	050H
	DB	0ffH
	DB	048H
	DB	04cH
	DB	048H
	DB	0ffH
	DB	050H
	DB	04cH
	DB	050H
	DB	0ffH
	DB	048H
	DB	04cH
	DB	048H
	DB	0ffH
	DB	050H
	DB	04cH
	DB	048H
	DB	0ffH
	DB	038H
	DB	038H
	DB	038H
	DB	0ffH
	DB	038H
	DB	038H
	DB	038H
	DB	0ffH
	DB	040H
	DB	03cH
	DB	038H
	DB	0ffH
	DB	038H
	DB	03cH
	DB	038H
	DB	0ffH
	DB	040H
	DB	03cH
	DB	040H
	DB	0ffH
	DB	040H
	DB	03cH
	DB	040H
	DB	0ffH
	DB	040H
	DB	040H
	DB	040H
	DB	0ffH
	DB	040H
	DB	040H
	DB	040H
	DB	0ffH
	DB	040H
	DB	044H
	DB	040H
	DB	0ffH
	DB	040H
	DB	044H
	DB	040H
	DB	0ffH
	DB	048H
	DB	044H
	DB	048H
	DB	0ffH
	DB	048H
	DB	048H
	DB	048H
	DB	0ffH
	DB	048H
	DB	048H
	DB	048H
	DB	0ffH
	DB	048H
	DB	048H
	DB	048H
	DB	0ffH
	DB	048H
	DB	04cH
	DB	048H
	DB	0ffH
	DB	050H
	DB	04cH
	DB	048H
	DB	0ffH
	DB	050H
	DB	04cH
	DB	050H
	DB	0ffH
	DB	050H
	DB	050H
	DB	050H
	DB	0ffH
	DB	050H
	DB	054H
	DB	050H
	DB	0ffH
	DB	058H
	DB	058H
	DB	058H
	DB	0ffH
	DB	040H
	DB	03cH
	DB	040H
	DB	0ffH
	DB	040H
	DB	03cH
	DB	038H
	DB	0ffH
	DB	038H
	DB	03cH
	DB	038H
	DB	0ffH
	DB	038H
	DB	038H
	DB	038H
	DB	0ffH
	DB	038H
	DB	03cH
	DB	038H
	DB	0ffH
	DB	038H
	DB	038H
	DB	038H
	DB	0ffH
	DB	038H
	DB	038H
	DB	038H
	DB	0ffH
	DB	038H
	DB	038H
	DB	038H
	DB	0ffH
	DB	028H
	DB	028H
	DB	028H
	DB	0ffH
	DB	028H
	DB	024H
	DB	028H
	DB	0ffH
	DB	028H
	DB	024H
	DB	020H
	DB	0ffH
	DB	028H
	DB	024H
	DB	020H
	DB	0ffH
	DB	040H
	DB	044H
	DB	040H
	DB	0ffH
	DB	048H
	DB	04cH
	DB	048H
	DB	0ffH
	DB	050H
	DB	04cH
	DB	050H
	DB	0ffH
	DB	050H
	DB	04cH
	DB	050H
	DB	0ffH
	DB	048H
	DB	04cH
	DB	048H
	DB	0ffH
	DB	050H
	DB	04cH
	DB	050H
	DB	0ffH
	DB	050H
	DB	04cH
	DB	050H
	DB	0ffH
	DB	048H
	DB	04cH
	DB	048H
	DB	0ffH
	DB	038H
	DB	038H
	DB	038H
	DB	0ffH
	DB	038H
	DB	038H
	DB	038H
	DB	0ffH
	DB	038H
	DB	03cH
	DB	040H
	DB	0ffH
	DB	038H
	DB	03cH
	DB	038H
	DB	0ffH
	DB	040H
	DB	03cH
	DB	040H
	DB	0ffH
	DB	040H
	DB	040H
	DB	040H
	DB	0ffH
	DB	040H
	DB	040H
	DB	040H
	DB	0ffH
	DB	040H
	DB	040H
	DB	040H
	DB	0ffH
	DB	040H
	DB	040H
	DB	040H
	DB	0ffH
	DB	048H
	DB	044H
	DB	040H
	DB	0ffH
	DB	048H
	DB	044H
	DB	048H
	DB	0ffH
	DB	040H
	DB	044H
	DB	048H
	DB	0ffH
	DB	048H
	DB	048H
	DB	048H
	DB	0ffH
	DB	048H
	DB	048H
	DB	048H
	DB	0ffH
	DB	048H
	DB	04cH
	DB	048H
	DB	0ffH
	DB	050H
	DB	04cH
	DB	048H
	DB	0ffH
	DB	048H
	DB	04cH
	DB	050H
	DB	0ffH
	DB	050H
	DB	050H
	DB	050H
	DB	0ffH
	DB	050H
	DB	054H
	DB	050H
	DB	0ffH
	DB	058H
	DB	058H
	DB	058H
	DB	0ffH
	DB	038H
	DB	03cH
	DB	040H
	DB	0ffH
	DB	040H
	DB	03cH
	DB	038H
	DB	0ffH
	DB	038H
	DB	03cH
	DB	040H
	DB	0ffH
	DB	038H
	DB	038H
	DB	038H
	DB	0ffH
	DB	040H
	DB	03cH
	DB	038H
	DB	0ffH
	DB	038H
	DB	038H
	DB	038H
	DB	0ffH
	DB	038H
	DB	038H
	DB	038H
	DB	0ffH
	DB	038H
	DB	038H
	DB	038H
	DB	0ffH
	DB	028H
	DB	028H
	DB	028H
	DB	0ffH
	DB	020H
	DB	024H
	DB	020H
	DB	0ffH
	DB	028H
	DB	024H
	DB	028H
	DB	0ffH
	DB	028H
	DB	024H
	DB	028H
	DB	0ffH
	DB	040H
	DB	044H
	DB	040H
	DB	0ffH
	DB	048H
	DB	04cH
	DB	048H
	DB	0ffH
	DB	050H
	DB	04cH
	DB	050H
	DB	0ffH
	DB	050H
	DB	04cH
	DB	048H
	DB	0ffH
	DB	048H
	DB	04cH
	DB	048H
	DB	0ffH
	DB	048H
	DB	04cH
	DB	050H
	DB	0ffH
	DB	050H
	DB	04cH
	DB	050H
	DB	0ffH
	DB	050H
	DB	04cH
	DB	050H
	DB	0ffH
	DB	038H
	DB	038H
	DB	038H
	DB	0ffH
	DB	038H
	DB	038H
	DB	038H
	DB	0ffH
	DB	038H
	DB	03cH
	DB	038H
	DB	0ffH
	DB	038H
	DB	03cH
	DB	038H
	DB	0ffH
	DB	040H
	DB	03cH
	DB	040H
	DB	0ffH
	DB	040H
	DB	03cH
	DB	040H
	DB	0ffH
	DB	040H
	DB	040H
	DB	040H
	DB	0ffH
	DB	040H
	DB	040H
	DB	040H
	DB	0ffH
	DB	040H
	DB	040H
	DB	040H
	DB	0ffH
	DB	040H
	DB	044H
	DB	048H
	DB	0ffH
	DB	048H
	DB	044H
	DB	048H
	DB	0ffH
	DB	048H
	DB	048H
	DB	048H
	DB	0ffH
	DB	048H
	DB	048H
	DB	048H
	DB	0ffH
	DB	048H
	DB	048H
	DB	048H
	DB	0ffH
	DB	048H
	DB	04cH
	DB	048H
	DB	0ffH
	DB	050H
	DB	04cH
	DB	050H
	DB	0ffH
	DB	050H
	DB	04cH
	DB	050H
	DB	0ffH
	DB	050H
	DB	050H
	DB	050H
	DB	0ffH
	DB	050H
	DB	054H
	DB	050H
	DB	0ffH
	DB	058H
	DB	054H
	DB	058H
	DB	0ffH
	DB	040H
	DB	03cH
	DB	040H
	DB	0ffH
	DB	038H
	DB	03cH
	DB	038H
	DB	0ffH
	DB	040H
	DB	03cH
	DB	040H
	DB	0ffH
	DB	038H
	DB	038H
	DB	038H
	DB	0ffH
	DB	038H
	DB	03cH
	DB	040H
	DB	0ffH
	DB	038H
	DB	038H
	DB	038H
	DB	0ffH
	DB	038H
	DB	038H
	DB	038H
	DB	0ffH
	DB	038H
	DB	038H
	DB	038H
	DB	0ffH
	DB	028H
	DB	024H
	DB	028H
	DB	0ffH
	DB	028H
	DB	024H
	DB	028H
	DB	0ffH
	DB	020H
	DB	024H
	DB	028H
	DB	0ffH
	DB	028H
	DB	024H
	DB	028H
	DB	0ffH
	DB	048H
	DB	044H
	DB	048H
	DB	0ffH
	DB	048H
	DB	04cH
	DB	048H
	DB	0ffH
	DB	048H
	DB	04cH
	DB	050H
	DB	0ffH
	DB	050H
	DB	04cH
	DB	050H
	DB	0ffH
	DB	048H
	DB	04cH
	DB	048H
	DB	0ffH
	DB	048H
	DB	04cH
	DB	048H
	DB	0ffH
	DB	050H
	DB	04cH
	DB	048H
	DB	0ffH
	DB	048H
	DB	04cH
	DB	050H
	DB	0ffH
	DB	038H
	DB	038H
	DB	038H
	DB	0ffH
	DB	038H
	DB	038H
	DB	038H
	DB	0ffH
	DB	040H
	DB	03cH
	DB	038H
	DB	0ffH
	DB	038H
	DB	03cH
	DB	040H
	DB	0ffH
	DB	040H
	DB	03cH
	DB	040H
	DB	0ffH
	DB	040H
	DB	03cH
	DB	038H
	DB	0ffH
	DB	040H
	DB	040H
	DB	040H
	DB	0ffH
	DB	040H
	DB	040H
	DB	040H
	DB	0ffH
	DB	040H
	DB	044H
	DB	040H
	DB	0ffH
	DB	040H
	DB	044H
	DB	040H
	DB	0ffH
	DB	048H
	DB	044H
	DB	048H
	DB	0ffH
	DB	048H
	DB	048H
	DB	040H
	DB	0ffH
	DB	048H
	DB	048H
	DB	048H
	DB	0ffH
	DB	048H
	DB	048H
	DB	048H
	DB	0ffH
	DB	048H
	DB	048H
	DB	048H
	DB	0ffH
	DB	048H
	DB	04cH
	DB	050H
	DB	0ffH
	DB	050H
	DB	04cH
	DB	048H
	DB	0ffH
	DB	050H
	DB	050H
	DB	050H
	DB	0ffH
	DB	050H
	DB	054H
	DB	050H
	DB	0ffH
	DB	058H
	DB	058H
	DB	058H
	DB	0ffH
	DB	040H
	DB	03cH
	DB	040H
	DB	0ffH
	DB	038H
	DB	03cH
	DB	038H
	DB	0ffH
	DB	038H
	DB	03cH
	DB	038H
	DB	0ffH
	DB	040H
	DB	038H
	DB	038H
	DB	0ffH
	DB	038H
	DB	03cH
	DB	038H
	DB	0ffH
	DB	038H
	DB	038H
	DB	038H
	DB	0ffH
	DB	038H
	DB	038H
	DB	038H
	DB	0ffH
	DB	038H
	DB	038H
	DB	038H
	DB	0ffH
	DB	028H
	DB	024H
	DB	028H
	DB	0ffH
	DB	020H
	DB	024H
	DB	020H
	DB	0ffH
	DB	028H
	DB	024H
	DB	020H
	DB	0ffH
	DB	020H
	DB	024H
	DB	028H
	DB	0ffH
	DB	040H
	DB	044H
	DB	040H
	DB	0ffH
	DB	048H
	DB	04cH
	DB	048H
	DB	0ffH
	DB	050H
	DB	04cH
	DB	048H
	DB	0ffH
	DB	050H
	DB	04cH
	DB	050H
	DB	0ffH
	DB	050H
	DB	04cH
	DB	050H
	DB	0ffH
	DB	050H
	DB	04cH
	DB	048H
	DB	0ffH
	DB	048H
	DB	04cH
	DB	050H
	DB	0ffH
	DB	050H
	DB	04cH
	DB	048H
	DB	0ffH
	DB	038H
	DB	03cH
	DB	038H
	DB	0ffH
	DB	038H
	DB	038H
	DB	038H
	DB	0ffH
	DB	038H
	DB	038H
	DB	038H
	DB	0ffH
	DB	038H
	DB	03cH
	DB	038H
	DB	0ffH
	DB	040H
	DB	03cH
	DB	040H
	DB	0ffH
	DB	038H
	DB	040H
	DB	040H
	DB	0ffH
	DB	040H
	DB	040H
	DB	040H
	DB	0ffH
	DB	040H
	DB	040H
	DB	040H
	DB	0ffH
	DB	040H
	DB	044H
	DB	040H
	DB	0ffH
	DB	040H
	DB	044H
	DB	040H
	DB	0ffH
	DB	048H
	DB	044H
	DB	048H
	DB	0ffH
	DB	048H
	DB	044H
	DB	048H
	DB	0ffH
	DB	048H
	DB	048H
	DB	048H
	DB	0ffH
	DB	048H
	DB	048H
	DB	048H
	DB	0ffH
	DB	048H
	DB	04cH
	DB	048H
	DB	0ffH
	DB	050H
	DB	04cH
	DB	050H
	DB	0ffH
	DB	048H
	DB	04cH
	DB	050H
	DB	0ffH
	DB	050H
	DB	050H
	DB	050H
	DB	0ffH
	DB	050H
	DB	054H
	DB	050H
	DB	0ffH
	DB	058H
	DB	058H
	DB	058H
	DB	0ffH
	DB	040H
	DB	03cH
	DB	040H
	DB	0ffH
	DB	038H
	DB	03cH
	DB	038H
	DB	0ffH
	DB	038H
	DB	03cH
	DB	040H
	DB	0ffH
	DB	038H
	DB	03cH
	DB	038H
	DB	0ffH
	DB	040H
	DB	038H
	DB	038H
	DB	0ffH
	DB	038H
	DB	038H
	DB	038H
	DB	0ffH
	DB	038H
	DB	03cH
	DB	038H
	DB	0ffH
	DB	038H
	DB	038H
	DB	038H
	DB	0ffH
	DB	028H
	DB	028H
	DB	028H
	DB	0ffH
	DB	028H
	DB	024H
	DB	028H
	DB	0ffH
	DB	028H
	DB	024H
	DB	028H
	DB	0ffH
	DB	028H
	DB	024H
	DB	020H
	DB	0ffH
	DB	040H
	DB	044H
	DB	048H
	DB	0ffH
	DB	048H
	DB	04cH
	DB	048H
	DB	0ffH
	DB	050H
	DB	04cH
	DB	048H
	DB	0ffH
	DB	048H
	DB	04cH
	DB	050H
	DB	0ffH
	DB	048H
	DB	04cH
	DB	048H
	DB	0ffH
	DB	050H
	DB	04cH
	DB	050H
	DB	0ffH
	DB	048H
	DB	04cH
	DB	050H
	DB	0ffH
	DB	050H
	DB	04cH
	DB	048H
	DB	0ffH
	DB	038H
	DB	038H
	DB	038H
	DB	0ffH
	DB	038H
	DB	038H
	DB	038H
	DB	0ffH
	DB	038H
	DB	03cH
	DB	040H
	DB	0ffH
	DB	040H
	DB	03cH
	DB	038H
	DB	0ffH
	DB	040H
	DB	03cH
	DB	040H
	DB	0ffH
	DB	040H
	DB	03cH
	DB	040H
	DB	0ffH
	DB	040H
	DB	040H
	DB	040H
	DB	0ffH
	DB	040H
	DB	040H
	DB	040H
	DB	0ffH
	DB	040H
	DB	040H
	DB	040H
	DB	0ffH
	DB	040H
	DB	044H
	DB	040H
	DB	0ffH
	DB	048H
	DB	044H
	DB	048H
	DB	0ffH
	DB	048H
	DB	048H
	DB	048H
	DB	0ffH
	DB	048H
	DB	048H
	DB	048H
	DB	0ffH
	DB	048H
	DB	048H
	DB	048H
	DB	0ffH
	DB	048H
	DB	04cH
	DB	048H
	DB	0ffH
	DB	050H
	DB	04cH
	DB	048H
	DB	0ffH
	DB	050H
	DB	04cH
	DB	050H
	DB	0ffH
	DB	050H
	DB	050H
	DB	050H
	DB	0ffH
	DB	050H
	DB	050H
	DB	050H
	DB	0ffH
	DB	058H
	DB	058H
	DB	058H
	DB	0ffH
	DB	040H
	DB	03cH
	DB	040H
	DB	0ffH
	DB	040H
	DB	03cH
	DB	038H
	DB	0ffH
	DB	038H
	DB	03cH
	DB	040H
	DB	0ffH
	DB	038H
	DB	038H
	DB	038H
	DB	0ffH
	DB	038H
	DB	03cH
	DB	040H
	DB	0ffH
	DB	038H
	DB	038H
	DB	038H
	DB	0ffH
	DB	038H
	DB	038H
	DB	038H
	DB	0ffH
	DB	038H
	DB	038H
	DB	038H
	DB	0ffH
	DB	028H
	DB	024H
	DB	028H
	DB	0ffH
	DB	020H
	DB	024H
	DB	028H
	DB	0ffH
	DB	028H
	DB	024H
	DB	028H
	DB	0ffH
	DB	028H
	DB	024H
	DB	028H
	DB	0ffH
	DB	040H
	DB	044H
	DB	040H
	DB	0ffH
	DB	048H
	DB	04cH
	DB	048H
	DB	0ffH
	DB	050H
	DB	04cH
	DB	050H
	DB	0ffH
	DB	050H
	DB	04cH
	DB	050H
	DB	0ffH
	DB	048H
	DB	04cH
	DB	048H
	DB	0ffH
	DB	048H
	DB	04cH
	DB	048H
	DB	0ffH
	DB	050H
	DB	04cH
	DB	050H
	DB	0ffH
	DB	048H
	DB	04cH
	DB	050H
	DB	0ffH
	DB	038H
	DB	038H
	DB	038H
	DB	0ffH
	DB	038H
	DB	038H
	DB	038H
	DB	0ffH
	DB	038H
	DB	03cH
	DB	038H
	DB	0ffH
	DB	038H
	DB	03cH
	DB	038H
	DB	0ffH
	DB	040H
	DB	03cH
	DB	040H
	DB	0ffH
	DB	040H
	DB	040H
	DB	040H
	DB	0ffH
	DB	040H
	DB	040H
	DB	040H
	DB	0ffH
	DB	040H
	DB	040H
	DB	040H
	DB	0ffH
	DB	040H
	DB	040H
	DB	040H
	DB	0ffH
	DB	048H
	DB	044H
	DB	048H
	DB	0ffH
	DB	048H
	DB	044H
	DB	048H
	DB	0ffH
	DB	040H
	DB	048H
	DB	048H
	DB	0ffH
	DB	048H
	DB	048H
	DB	048H
	DB	0ffH
	DB	048H
	DB	048H
	DB	048H
	DB	0ffH
	DB	048H
	DB	04cH
	DB	048H
	DB	0ffH
	DB	048H
	DB	04cH
	DB	050H
	DB	0ffH
	DB	050H
	DB	04cH
	DB	048H
	DB	0ffH
	DB	050H
	DB	050H
	DB	050H
	DB	0ffH
	DB	050H
	DB	054H
	DB	050H
	DB	0ffH
	DB	058H
	DB	058H
	DB	058H
	DB	0ffH
	DB	040H
	DB	03cH
	DB	040H
	DB	0ffH
	DB	038H
	DB	03cH
	DB	038H
	DB	0ffH
	DB	040H
	DB	03cH
	DB	038H
	DB	0ffH
	DB	038H
	DB	038H
	DB	038H
	DB	0ffH
	DB	038H
	DB	03cH
	DB	038H
	DB	0ffH
	DB	038H
	DB	038H
	DB	038H
	DB	0ffH
	DB	038H
	DB	038H
	DB	038H
	DB	0ffH
	DB	038H
	DB	038H
	DB	038H
	DB	0ffH
	DB	028H
	DB	024H
	DB	028H
	DB	0ffH
	DB	028H
	DB	024H
	DB	020H
	DB	0ffH
	DB	020H
	DB	024H
	DB	020H
	DB	0ffH
	DB	028H
	DB	024H
	DB	028H
	DB	0ffH
	DB	048H
	DB	044H
	DB	048H
	DB	0ffH
	DB	048H
	DB	04cH
	DB	048H
	DB	0ffH
	DB	050H
	DB	04cH
	DB	050H
	DB	0ffH
	DB	050H
	DB	04cH
	DB	050H
	DB	0ffH
	DB	048H
	DB	04cH
	DB	048H
	DB	0ffH
	DB	050H
	DB	04cH
	DB	050H
	DB	0ffH
	DB	050H
	DB	04cH
	DB	048H
	DB	0ffH
	DB	048H
	DB	04cH
	DB	050H
	DB	0ffH
	DB	038H
	DB	038H
	DB	038H
	DB	0ffH
	DB	038H
	DB	038H
	DB	038H
	DB	0ffH
	DB	038H
	DB	03cH
	DB	038H
	DB	0ffH
	DB	038H
	DB	03cH
	DB	040H
	DB	0ffH
	DB	040H
	DB	03cH
	DB	038H
	DB	0ffH
	DB	040H
	DB	03cH
	DB	040H
	DB	0ffH
	DB	040H
	DB	040H
	DB	040H
	DB	0ffH
	DB	040H
	DB	040H
	DB	040H
	DB	0ffH
	DB	040H
	DB	044H
	DB	040H
	DB	0ffH
	DB	040H
	DB	044H
	DB	040H
	DB	0ffH
	DB	048H
	DB	044H
	DB	048H
	DB	0ffH
	DB	048H
	DB	044H
	DB	048H
	DB	0ffH
	DB	048H
	DB	048H
	DB	048H
	DB	0ffH
	DB	048H
	DB	048H
	DB	048H
	DB	0ffH
	DB	048H
	DB	048H
	DB	048H
	DB	0ffH
	DB	050H
	DB	04cH
	DB	050H
	DB	0ffH
	DB	050H
	DB	04cH
	DB	050H
	DB	0ffH
	DB	050H
	DB	050H
	DB	050H
	DB	0ffH
	DB	050H
	DB	054H
	DB	050H
	DB	0ffH
	DB	058H
	DB	058H
	DB	058H
	DB	0ffH
	DB	040H
	DB	03cH
	DB	040H
	DB	0ffH
	DB	038H
	DB	03cH
	DB	038H
	DB	0ffH
	DB	038H
	DB	03cH
	DB	040H
	DB	0ffH
	DB	040H
	DB	038H
	DB	038H
	DB	0ffH
	DB	040H
	DB	03cH
	DB	038H
	DB	0ffH
	DB	038H
	DB	038H
	DB	038H
	DB	0ffH
	DB	038H
	DB	038H
	DB	038H
	DB	0ffH
	DB	038H
	DB	038H
	DB	038H
	DB	0ffH
	DB	028H
	DB	028H
	DB	028H
	DB	0ffH
	DB	028H
	DB	024H
	DB	028H
	DB	0ffH
	DB	028H
	DB	024H
	DB	028H
	DB	0ffH
	DB	020H
	DB	024H
	DB	020H
	DB	0ffH
	DB	040H
	DB	044H
	DB	040H
	DB	0ffH
	DB	048H
	DB	04cH
	DB	048H
	DB	0ffH
	DB	048H
	DB	04cH
	DB	048H
	DB	0ffH
	DB	050H
	DB	04cH
	DB	050H
	DB	0ffH
	DB	048H
	DB	04cH
	DB	048H
	DB	0ffH
	DB	050H
	DB	04cH
	DB	050H
	DB	0ffH
	DB	048H
	DB	04cH
	DB	048H
	DB	0ffH
	DB	050H
	DB	04cH
	DB	048H
	DB	0ffH
	DB	038H
	DB	03cH
	DB	038H
	DB	0ffH
	DB	038H
	DB	038H
	DB	038H
	DB	0ffH
	DB	040H
	DB	038H
	DB	038H
	DB	0ffH
	DB	038H
	DB	03cH
	DB	040H
	DB	0ffH
	DB	040H
	DB	03cH
	DB	040H
	DB	0ffH
	DB	040H
	DB	03cH
	DB	038H
	DB	0ffH
	DB	040H
	DB	040H
	DB	040H
	DB	0ffH
	DB	040H
	DB	040H
	DB	040H
	DB	0ffH
	DB	040H
	DB	044H
	DB	040H
	DB	0ffH
	DB	040H
	DB	044H
	DB	040H
	DB	0ffH
	DB	048H
	DB	044H
	DB	048H
	DB	0ffH
	DB	048H
	DB	048H
	DB	048H
	DB	0ffH
	DB	048H
	DB	048H
	DB	048H
	DB	0ffH
	DB	048H
	DB	048H
	DB	048H
	DB	0ffH
	DB	048H
	DB	04cH
	DB	048H
	DB	0ffH
	DB	050H
	DB	04cH
	DB	048H
	DB	0ffH
	DB	048H
	DB	04cH
	DB	050H
	DB	0ffH
	DB	050H
	DB	050H
	DB	050H
	DB	0ffH
	DB	050H
	DB	054H
	DB	050H
	DB	0ffH
	DB	058H
	DB	054H
	DB	058H
	DB	0ffH
	DB	040H
	DB	03cH
	DB	040H
	DB	0ffH
	DB	038H
	DB	03cH
	DB	038H
	DB	0ffH
	DB	038H
	DB	03cH
	DB	040H
	DB	0ffH
	DB	038H
	DB	038H
	DB	038H
	DB	0ffH
	DB	038H
	DB	03cH
	DB	040H
	DB	0ffH
	DB	038H
	DB	038H
	DB	038H
	DB	0ffH
	DB	038H
	DB	038H
	DB	038H
	DB	0ffH
	DB	038H
	DB	038H
	DB	038H
	DB	0ffH
	DB	028H
	DB	024H
	DB	028H
	DB	0ffH
	DB	020H
	DB	024H
	DB	028H
	DB	0ffH
	DB	028H
	DB	024H
	DB	028H
	DB	0ffH
	DB	028H
	DB	024H
	DB	028H
	DB	0ffH
	DB	040H
	DB	044H
	DB	040H
	DB	0ffH
	DB	048H
	DB	04cH
	DB	048H
	DB	0ffH
	DB	050H
	DB	04cH
	DB	050H
	DB	0ffH
	DB	050H
	DB	04cH
	DB	050H
	DB	0ffH
	DB	048H
	DB	04cH
	DB	048H
	DB	0ffH
	DB	048H
	DB	04cH
	DB	050H
	DB	0ffH
	DB	050H
	DB	04cH
	DB	050H
	DB	0ffH
	DB	050H
	DB	04cH
	DB	050H
	DB	0ffH
	DB	038H
	DB	038H
	DB	038H
	DB	0ffH
	DB	038H
	DB	038H
	DB	038H
	DB	0ffH
	DB	038H
	DB	03cH
	DB	038H
	DB	0ffH
	DB	040H
	DB	03cH
	DB	038H
	DB	0ffH
	DB	038H
	DB	03cH
	DB	040H
	DB	0ffH
	DB	040H
	DB	040H
	DB	040H
	DB	0ffH
	DB	040H
	DB	040H
	DB	040H
	DB	0ffH
	DB	040H
	DB	040H
	DB	040H
	DB	0ffH
	DB	040H
	DB	040H
	DB	040H
	DB	0ffH
	DB	040H
	DB	044H
	DB	040H
	DB	0ffH
	DB	048H
	DB	044H
	DB	048H
	DB	0ffH
	DB	048H
	DB	048H
	DB	048H
	DB	0ffH
	DB	048H
	DB	048H
	DB	048H
	DB	0ffH
	DB	048H
	DB	048H
	DB	048H
	DB	0ffH
	DB	048H
	DB	04cH
	DB	048H
	DB	0ffH
	DB	048H
	DB	04cH
	DB	050H
	DB	0ffH
	DB	050H
	DB	04cH
	DB	050H
	DB	0ffH
	DB	050H
	DB	050H
	DB	050H
	DB	0ffH
	DB	050H
	DB	054H
	DB	050H
	DB	0ffH
	DB	058H
	DB	058H
	DB	058H
	DB	0ffH
	DB	040H
	DB	03cH
	DB	040H
	DB	0ffH
	DB	040H
	DB	03cH
	DB	038H
	DB	0ffH
	DB	038H
	DB	03cH
	DB	038H
	DB	0ffH
	DB	038H
	DB	038H
	DB	038H
	DB	0ffH
	DB	038H
	DB	03cH
	DB	038H
	DB	0ffH
	DB	038H
	DB	038H
	DB	038H
	DB	0ffH
	DB	038H
	DB	038H
	DB	038H
	DB	0ffH
	DB	038H
	DB	038H
	DB	038H
	DB	0ffH
	DB	028H
	DB	028H
	DB	028H
	DB	0ffH
	DB	028H
	DB	024H
	DB	020H
	DB	0ffH
	DB	028H
	DB	024H
	DB	028H
	DB	0ffH
	DB	028H
	DB	024H
	DB	028H
	DB	0ffH
	DB	040H
	DB	044H
	DB	048H
	DB	0ffH
	DB	048H
	DB	04cH
	DB	048H
	DB	0ffH
	DB	050H
	DB	04cH
	DB	050H
	DB	0ffH
	DB	050H
	DB	04cH
	DB	050H
	DB	0ffH
	DB	048H
	DB	04cH
	DB	048H
	DB	0ffH
	DB	050H
	DB	04cH
	DB	048H
	DB	0ffH
	DB	048H
	DB	04cH
	DB	050H
	DB	0ffH
	DB	048H
	DB	04cH
	DB	048H
	DB	0ffH
	DB	038H
	DB	038H
	DB	038H
	DB	0ffH
	DB	038H
	DB	038H
	DB	038H
	DB	0ffH
	DB	038H
	DB	03cH
	DB	040H
	DB	0ffH
	DB	038H
	DB	03cH
	DB	038H
	DB	0ffH
	DB	040H
	DB	03cH
	DB	040H
	DB	0ffH
	DB	040H
	DB	03cH
	DB	040H
	DB	0ffH
	DB	040H
	DB	040H
	DB	040H
	DB	0ffH
	DB	040H
	DB	040H
	DB	040H
	DB	0ffH
	DB	040H
	DB	044H
	DB	040H
	DB	0ffH
	DB	040H
	DB	044H
	DB	040H
	DB	0ffH
	DB	048H
	DB	044H
	DB	048H
	DB	0ffH
	DB	048H
	DB	044H
	DB	048H
	DB	0ffH
	DB	048H
	DB	048H
	DB	048H
	DB	0ffH
	DB	048H
	DB	048H
	DB	048H
	DB	0ffH
	DB	048H
	DB	04cH
	DB	048H
	DB	0ffH
	DB	050H
	DB	04cH
	DB	048H
	DB	0ffH
	DB	050H
	DB	04cH
	DB	050H
	DB	0ffH
	DB	050H
	DB	050H
	DB	050H
	DB	0ffH
	DB	050H
	DB	054H
	DB	050H
	DB	0ffH
	DB	058H
	DB	058H
	DB	058H
	DB	0ffH
	DB	040H
	DB	03cH
	DB	040H
	DB	0ffH
	DB	038H
	DB	03cH
	DB	038H
	DB	0ffH
	DB	040H
	DB	03cH
	DB	040H
	DB	0ffH
	DB	038H
	DB	038H
	DB	038H
	DB	0ffH
	DB	040H
	DB	03cH
	DB	038H
	DB	0ffH
	DB	038H
	DB	038H
	DB	038H
	DB	0ffH
	DB	038H
	DB	038H
	DB	038H
	DB	0ffH
	DB	038H
	DB	038H
	DB	038H
	DB	0ffH
	DB	028H
	DB	024H
	DB	028H
	DB	0ffH
	DB	020H
	DB	024H
	DB	028H
	DB	0ffH
	DB	020H
	DB	024H
	DB	020H
	DB	0ffH
	DB	028H
	DB	024H
	DB	020H
	DB	0ffH
	DB	048H
	DB	044H
	DB	040H
	DB	0ffH
	DB	048H
	DB	04cH
	DB	048H
	DB	0ffH
	DB	048H
	DB	04cH
	DB	048H
	DB	0ffH
	DB	050H
	DB	04cH
	DB	050H
	DB	0ffH
	DB	050H
	DB	04cH
	DB	048H
	DB	0ffH
	DB	048H
	DB	04cH
	DB	050H
	DB	0ffH
	DB	050H
	DB	04cH
	DB	048H
	DB	0ffH
	DB	050H
	DB	04cH
	DB	050H
	DB	0ffH
	DB	038H
	DB	038H
	DB	038H
	DB	0ffH
	DB	038H
	DB	038H
	DB	038H
	DB	0ffH
	DB	040H
	DB	03cH
	DB	038H
	DB	0ffH
	DB	038H
	DB	03cH
	DB	038H
	DB	0ffH
	DB	040H
	DB	03cH
	DB	040H
	DB	0ffH
	DB	040H
	DB	040H
	DB	040H
	DB	0ffH
	DB	040H
	DB	040H
	DB	040H
	DB	0ffH
	DB	040H
	DB	040H
	DB	040H
	DB	0ffH
	DB	040H
	DB	040H
	DB	040H
	DB	0ffH
	DB	040H
	DB	044H
	DB	048H
	DB	0ffH
	DB	048H
	DB	044H
	DB	048H
	DB	0ffH
	DB	048H
	DB	048H
	DB	040H
	DB	0ffH
	DB	048H
	DB	048H
	DB	048H
	DB	0ffH
	DB	048H
	DB	048H
	DB	048H
	DB	0ffH
	DB	048H
	DB	048H
	DB	048H
	DB	0ffH
	DB	050H
	DB	04cH
	DB	050H
	DB	0ffH
	DB	050H
	DB	04cH
	DB	048H
	DB	0ffH
	DB	050H
	DB	050H
	DB	050H
	DB	0ffH
	DB	050H
	DB	050H
	DB	050H
	DB	0ffH
	DB	058H
	DB	058H
	DB	058H
	DB	0ffH
	DB	040H
	DB	03cH
	DB	040H
	DB	0ffH
	DB	038H
	DB	03cH
	DB	038H
	DB	0ffH
	DB	038H
	DB	03cH
	DB	040H
	DB	0ffH
	DB	038H
	DB	038H
	DB	038H
	DB	0ffH
	DB	040H
	DB	03cH
	DB	040H
	DB	0ffH
	DB	038H
	DB	038H
	DB	038H
	DB	0ffH
	DB	038H
	DB	038H
	DB	038H
	DB	0ffH
	DB	038H
	DB	038H
	DB	038H
	DB	0ffH
	DB	028H
	DB	028H
	DB	028H
	DB	0ffH
	DB	028H
	DB	024H
	DB	028H
	DB	0ffH
	DB	028H
	DB	024H
	DB	028H
	DB	0ffH
	DB	020H
	DB	024H
	DB	028H
	DB	0ffH
	DB	048H
	DB	044H
	DB	048H
	DB	0ffH
	DB	048H
	DB	04cH
	DB	048H
	DB	0ffH
	DB	048H
	DB	04cH
	DB	050H
	DB	0ffH
	DB	050H
	DB	04cH
	DB	050H
	DB	0ffH
	DB	048H
	DB	04cH
	DB	048H
	DB	0ffH
	DB	048H
	DB	04cH
	DB	050H
	DB	0ffH
	DB	050H
	DB	04cH
	DB	050H
	DB	0ffH
	DB	050H
	DB	04cH
	DB	048H
	DB	0ffH
	DB	038H
	DB	03cH
	DB	038H
	DB	0ffH
	DB	038H
	DB	038H
	DB	038H
	DB	0ffH
	DB	038H
	DB	038H
	DB	038H
	DB	0ffH
	DB	038H
	DB	03cH
	DB	040H
	DB	0ffH
	DB	040H
	DB	03cH
	DB	040H
	DB	0ffH
	DB	040H
	DB	03cH
	DB	038H
	DB	0ffH
	DB	040H
	DB	040H
	DB	040H
	DB	0ffH
	DB	040H
	DB	040H
	DB	040H
	DB	0ffH
	DB	040H
	DB	044H
	DB	040H
	DB	0ffH
	DB	048H
	DB	044H
	DB	040H
	DB	0ffH
	DB	048H
	DB	044H
	DB	048H
	DB	0ffH
	DB	040H
	DB	044H
	DB	048H
	DB	0ffH
	DB	048H
	DB	048H
	DB	048H
	DB	0ffH
	DB	048H
	DB	048H
	DB	048H
	DB	0ffH
	DB	048H
	DB	04cH
	DB	048H
	DB	0ffH
	DB	048H
	DB	04cH
	DB	050H
	DB	0ffH
	DB	050H
	DB	04cH
	DB	050H
	DB	0ffH
	DB	050H
	DB	050H
	DB	050H
	DB	0ffH
	DB	050H
	DB	054H
	DB	050H
	DB	0ffH
	DB	058H
	DB	058H
	DB	058H
	DB	0ffH
	DB	040H
	DB	03cH
	DB	040H
	DB	0ffH
	DB	038H
	DB	03cH
	DB	038H
	DB	0ffH
	DB	038H
	DB	03cH
	DB	038H
	DB	0ffH
	DB	038H
	DB	038H
	DB	038H
	DB	0ffH
	DB	038H
	DB	03cH
	DB	038H
	DB	0ffH
	DB	038H
	DB	038H
	DB	038H
	DB	0ffH
	DB	038H
	DB	038H
	DB	038H
	DB	0ffH
	DB	038H
	DB	038H
	DB	038H
	DB	0ffH
	DB	028H
	DB	024H
	DB	028H
	DB	0ffH
	DB	020H
	DB	024H
	DB	020H
	DB	0ffH
	DB	028H
	DB	024H
	DB	028H
	DB	0ffH
	DB	020H
	DB	024H
	DB	028H
	DB	0ffH
	DB	040H
	DB	044H
	DB	040H
	DB	0ffH
	DB	048H
	DB	04cH
	DB	048H
	DB	0ffH
	DB	050H
	DB	04cH
	DB	050H
	DB	0ffH
	DB	050H
	DB	04cH
	DB	050H
	DB	0ffH
	DB	048H
	DB	04cH
	DB	048H
	DB	0ffH
	DB	050H
	DB	04cH
	DB	048H
	DB	0ffH
	DB	048H
	DB	04cH
	DB	050H
	DB	0ffH
	DB	048H
	DB	04cH
	DB	048H
	DB	0ffH
	DB	038H
	DB	038H
	DB	038H
	DB	0ffH
	DB	038H
	DB	038H
	DB	038H
	DB	0ffH
	DB	038H
	DB	03cH
	DB	038H
	DB	0ffH
	DB	040H
	DB	03cH
	DB	040H
	DB	0ffH
	DB	038H
	DB	03cH
	DB	040H
	DB	0ffH
	DB	040H
	DB	040H
	DB	040H
	DB	0ffH
	DB	040H
	DB	040H
	DB	040H
	DB	0ffH
	DB	040H
	DB	040H
	DB	040H
	DB	0ffH
	DB	040H
	DB	040H
	DB	040H
	DB	0ffH
	DB	040H
	DB	044H
	DB	040H
	DB	0ffH
	DB	048H
	DB	044H
	DB	048H
	DB	0ffH
	DB	048H
	DB	048H
	DB	048H
	DB	0ffH
	DB	048H
	DB	048H
	DB	048H
	DB	0ffH
	DB	048H
	DB	048H
	DB	048H
	DB	0ffH
	DB	048H
	DB	04cH
	DB	048H
	DB	0ffH
	DB	050H
	DB	04cH
	DB	048H
	DB	0ffH
	DB	048H
	DB	04cH
	DB	050H
	DB	0ffH
	DB	050H
	DB	050H
	DB	050H
	DB	0ffH
	DB	050H
	DB	054H
	DB	050H
	DB	0ffH
	DB	058H
	DB	058H
	DB	058H
	DB	0ffH
	DB	040H
	DB	03cH
	DB	040H
	DB	0ffH
	DB	040H
	DB	03cH
	DB	038H
	DB	0ffH
	DB	040H
	DB	03cH
	DB	040H
	DB	0ffH
	DB	038H
	DB	038H
	DB	038H
	DB	0ffH
	DB	038H
	DB	03cH
	DB	038H
	DB	0ffH
	DB	038H
	DB	038H
	DB	040H
	DB	0ffH
	DB	038H
	DB	03cH
	DB	038H
	DB	0ffH
	DB	038H
	DB	038H
	DB	038H
	DB	0ffH
	DB	028H
	DB	024H
	DB	028H
	DB	0ffH
	DB	028H
	DB	024H
	DB	028H
	DB	0ffH
	DB	028H
	DB	024H
	DB	020H
	DB	0ffH
	DB	028H
	DB	024H
	DB	028H
	DB	0ffH
	DB	048H
	DB	044H
	DB	040H
	DB	0ffH
	DB	048H
	DB	04cH
	DB	048H
	DB	0ffH
	DB	050H
	DB	04cH
	DB	048H
	DB	0ffH
	DB	050H
	DB	04cH
	DB	050H
	DB	0ffH
	DB	048H
	DB	04cH
	DB	048H
	DB	0ffH
	DB	050H
	DB	04cH
	DB	050H
	DB	0ffH
	DB	050H
	DB	04cH
	DB	050H
	DB	0ffH
	DB	048H
	DB	04cH
	DB	050H
	DB	0ffH
	DB	038H
	DB	038H
	DB	038H
	DB	0ffH
	DB	038H
	DB	038H
	DB	038H
	DB	0ffH
	DB	038H
	DB	03cH
	DB	038H
	DB	0ffH
	DB	040H
	DB	03cH
	DB	038H
	DB	0ffH
	DB	040H
	DB	03cH
	DB	040H
	DB	0ffH
	DB	038H
	DB	03cH
	DB	040H
	DB	0ffH
	DB	040H
	DB	040H
	DB	040H
	DB	0ffH
	DB	040H
	DB	040H
	DB	040H
	DB	0ffH
	DB	040H
	DB	044H
	DB	040H
	DB	0ffH
	DB	040H
	DB	044H
	DB	048H
	DB	0ffH
	DB	048H
	DB	044H
	DB	048H
	DB	0ffH
	DB	048H
	DB	048H
	DB	048H
	DB	0ffH
	DB	048H
	DB	048H
	DB	048H
	DB	0ffH
	DB	048H
	DB	048H
	DB	048H
	DB	0ffH
	DB	048H
	DB	04cH
	DB	048H
	DB	0ffH
	DB	050H
	DB	04cH
	DB	050H
	DB	0ffH
	DB	050H
	DB	04cH
	DB	050H
	DB	0ffH
	DB	050H
	DB	050H
	DB	050H
	DB	0ffH
	DB	050H
	DB	050H
	DB	050H
	DB	0ffH
	DB	058H
	DB	058H
	DB	058H
	DB	0ffH
	DB	038H
	DB	03cH
	DB	040H
	DB	0ffH
	DB	038H
	DB	03cH
	DB	038H
	DB	0ffH
	DB	040H
	DB	03cH
	DB	040H
	DB	0ffH
	DB	038H
	DB	038H
	DB	038H
	DB	0ffH
	DB	040H
	DB	03cH
	DB	038H
	DB	0ffH
	DB	038H
	DB	038H
	DB	038H
	DB	0ffH
	DB	038H
	DB	038H
	DB	038H
	DB	0ffH
	DB	038H
	DB	038H
	DB	038H
	DB	0ffH
	DB	028H
	DB	028H
	DB	028H
	DB	0ffH
	DB	028H
	DB	024H
	DB	020H
	DB	0ffH
	DB	020H
	DB	024H
	DB	028H
	DB	0ffH
	DB	028H
	DB	024H
	DB	028H
	DB	0ffH
	DB	040H
	DB	044H
	DB	040H
	DB	0ffH
	DB	048H
	DB	04cH
	DB	048H
	DB	0ffH
	DB	048H
	DB	04cH
	DB	050H
	DB	0ffH
	DB	050H
	DB	04cH
	DB	050H
	DB	0ffH
	DB	048H
	DB	04cH
	DB	048H
	DB	0ffH
	DB	048H
	DB	04cH
	DB	048H
	DB	0ffH
	DB	050H
	DB	04cH
	DB	048H
	DB	0ffH
	DB	050H
	DB	04cH
	DB	050H
	DB	0ffH
	DB	038H
	DB	038H
	DB	038H
	DB	0ffH
	DB	038H
	DB	038H
	DB	038H
	DB	0ffH
	DB	038H
	DB	03cH
	DB	038H
	DB	0ffH
	DB	038H
	DB	03cH
	DB	038H
	DB	0ffH
	DB	040H
	DB	03cH
	DB	040H
	DB	0ffH
	DB	040H
	DB	03cH
	DB	040H
	DB	0ffH
	DB	040H
	DB	040H
	DB	040H
	DB	0ffH
	DB	040H
	DB	040H
	DB	040H
	DB	0ffH
	DB	040H
	DB	040H
	DB	040H
	DB	0ffH
	DB	040H
	DB	044H
	DB	040H
	DB	0ffH
	DB	048H
	DB	044H
	DB	048H
	DB	0ffH
	DB	048H
	DB	044H
	DB	040H
	DB	0ffH
	DB	048H
	DB	048H
	DB	048H
	DB	0ffH
	DB	048H
	DB	048H
	DB	048H
	DB	0ffH
	DB	048H
	DB	048H
	DB	048H
	DB	0ffH
	DB	048H
	DB	04cH
	DB	048H
	DB	0ffH
	DB	050H
	DB	04cH
	DB	050H
	DB	0ffH
	DB	050H
	DB	050H
	DB	050H
	DB	0ffH
	DB	050H
	DB	054H
	DB	050H
	DB	0ffH
	DB	058H
	DB	058H
	DB	058H
	DB	0ffH
	DB	040H
	DB	03cH
	DB	040H
	DB	0ffH
	DB	038H
	DB	03cH
	DB	038H
	DB	0ffH
	DB	038H
	DB	03cH
	DB	038H
	DB	0ffH
	DB	038H
	DB	038H
	DB	040H
	DB	0ffH
	DB	038H
	DB	03cH
	DB	038H
	DB	0ffH
	DB	038H
	DB	038H
	DB	038H
	DB	0ffH
	DB	038H
	DB	038H
	DB	038H
	DB	0ffH
	DB	038H
	DB	038H
	DB	038H
	DB	0ffH
	DB	028H
	DB	024H
	DB	028H
	DB	0ffH
	DB	020H
	DB	024H
	DB	028H
	DB	0ffH
	DB	028H
	DB	024H
	DB	028H
	DB	0ffH
	DB	028H
	DB	024H
	DB	028H
	DB	0ffH
	DB	040H
	DB	044H
	DB	040H
	DB	0ffH
	DB	048H
	DB	04cH
	DB	048H
	DB	0ffH
	DB	050H
	DB	04cH
	DB	050H
	DB	0ffH
	DB	050H
	DB	04cH
	DB	050H
	DB	0ffH
	DB	048H
	DB	04cH
	DB	048H
	DB	0ffH
	DB	050H
	DB	04cH
	DB	050H
	DB	0ffH
	DB	048H
	DB	04cH
	DB	048H
	DB	0ffH
	DB	050H
	DB	04cH
	DB	050H
	DB	0ffH
	DB	038H
	DB	03cH
	DB	038H
	DB	0ffH
	DB	038H
	DB	038H
	DB	038H
	DB	0ffH
	DB	040H
	DB	038H
	DB	040H
	DB	0ffH
	DB	038H
	DB	03cH
	DB	038H
	DB	0ffH
	DB	040H
	DB	03cH
	DB	040H
	DB	0ffH
	DB	040H
	DB	040H
	DB	040H
	DB	0ffH
	DB	040H
	DB	040H
	DB	040H
	DB	0ffH
	DB	040H
	DB	040H
	DB	040H
	DB	0ffH
	DB	040H
	DB	044H
	DB	040H
	DB	0ffH
	DB	048H
	DB	044H
	DB	040H
	DB	0ffH
	DB	048H
	DB	044H
	DB	048H
	DB	0ffH
	DB	048H
	DB	048H
	DB	048H
	DB	0ffH
	DB	048H
	DB	048H
	DB	048H
	DB	0ffH
	DB	048H
	DB	048H
	DB	048H
	DB	0ffH
	DB	048H
	DB	04cH
	DB	048H
	DB	0ffH
	DB	050H
	DB	04cH
	DB	050H
	DB	0ffH
	DB	050H
	DB	04cH
	DB	050H
	DB	0ffH
	DB	050H
	DB	050H
	DB	050H
	DB	0ffH
	DB	050H
	DB	054H
	DB	050H
	DB	0ffH
	DB	058H
	DB	058H
	DB	058H
	DB	0ffH
	DB	040H
	DB	03cH
	DB	040H
	DB	0ffH
	DB	040H
	DB	03cH
	DB	038H
	DB	0ffH
	DB	038H
	DB	03cH
	DB	038H
	DB	0ffH
	DB	038H
	DB	038H
	DB	038H
	DB	0ffH
	DB	040H
	DB	03cH
	DB	040H
	DB	0ffH
	DB	038H
	DB	038H
	DB	038H
	DB	0ffH
	DB	038H
	DB	038H
	DB	038H
	DB	0ffH
	DB	038H
	DB	038H
	DB	038H
	DB	0ffH
	DB	028H
	DB	024H
	DB	028H
	DB	0ffH
	DB	028H
	DB	024H
	DB	020H
	DB	0ffH
	DB	028H
	DB	024H
	DB	020H
	DB	0ffH
	DB	028H
	DB	024H
	DB	028H
	DB	0ffH
	DB	040H
	DB	044H
	DB	048H
	DB	0ffH
	DB	048H
	DB	04cH
	DB	048H
	DB	0ffH
	DB	050H
	DB	04cH
	DB	048H
	DB	0ffH
	DB	050H
	DB	04cH
	DB	050H
	DB	0ffH
	DB	048H
	DB	04cH
	DB	050H
	DB	0ffH
	DB	050H
	DB	04cH
	DB	048H
	DB	0ffH
	DB	048H
	DB	04cH
	DB	050H
	DB	0ffH
	DB	048H
	DB	04cH
	DB	048H
	DB	0ffH
	DB	038H
	DB	038H
	DB	038H
	DB	0ffH
	DB	038H
	DB	038H
	DB	038H
	DB	0ffH
	DB	038H
	DB	03cH
	DB	038H
	DB	0ffH
	DB	038H
	DB	03cH
	DB	038H
	DB	0ffH
	DB	040H
	DB	03cH
	DB	040H
	DB	0ffH
	DB	040H
	DB	040H
	DB	038H
	DB	0ffH
	DB	040H
	DB	040H
	DB	040H
	DB	0ffH
	DB	040H
	DB	040H
	DB	040H
	DB	0ffH
	DB	040H
	DB	040H
	DB	040H
	DB	0ffH
	DB	040H
	DB	044H
	DB	040H
	DB	0ffH
	DB	048H
	DB	044H
	DB	048H
	DB	0ffH
	DB	040H
	DB	048H
	DB	048H
	DB	0ffH
	DB	048H
	DB	048H
	DB	048H
	DB	0ffH
	DB	048H
	DB	048H
	DB	048H
	DB	0ffH
	DB	048H
	DB	04cH
	DB	048H
	DB	0ffH
	DB	048H
	DB	04cH
	DB	050H
	DB	0ffH
	DB	050H
	DB	04cH
	DB	048H
	DB	0ffH
	DB	050H
	DB	050H
	DB	050H
	DB	0ffH
	DB	050H
	DB	054H
	DB	050H
	DB	0ffH
	DB	058H
	DB	054H
	DB	058H
	DB	0ffH
	DB	040H
	DB	03cH
	DB	040H
	DB	0ffH
	DB	038H
	DB	03cH
	DB	040H
	DB	0ffH
	DB	040H
	DB	03cH
	DB	038H
	DB	0ffH
	DB	038H
	DB	038H
	DB	038H
	DB	0ffH
	DB	038H
	DB	03cH
	DB	038H
	DB	0ffH
	DB	038H
	DB	038H
	DB	038H
	DB	0ffH
	DB	038H
	DB	038H
	DB	038H
	DB	0ffH
	DB	038H
	DB	038H
	DB	038H
	DB	0ffH
	DB	028H
	DB	028H
	DB	028H
	DB	0ffH
	DB	020H
	DB	024H
	DB	028H
	DB	0ffH
	DB	020H
	DB	024H
	DB	028H
	DB	0ffH
	DB	028H
	DB	024H
	DB	020H
	DB	0ffH
	DB	040H
	DB	044H
	DB	040H
	DB	0ffH
	DB	048H
	DB	04cH
	DB	048H
	DB	0ffH
	DB	050H
	DB	04cH
	DB	050H
	DB	0ffH
	DB	050H
	DB	04cH
	DB	050H
	DB	0ffH
	DB	048H
	DB	04cH
	DB	048H
	DB	0ffH
	DB	050H
	DB	04cH
	DB	048H
	DB	0ffH
	DB	050H
	DB	04cH
	DB	050H
	DB	0ffH
	DB	050H
	DB	04cH
	DB	050H
	DB	0ffH
	DB	038H
	DB	038H
	DB	038H
	DB	0ffH
	DB	038H
	DB	038H
	DB	038H
	DB	0ffH
	DB	038H
	DB	03cH
	DB	038H
	DB	0ffH
	DB	040H
	DB	03cH
	DB	040H
	DB	0ffH
	DB	038H
	DB	03cH
	DB	040H
	DB	0ffH
	DB	040H
	DB	03cH
	DB	040H
	DB	0ffH
	DB	040H
	DB	040H
	DB	040H
	DB	0ffH
	DB	040H
	DB	040H
	DB	040H
	DB	0ffH
	DB	040H
	DB	044H
	DB	040H
	DB	0ffH
	DB	040H
	DB	044H
	DB	040H
	DB	0ffH
	DB	048H
	DB	044H
	DB	048H
	DB	0ffH
	DB	048H
	DB	044H
	DB	048H
	DB	0ffH
	DB	048H
	DB	048H
	DB	048H
	DB	0ffH
	DB	048H
	DB	048H
	DB	048H
	DB	0ffH
	DB	048H
	DB	04cH
	DB	048H
	DB	0ffH
	DB	050H
	DB	04cH
	DB	048H
	DB	0ffH
	DB	050H
	DB	04cH
	DB	050H
	DB	0ffH
	DB	050H
	DB	050H
	DB	050H
	DB	0ffH
	DB	050H
	DB	054H
	DB	050H
	DB	0ffH
	DB	058H
	DB	058H
	DB	058H
	DB	0ffH
	DB	040H
	DB	03cH
	DB	040H
	DB	0ffH
	DB	038H
	DB	03cH
	DB	038H
	DB	0ffH
	DB	038H
	DB	03cH
	DB	040H
	DB	0ffH
	DB	038H
	DB	038H
	DB	038H
	DB	0ffH
	DB	040H
	DB	03cH
	DB	038H
	DB	0ffH
	DB	038H
	DB	038H
	DB	038H
	DB	0ffH
	DB	038H
	DB	038H
	DB	038H
	DB	0ffH
	DB	038H
	DB	038H
	DB	038H
	DB	0ffH
	DB	028H
	DB	024H
	DB	028H
	DB	0ffH
	DB	028H
	DB	024H
	DB	020H
	DB	0ffH
	DB	028H
	DB	024H
	DB	028H
	DB	0ffH
	DB	028H
	DB	024H
	DB	028H
	DB	0ffH
	DB	040H
	DB	044H
	DB	040H
	DB	0ffH
	DB	048H
	DB	04cH
	DB	048H
	DB	0ffH
	DB	050H
	DB	04cH
	DB	050H
	DB	0ffH
	DB	048H
	DB	04cH
	DB	050H
	DB	0ffH
	DB	048H
	DB	04cH
	DB	048H
	DB	0ffH
	DB	048H
	DB	04cH
	DB	050H
	DB	0ffH
	DB	050H
	DB	04cH
	DB	048H
	DB	0ffH
	DB	048H
	DB	04cH
	DB	050H
	DB	0ffH
	DB	038H
	DB	038H
	DB	038H
	DB	0ffH
	DB	038H
	DB	038H
	DB	038H
	DB	0ffH
	DB	040H
	DB	03cH
	DB	038H
	DB	0ffH
	DB	038H
	DB	03cH
	DB	038H
	DB	0ffH
	DB	040H
	DB	03cH
	DB	040H
	DB	0ffH
	DB	040H
	DB	03cH
	DB	040H
	DB	0ffH
	DB	040H
	DB	040H
	DB	040H
	DB	0ffH
	DB	040H
	DB	040H
	DB	040H
	DB	0ffH
	DB	040H
	DB	040H
	DB	040H
	DB	0ffH
	DB	040H
	DB	044H
	DB	048H
	DB	0ffH
	DB	048H
	DB	044H
	DB	048H
	DB	0ffH
	DB	048H
	DB	048H
	DB	048H
	DB	0ffH
	DB	048H
	DB	048H
	DB	048H
	DB	0ffH
	DB	048H
	DB	048H
	DB	048H
	DB	0ffH
	DB	048H
	DB	048H
	DB	048H
	DB	0ffH
	DB	050H
	DB	04cH
	DB	050H
	DB	0ffH
	DB	048H
	DB	04cH
	DB	050H
	DB	0ffH
	DB	050H
	DB	050H
	DB	050H
	DB	0ffH
	DB	050H
	DB	054H
	DB	050H
	DB	0ffH
	DB	058H
	DB	058H
	DB	058H
	DB	0ffH
	DB	040H
	DB	03cH
	DB	038H
	DB	0ffH
	DB	038H
	DB	03cH
	DB	038H
	DB	0ffH
	DB	038H
	DB	03cH
	DB	040H
	DB	0ffH
	DB	040H
	DB	038H
	DB	038H
	DB	0ffH
	DB	038H
	DB	03cH
	DB	040H
	DB	0ffH
	DB	038H
	DB	038H
	DB	038H
	DB	0ffH
	DB	038H
	DB	038H
	DB	038H
	DB	0ffH
	DB	038H
	DB	038H
	DB	038H
	DB	0ffH
	DB	028H
	DB	028H
	DB	028H
	DB	0ffH
	DB	020H
	DB	024H
	DB	028H
	DB	0ffH
	DB	028H
	DB	024H
	DB	028H
	DB	0ffH
	DB	028H
	DB	024H
	DB	028H
	DB	0ffH
	DB	040H
	DB	044H
	DB	040H
	DB	0ffH
	DB	048H
	DB	04cH
	DB	048H
	DB	0ffH
	DB	050H
	DB	04cH
	DB	050H
	DB	0ffH
	DB	050H
	DB	04cH
	DB	048H
	DB	0ffH
	DB	048H
	DB	04cH
	DB	048H
	DB	0ffH
	DB	050H
	DB	04cH
	DB	050H
	DB	0ffH
	DB	048H
	DB	04cH
	DB	048H
	DB	0ffH
	DB	050H
	DB	04cH
	DB	048H
	DB	0ffH
	DB	038H
	DB	03cH
	DB	038H
	DB	0ffH
	DB	038H
	DB	038H
	DB	038H
	DB	0ffH
	DB	038H
	DB	038H
	DB	038H
	DB	0ffH
	DB	038H
	DB	03cH
	DB	038H
	DB	0ffH
	DB	040H
	DB	03cH
	DB	040H
	DB	0ffH
	DB	040H
	DB	040H
	DB	040H
	DB	0ffH
	DB	040H
	DB	040H
	DB	040H
	DB	0ffH
	DB	040H
	DB	040H
	DB	040H
	DB	0ffH
	DB	040H
	DB	044H
	DB	040H
	DB	0ffH
	DB	048H
	DB	044H
	DB	040H
	DB	0ffH
	DB	048H
	DB	044H
	DB	048H
	DB	0ffH
	DB	048H
	DB	048H
	DB	048H
	DB	0ffH
	DB	048H
	DB	048H
	DB	048H
	DB	0ffH
	DB	048H
	DB	048H
	DB	048H
	DB	0ffH
	DB	048H
	DB	04cH
	DB	048H
	DB	0ffH
	DB	048H
	DB	04cH
	DB	050H
	DB	0ffH
	DB	050H
	DB	04cH
	DB	048H
	DB	0ffH
	DB	050H
	DB	050H
	DB	050H
	DB	0ffH
	DB	050H
	DB	050H
	DB	050H
	DB	0ffH
	DB	058H
	DB	058H
	DB	058H
	DB	0ffH
	DB	040H
	DB	03cH
	DB	040H
	DB	0ffH
	DB	038H
	DB	03cH
	DB	040H
	DB	0ffH
	DB	040H
	DB	03cH
	DB	038H
	DB	0ffH
	DB	038H
	DB	03cH
	DB	038H
	DB	0ffH
	DB	038H
	DB	038H
	DB	038H
	DB	0ffH
	DB	038H
	DB	038H
	DB	038H
	DB	0ffH
	DB	038H
	DB	03cH
	DB	038H
	DB	0ffH
	DB	038H
	DB	038H
	DB	038H
	DB	0ffH
	DB	028H
	DB	024H
	DB	028H
	DB	0ffH
	DB	028H
	DB	024H
	DB	028H
	DB	0ffH
	DB	020H
	DB	024H
	DB	020H
	DB	0ffH
	DB	028H
	DB	024H
	DB	028H
	DB	0ffH
	DB	048H
	DB	044H
	DB	048H
	DB	0ffH
	DB	048H
	DB	048H
	DB	048H
	DB	0ffH
	DB	048H
	DB	04cH
	DB	050H
	DB	0ffH
	DB	050H
	DB	04cH
	DB	050H
	DB	0ffH
	DB	050H
	DB	04cH
	DB	048H
	DB	0ffH
	DB	048H
	DB	04cH
	DB	050H
	DB	0ffH
	DB	050H
	DB	04cH
	DB	050H
	DB	0ffH
	DB	050H
	DB	04cH
	DB	050H
	DB	0ffH
	DB	038H
	DB	038H
	DB	038H
	DB	0ffH
	DB	038H
	DB	038H
	DB	038H
	DB	0ffH
	DB	038H
	DB	03cH
	DB	040H
	DB	0ffH
	DB	038H
	DB	03cH
	DB	038H
	DB	0ffH
	DB	040H
	DB	03cH
	DB	040H
	DB	0ffH
	DB	040H
	DB	03cH
	DB	040H
	DB	0ffH
	DB	040H
	DB	040H
	DB	040H
	DB	0ffH
	DB	040H
	DB	040H
	DB	040H
	DB	0ffH
	DB	040H
	DB	040H
	DB	040H
	DB	0ffH
	DB	040H
	DB	044H
	DB	040H
	DB	0ffH
	DB	048H
	DB	044H
	DB	048H
	DB	0ffH
	DB	048H
	DB	044H
	DB	040H
	DB	0ffH
	DB	048H
	DB	048H
	DB	048H
	DB	0ffH
	DB	048H
	DB	048H
	DB	048H
	DB	0ffH
	DB	048H
	DB	04cH
	DB	048H
	DB	0ffH
	DB	050H
	DB	04cH
	DB	050H
	DB	0ffH
	DB	050H
	DB	04cH
	DB	050H
	DB	0ffH
	DB	050H
	DB	050H
	DB	050H
	DB	0ffH
	DB	050H
	DB	054H
	DB	050H
	DB	0ffH
	DB	058H
	DB	058H
	DB	058H
	DB	0ffH
	DB	040H
	DB	03cH
	DB	040H
	DB	0ffH
	DB	038H
	DB	03cH
	DB	038H
	DB	0ffH
	DB	038H
	DB	03cH
	DB	038H
	DB	0ffH
	DB	038H
	DB	038H
	DB	038H
	DB	0ffH
	DB	040H
	DB	03cH
	DB	040H
	DB	0ffH
	DB	038H
	DB	038H
	DB	038H
	DB	0ffH
	DB	038H
	DB	038H
	DB	038H
	DB	0ffH
	DB	038H
	DB	038H
	DB	038H
	DB	0ffH
	DB	028H
	DB	024H
	DB	028H
	DB	0ffH
	DB	020H
	DB	024H
	DB	020H
	DB	0ffH
	DB	028H
	DB	024H
	DB	028H
	DB	0ffH
	DB	020H
	DB	024H
	DB	020H
	DB	0ffH
	DB	040H
	DB	044H
	DB	040H
	DB	0ffH
	DB	048H
	DB	04cH
	DB	048H
	DB	0ffH
	DB	050H
	DB	04cH
	DB	050H
	DB	0ffH
	DB	050H
	DB	04cH
	DB	050H
	DB	0ffH
	DB	048H
	DB	04cH
	DB	048H
	DB	0ffH
	DB	048H
	DB	04cH
	DB	048H
	DB	0ffH
	DB	050H
	DB	04cH
	DB	050H
	DB	0ffH
	DB	048H
	DB	04cH
	DB	048H
	DB	0ffH
	DB	038H
	DB	038H
	DB	038H
	DB	0ffH
	DB	038H
	DB	038H
	DB	038H
	DB	0ffH
	DB	040H
	DB	03cH
	DB	038H
	DB	0ffH
	DB	038H
	DB	03cH
	DB	038H
	DB	0ffH
	DB	040H
	DB	03cH
	DB	040H
	DB	0ffH
	DB	040H
	DB	040H
	DB	040H
	DB	0ffH
	DB	040H
	DB	040H
	DB	040H
	DB	0ffH
	DB	040H
	DB	040H
	DB	040H
	DB	0ffH
	DB	040H
	DB	044H
	DB	040H
	DB	0ffH
	DB	040H
	DB	044H
	DB	040H
	DB	0ffH
	DB	048H
	DB	044H
	DB	048H
	DB	0ffH
	DB	040H
	DB	048H
	DB	048H
	DB	0ffH
	DB	048H
	DB	048H
	DB	048H
	DB	0ffH
	DB	048H
	DB	048H
	DB	048H
	DB	0ffH
	DB	048H
	DB	04cH
	DB	048H
	DB	0ffH
	DB	050H
	DB	04cH
	DB	048H
	DB	0ffH
	DB	048H
	DB	04cH
	DB	050H
	DB	0ffH
	DB	050H
	DB	050H
	DB	050H
	DB	0ffH
	DB	050H
	DB	054H
	DB	050H
	DB	0ffH
	DB	058H
	DB	058H
	DB	058H
	DB	0ffH
	DB	040H
	DB	03cH
	DB	040H
	DB	0ffH
	DB	040H
	DB	03cH
	DB	038H
	DB	0ffH
	DB	038H
	DB	03cH
	DB	040H
	DB	0ffH
	DB	038H
	DB	038H
	DB	038H
	DB	0ffH
	DB	038H
	DB	03cH
	DB	038H
	DB	0ffH
	DB	038H
	DB	038H
	DB	038H
	DB	0ffH
	DB	038H
	DB	038H
	DB	038H
	DB	0ffH
	DB	038H
	DB	038H
	DB	038H
	DB	0ffH
	DB	028H
	DB	028H
	DB	028H
	DB	0ffH
	DB	028H
	DB	024H
	DB	028H
	DB	0ffH
	DB	028H
	DB	024H
	DB	028H
	DB	0ffH
	DB	028H
	DB	024H
	DB	028H
	DB	0ffH
	DB	040H
	DB	044H
	DB	040H
	DB	0ffH
	DB	048H
	DB	04cH
	DB	048H
	DB	0ffH
	DB	050H
	DB	04cH
	DB	048H
	DB	0ffH
	DB	050H
	DB	04cH
	DB	050H
	DB	0ffH
	DB	048H
	DB	04cH
	DB	048H
	DB	0ffH
	DB	050H
	DB	04cH
	DB	050H
	DB	0ffH
	DB	048H
	DB	04cH
	DB	048H
	DB	0ffH
	DB	050H
	DB	04cH
	DB	050H
	DB	0ffH
	DB	038H
	DB	038H
	DB	038H
	DB	0ffH
	DB	038H
	DB	038H
	DB	038H
	DB	0ffH
	DB	038H
	DB	03cH
	DB	038H
	DB	0ffH
	DB	038H
	DB	03cH
	DB	040H
	DB	0ffH
	DB	040H
	DB	03cH
	DB	038H
	DB	0ffH
	DB	040H
	DB	03cH
	DB	040H
	DB	0ffH
	DB	040H
	DB	040H
	DB	040H
	DB	0ffH
	DB	040H
	DB	040H
	DB	040H
	DB	0ffH
	DB	040H
	DB	040H
	DB	040H
	DB	0ffH
	DB	040H
	DB	044H
	DB	040H
	DB	0ffH
	DB	048H
	DB	044H
	DB	048H
	DB	0ffH
	DB	048H
	DB	048H
	DB	048H
	DB	0ffH
	DB	048H
	DB	048H
	DB	048H
	DB	0ffH
	DB	048H
	DB	048H
	DB	048H
	DB	0ffH
	DB	048H
	DB	048H
	DB	048H
	DB	0ffH
	DB	050H
	DB	04cH
	DB	050H
	DB	0ffH
	DB	050H
	DB	04cH
	DB	050H
	DB	0ffH
	DB	050H
	DB	050H
	DB	050H
	DB	0ffH
	DB	050H
	DB	054H
	DB	050H
	DB	0ffH
	DB	058H
	DB	054H
	DB	058H
	DB	0ffH
	DB	040H
	DB	03cH
	DB	040H
	DB	0ffH
	DB	038H
	DB	03cH
	DB	038H
	DB	0ffH
	DB	040H
	DB	03cH
	DB	040H
	DB	0ffH
	DB	038H
	DB	038H
	DB	038H
	DB	0ffH
	DB	038H
	DB	03cH
	DB	038H
	DB	0ffH
	DB	038H
	DB	038H
	DB	038H
	DB	0ffH
	DB	038H
	DB	038H
	DB	038H
	DB	0ffH
	DB	038H
	DB	038H
	DB	038H
	DB	0ffH
	DB	028H
	DB	024H
	DB	028H
	DB	0ffH
	DB	028H
	DB	024H
	DB	020H
	DB	0ffH
	DB	028H
	DB	024H
	DB	028H
	DB	0ffH
	DB	028H
	DB	024H
	DB	028H
	DB	0ffH
	DB	040H
	DB	044H
	DB	048H
	DB	0ffH
	DB	048H
	DB	04cH
	DB	048H
	DB	0ffH
	DB	050H
	DB	04cH
	DB	050H
	DB	0ffH
	DB	048H
	DB	04cH
	DB	050H
	DB	0ffH
	DB	050H
	DB	04cH
	DB	048H
	DB	0ffH
	DB	048H
	DB	04cH
	DB	050H
	DB	0ffH
	DB	050H
	DB	04cH
	DB	050H
	DB	0ffH
	DB	050H
	DB	04cH
	DB	048H
	DB	0ffH
	DB	038H
	DB	03cH
	DB	038H
	DB	0ffH
	DB	038H
	DB	038H
	DB	038H
	DB	0ffH
	DB	038H
	DB	038H
	DB	040H
	DB	0ffH
	DB	038H
	DB	03cH
	DB	038H
	DB	0ffH
	DB	040H
	DB	03cH
	DB	040H
	DB	0ffH
	DB	040H
	DB	040H
	DB	040H
	DB	0ffH
	DB	040H
	DB	040H
	DB	040H
	DB	0ffH
	DB	040H
	DB	040H
	DB	040H
	DB	0ffH
	DB	040H
	DB	044H
	DB	040H
	DB	0ffH
	DB	040H
	DB	044H
	DB	048H
	DB	0ffH
	DB	048H
	DB	044H
	DB	048H
	DB	0ffH
	DB	048H
	DB	044H
	DB	048H
	DB	0ffH
	DB	048H
	DB	048H
	DB	048H
	DB	0ffH
	DB	048H
	DB	048H
	DB	048H
	DB	0ffH
	DB	048H
	DB	04cH
	DB	048H
	DB	0ffH
	DB	048H
	DB	04cH
	DB	048H
	DB	0ffH
	DB	050H
	DB	04cH
	DB	050H
	DB	0ffH
	DB	050H
	DB	050H
	DB	050H
	DB	0ffH
	DB	050H
	DB	054H
	DB	050H
	DB	0ffH
	DB	058H
	DB	058H
	DB	058H
	DB	0ffH
	DB	040H
	DB	03cH
	DB	040H
	DB	0ffH
	DB	038H
	DB	03cH
	DB	038H
	DB	0ffH
	DB	038H
	DB	03cH
	DB	038H
	DB	0ffH
	DB	040H
	DB	038H
	DB	040H
	DB	0ffH
	DB	040H
	DB	03cH
	DB	038H
	DB	0ffH
	DB	038H
	DB	038H
	DB	038H
	DB	0ffH
	DB	038H
	DB	038H
	DB	038H
	DB	0ffH
	DB	038H
	DB	038H
	DB	038H
	DB	0ffH
	DB	028H
	DB	024H
	DB	028H
	DB	0ffH
	DB	020H
	DB	024H
	DB	028H
	DB	0ffH
	DB	020H
	DB	024H
	DB	020H
	DB	0ffH
	DB	028H
	DB	024H
	DB	020H
	DB	0ffH
	DB	048H
	DB	044H
	DB	040H
	DB	0ffH
	DB	048H
	DB	04cH
	DB	048H
	DB	0ffH
	DB	048H
	DB	04cH
	DB	050H
	DB	0ffH
	DB	050H
	DB	04cH
	DB	050H
	DB	0ffH
	DB	048H
	DB	04cH
	DB	048H
	DB	0ffH
	DB	048H
	DB	04cH
	DB	048H
	DB	0ffH
	DB	050H
	DB	04cH
	DB	050H
	DB	0ffH
	DB	048H
	DB	04cH
	DB	050H
	DB	0ffH
	DB	038H
	DB	038H
	DB	038H
	DB	0ffH
	DB	038H
	DB	038H
	DB	038H
	DB	0ffH
	DB	038H
	DB	03cH
	DB	038H
	DB	0ffH
	DB	040H
	DB	03cH
	DB	038H
	DB	0ffH
	DB	040H
	DB	03cH
	DB	040H
	DB	0ffH
	DB	038H
	DB	03cH
	DB	040H
	DB	0ffH
	DB	040H
	DB	040H
	DB	040H
	DB	0ffH
	DB	040H
	DB	040H
	DB	040H
	DB	0ffH
	DB	040H
	DB	040H
	DB	040H
	DB	0ffH
	DB	048H
	DB	044H
	DB	040H
	DB	0ffH
	DB	048H
	DB	044H
	DB	048H
	DB	0ffH
	DB	048H
	DB	048H
	DB	048H
	DB	0ffH
	DB	048H
	DB	048H
	DB	048H
	DB	0ffH
	DB	048H
	DB	048H
	DB	048H
	DB	0ffH
	DB	048H
	DB	04cH
	DB	048H
	DB	0ffH
	DB	050H
	DB	04cH
	DB	050H
	DB	0ffH
	DB	050H
	DB	04cH
	DB	048H
	DB	0ffH
	DB	050H
	DB	050H
	DB	050H
	DB	0ffH
	DB	050H
	DB	054H
	DB	050H
	DB	0ffH
	DB	058H
	DB	058H
	DB	058H
	DB	0ffH
	DB	040H
	DB	03cH
	DB	040H
	DB	0ffH
	DB	038H
	DB	03cH
	DB	038H
	DB	0ffH
	DB	038H
	DB	03cH
	DB	038H
	DB	0ffH
	DB	038H
	DB	038H
	DB	040H
	DB	0ffH
	DB	038H
	DB	03cH
	DB	038H
	DB	0ffH
	DB	038H
	DB	038H
	DB	038H
	DB	0ffH
	DB	038H
	DB	038H
	DB	038H
	DB	0ffH
	DB	038H
	DB	038H
	DB	038H
	DB	0ffH
	DB	028H
	DB	028H
	DB	028H
	DB	0ffH
	DB	028H
	DB	024H
	DB	028H
	DB	0ffH
	DB	028H
	DB	024H
	DB	028H
	DB	0ffH
	DB	020H
	DB	024H
	DB	028H
	DB	0ffH
	DB	048H
	DB	044H
	DB	040H
	DB	0ffH
	DB	048H
	DB	04cH
	DB	048H
	DB	0ffH
	DB	050H
	DB	04cH
	DB	050H
	DB	0ffH
	DB	050H
	DB	04cH
	DB	050H
	DB	0ffH
	DB	048H
	DB	04cH
	DB	048H
	DB	0ffH
	DB	050H
	DB	04cH
	DB	048H
	DB	0ffH
	DB	050H
	DB	04cH
	DB	050H
	DB	0ffH
	DB	048H
	DB	04cH
	DB	048H
	DB	0ffH
	DB	038H
	DB	038H
	DB	038H
	DB	0ffH
	DB	038H
	DB	038H
	DB	038H
	DB	0ffH
	DB	038H
	DB	03cH
	DB	038H
	DB	0ffH
	DB	040H
	DB	03cH
	DB	038H
	DB	0ffH
	DB	038H
	DB	03cH
	DB	040H
	DB	0ffH
	DB	040H
	DB	040H
	DB	040H
	DB	0ffH
	DB	040H
	DB	040H
	DB	040H
	DB	0ffH
	DB	040H
	DB	040H
	DB	040H
	DB	0ffH
	DB	040H
	DB	044H
	DB	040H
	DB	0ffH
	DB	040H
	DB	044H
	DB	040H
	DB	0ffH
	DB	048H
	DB	044H
	DB	040H
	DB	0ffH
	DB	048H
	DB	048H
	DB	048H
	DB	0ffH
	DB	048H
	DB	048H
	DB	048H
	DB	0ffH
	DB	048H
	DB	048H
	DB	048H
	DB	0ffH
	DB	048H
	DB	048H
	DB	048H
	DB	0ffH
	DB	048H
	DB	04cH
	DB	050H
	DB	0ffH
	DB	050H
	DB	04cH
	DB	050H
	DB	0ffH
	DB	050H
	DB	050H
	DB	050H
	DB	0ffH
	DB	050H
	DB	050H
	DB	050H
	DB	0ffH
	DB	058H
	DB	058H
	DB	058H
	DB	0ffH
	DB	040H
	DB	03cH
	DB	040H
	DB	0ffH
	DB	040H
	DB	03cH
	DB	038H
	DB	0ffH
	DB	038H
	DB	03cH
	DB	040H
	DB	0ffH
	DB	038H
	DB	038H
	DB	038H
	DB	0ffH
	DB	038H
	DB	03cH
	DB	038H
	DB	0ffH
	DB	038H
	DB	038H
	DB	038H
	DB	0ffH
	DB	038H
	DB	038H
	DB	038H
	DB	0ffH
	DB	038H
	DB	038H
	DB	038H
	DB	0ffH
	DB	028H
	DB	028H
	DB	028H
	DB	0ffH
	DB	020H
	DB	024H
	DB	020H
	DB	0ffH
	DB	028H
	DB	024H
	DB	028H
	DB	0ffH
	DB	020H
	DB	024H
	DB	028H
	DB	0ffH
	DB	040H
	DB	044H
	DB	048H
	DB	0ffH
	DB	048H
	DB	04cH
	DB	048H
	DB	0ffH
	DB	050H
	DB	04cH
	DB	048H
	DB	0ffH
	DB	050H
	DB	04cH
	DB	050H
	DB	0ffH
	DB	048H
	DB	04cH
	DB	048H
	DB	0ffH
	DB	050H
	DB	04cH
	DB	050H
	DB	0ffH
	DB	048H
	DB	04cH
	DB	050H
	DB	0ffH
	DB	050H
	DB	04cH
	DB	048H
	DB	0ffH
	DB	038H
	DB	03cH
	DB	038H
	DB	0ffH
	DB	038H
	DB	038H
	DB	038H
	DB	0ffH
	DB	038H
	DB	038H
	DB	040H
	DB	0ffH
	DB	038H
	DB	03cH
	DB	038H
	DB	0ffH
	DB	040H
	DB	03cH
	DB	040H
	DB	0ffH
	DB	040H
	DB	03cH
	DB	040H
	DB	0ffH
	DB	040H
	DB	040H
	DB	040H
	DB	0ffH
	DB	040H
	DB	040H
	DB	040H
	DB	0ffH
	DB	040H
	DB	040H
	DB	040H
	DB	0ffH
	DB	040H
	DB	044H
	DB	048H
	DB	0ffH
	DB	048H
	DB	044H
	DB	048H
	DB	0ffH
	DB	048H
	DB	044H
	DB	048H
	DB	0ffH
	DB	048H
	DB	048H
	DB	048H
	DB	0ffH
	DB	048H
	DB	048H
	DB	048H
	DB	0ffH
	DB	048H
	DB	04cH
	DB	048H
	DB	0ffH
	DB	050H
	DB	04cH
	DB	048H
	DB	0ffH
	DB	048H
	DB	04cH
	DB	050H
	DB	0ffH
	DB	050H
	DB	050H
	DB	050H
	DB	0ffH
	DB	050H
	DB	054H
	DB	050H
	DB	0ffH
	DB	058H
	DB	058H
	DB	058H
	DB	0ffH
	DB	040H
	DB	03cH
	DB	040H
	DB	0ffH
	DB	038H
	DB	03cH
	DB	038H
	DB	0ffH
	DB	040H
	DB	03cH
	DB	038H
	DB	0ffH
	DB	038H
	DB	038H
	DB	038H
	DB	0ffH
	DB	040H
	DB	03cH
	DB	040H
	DB	0ffH
	DB	038H
	DB	038H
	DB	038H
	DB	0ffH
	DB	038H
	DB	038H
	DB	038H
	DB	0ffH
	DB	038H
	DB	038H
	DB	038H
	DB	0ffH
	DB	028H
	DB	024H
	DB	028H
	DB	0ffH
	DB	028H
	DB	024H
	DB	028H
	DB	0ffH
	DB	028H
	DB	024H
	DB	020H
	DB	0ffH
	DB	028H
	DB	024H
	DB	028H
	DB	0ffH
	DB	040H
	DB	044H
	DB	040H
	DB	0ffH
	DB	048H
	DB	04cH
	DB	048H
	DB	0ffH
	DB	050H
	DB	04cH
	DB	050H
	DB	0ffH
	DB	048H
	DB	04cH
	DB	050H
	DB	0ffH
	DB	048H
	DB	04cH
	DB	048H
	DB	0ffH
	DB	050H
	DB	04cH
	DB	048H
	DB	0ffH
	DB	048H
	DB	04cH
	DB	050H
	DB	0ffH
	DB	050H
	DB	04cH
	DB	050H
	DB	0ffH
	DB	038H
	DB	038H
	DB	038H
	DB	0ffH
	DB	038H
	DB	038H
	DB	038H
	DB	0ffH
	DB	040H
	DB	03cH
	DB	038H
	DB	0ffH
	DB	038H
	DB	03cH
	DB	038H
	DB	0ffH
	DB	040H
	DB	03cH
	DB	040H
	DB	0ffH
	DB	040H
	DB	040H
	DB	040H
	DB	0ffH
	DB	040H
	DB	040H
	DB	040H
	DB	0ffH
	DB	040H
	DB	040H
	DB	040H
	DB	0ffH
	DB	040H
	DB	044H
	DB	040H
	DB	0ffH
	DB	040H
	DB	044H
	DB	040H
	DB	0ffH
	DB	048H
	DB	044H
	DB	048H
	DB	0ffH
	DB	048H
	DB	048H
	DB	048H
	DB	0ffH
	DB	048H
	DB	048H
	DB	048H
	DB	0ffH
	DB	048H
	DB	048H
	DB	048H
	DB	0ffH
	DB	048H
	DB	04cH
	DB	048H
	DB	0ffH
	DB	050H
	DB	04cH
	DB	050H
	DB	0ffH
	DB	050H
	DB	04cH
	DB	050H
	DB	0ffH
	DB	050H
	DB	050H
	DB	050H
	DB	0ffH
	DB	050H
	DB	054H
	DB	050H
	DB	0ffH
	DB	058H
	DB	058H
	DB	058H
	DB	0ffH
	DB	038H
	DB	03cH
	DB	040H
	DB	0ffH
	DB	038H
	DB	03cH
	DB	040H
	DB	0ffH
	DB	040H
	DB	03cH
	DB	038H
	DB	0ffH
	DB	038H
	DB	038H
	DB	038H
	DB	0ffH
	DB	038H
	DB	03cH
	DB	040H
	DB	0ffH
	DB	038H
	DB	038H
	DB	038H
	DB	0ffH
	DB	038H
	DB	038H
	DB	038H
	DB	0ffH
	DB	038H
	DB	038H
	DB	038H
	DB	0ffH
	DB	028H
	DB	024H
	DB	028H
	DB	0ffH
	DB	028H
	DB	024H
	DB	020H
	DB	0ffH
	DB	028H
	DB	024H
	DB	028H
	DB	0ffH
	DB	028H
	DB	024H
	DB	020H
	DB	0ffH
	DB	040H
	DB	044H
	DB	040H
	DB	0ffH
	DB	048H
	DB	04cH
	DB	048H
	DB	0ffH
	DB	050H
	DB	04cH
	DB	050H
	DB	0ffH
	DB	050H
	DB	04cH
	DB	050H
	DB	0ffH
	DB	048H
	DB	04cH
	DB	048H
	DB	0ffH
	DB	050H
	DB	04cH
	DB	048H
	DB	0ffH
	DB	050H
	DB	04cH
	DB	050H
	DB	0ffH
	DB	048H
	DB	04cH
	DB	048H
	DB	0ffH
	DB	038H
	DB	038H
	DB	038H
	DB	0ffH
	DB	038H
	DB	038H
	DB	038H
	DB	0ffH
	DB	038H
	DB	03cH
	DB	038H
	DB	0ffH
	DB	038H
	DB	03cH
	DB	040H
	DB	0ffH
	DB	040H
	DB	03cH
	DB	038H
	DB	0ffH
	DB	040H
	DB	03cH
	DB	040H
	DB	0ffH
	DB	040H
	DB	040H
	DB	040H
	DB	0ffH
	DB	040H
	DB	040H
	DB	040H
	DB	0ffH
	DB	040H
	DB	040H
	DB	040H
	DB	0ffH
	DB	040H
	DB	044H
	DB	040H
	DB	0ffH
	DB	048H
	DB	044H
	DB	048H
	DB	0ffH
	DB	048H
	DB	048H
	DB	048H
	DB	0ffH
	DB	048H
	DB	048H
	DB	048H
	DB	0ffH
	DB	048H
	DB	048H
	DB	048H
	DB	0ffH
	DB	048H
	DB	04cH
	DB	048H
	DB	0ffH
	DB	048H
	DB	04cH
	DB	048H
	DB	0ffH
	DB	050H
	DB	04cH
	DB	050H
	DB	0ffH
	DB	050H
	DB	050H
	DB	050H
	DB	0ffH
	DB	050H
	DB	054H
	DB	050H
	DB	0ffH
	DB	058H
	DB	054H
	DB	058H
	DB	0ffH
	DB	040H
	DB	03cH
	DB	040H
	DB	0ffH
	DB	040H
	DB	03cH
	DB	038H
	DB	0ffH
	DB	038H
	DB	03cH
	DB	038H
	DB	0ffH
	DB	038H
	DB	03cH
	DB	038H
	DB	0ffH
	DB	038H
	DB	038H
	DB	038H
	DB	0ffH
	DB	038H
	DB	038H
	DB	038H
	DB	0ffH
	DB	038H
	DB	03cH
	DB	038H
	DB	0ffH
	DB	038H
	DB	038H
	DB	038H
	DB	0ffH
	DB	028H
	DB	028H
	DB	028H
	DB	0ffH
	DB	020H
	DB	024H
	DB	028H
	DB	0ffH
	DB	020H
	DB	024H
	DB	028H
	DB	0ffH
	DB	028H
	DB	024H
	DB	028H
	DB	0ffH
	DB	048H
	DB	044H
	DB	048H
	DB	0ffH
	DB	048H
	DB	04cH
	DB	048H
	DB	0ffH
	DB	048H
	DB	04cH
	DB	048H
	DB	0ffH
	DB	050H
	DB	04cH
	DB	050H
	DB	0ffH
	DB	048H
	DB	04cH
	DB	050H
	DB	0ffH
	DB	048H
	DB	04cH
	DB	050H
	DB	0ffH
	DB	050H
	DB	04cH
	DB	048H
	DB	0ffH
	DB	050H
	DB	04cH
	DB	050H
	DB	0ffH
	DB	038H
	DB	03cH
	DB	038H
	DB	0ffH
	DB	038H
	DB	038H
	DB	038H
	DB	0ffH
	DB	038H
	DB	038H
	DB	038H
	DB	0ffH
	DB	040H
	DB	03cH
	DB	040H
	DB	0ffH
	DB	040H
	DB	03cH
	DB	040H
	DB	0ffH
	DB	038H
	DB	040H
	DB	038H
	DB	0ffH
	DB	040H
	DB	040H
	DB	040H
	DB	0ffH
	DB	040H
	DB	040H
	DB	040H
	DB	0ffH
	DB	040H
	DB	044H
	DB	040H
	DB	0ffH
	DB	040H
	DB	044H
	DB	040H
	DB	0ffH
	DB	048H
	DB	044H
	DB	048H
	DB	0ffH
	DB	048H
	DB	044H
	DB	048H
	DB	0ffH
	DB	048H
	DB	048H
	DB	048H
	DB	0ffH
	DB	048H
	DB	048H
	DB	048H
	DB	0ffH
	DB	048H
	DB	048H
	DB	048H
	DB	0ffH
	DB	050H
	DB	04cH
	DB	050H
	DB	0ffH
	DB	050H
	DB	04cH
	DB	048H
	DB	0ffH
	DB	050H
	DB	050H
	DB	050H
	DB	0ffH
	DB	050H
	DB	054H
	DB	050H
	DB	0ffH
	DB	058H
	DB	058H
	DB	058H
	DB	0ffH
	DB	040H
	DB	03cH
	DB	040H
	DB	0ffH
	DB	038H
	DB	03cH
	DB	038H
	DB	0ffH
	DB	038H
	DB	03cH
	DB	040H
	DB	0ffH
	DB	040H
	DB	038H
	DB	038H
	DB	0ffH
	DB	040H
	DB	03cH
	DB	038H
	DB	0ffH
	DB	038H
	DB	038H
	DB	038H
	DB	0ffH
	DB	038H
	DB	038H
	DB	038H
	DB	0ffH
	DB	038H
	DB	038H
	DB	038H
	DB	0ffH
	DB	028H
	DB	024H
	DB	028H
	DB	0ffH
	DB	028H
	DB	024H
	DB	028H
	DB	0ffH
	DB	028H
	DB	024H
	DB	020H
	DB	0ffH
	DB	020H
	DB	024H
	DB	028H
	DB	0ffH
	DB	048H
	DB	044H
	DB	048H
	DB	0ffH
	DB	048H
	DB	04cH
	DB	048H
	DB	0ffH
	DB	050H
	DB	04cH
	DB	048H
	DB	0ffH
	DB	050H
	DB	04cH
	DB	050H
	DB	0ffH
	DB	048H
	DB	04cH
	DB	048H
	DB	0ffH
	DB	050H
	DB	04cH
	DB	048H
	DB	0ffH
	DB	048H
	DB	04cH
	DB	050H
	DB	0ffH
	DB	048H
	DB	04cH
	DB	050H
	DB	0ffH
	DB	038H
	DB	038H
	DB	038H
	DB	0ffH
	DB	038H
	DB	038H
	DB	038H
	DB	0ffH
	DB	038H
	DB	03cH
	DB	038H
	DB	0ffH
	DB	038H
	DB	03cH
	DB	038H
	DB	0ffH
	DB	040H
	DB	03cH
	DB	040H
	DB	0ffH
	DB	040H
	DB	03cH
	DB	040H
	DB	0ffH
	DB	040H
	DB	040H
	DB	040H
	DB	0ffH
	DB	040H
	DB	040H
	DB	040H
	DB	0ffH
	DB	040H
	DB	040H
	DB	040H
	DB	0ffH
	DB	048H
	DB	044H
	DB	040H
	DB	0ffH
	DB	048H
	DB	044H
	DB	048H
	DB	0ffH
	DB	040H
	DB	048H
	DB	048H
	DB	0ffH
	DB	048H
	DB	048H
	DB	048H
	DB	0ffH
	DB	048H
	DB	048H
	DB	048H
	DB	0ffH
	DB	048H
	DB	04cH
	DB	048H
	DB	0ffH
	DB	048H
	DB	04cH
	DB	050H
	DB	0ffH
	DB	050H
	DB	04cH
	DB	050H
	DB	0ffH
	DB	050H
	DB	050H
	DB	050H
	DB	0ffH
	DB	050H
	DB	054H
	DB	050H
	DB	0ffH
	DB	058H
	DB	058H
	DB	058H
	DB	0ffH
	DB	040H
	DB	03cH
	DB	040H
	DB	0ffH
	DB	038H
	DB	03cH
	DB	038H
	DB	0ffH
	DB	038H
	DB	03cH
	DB	040H
	DB	0ffH
	DB	038H
	DB	038H
	DB	038H
	DB	0ffH
	DB	038H
	DB	03cH
	DB	040H
	DB	0ffH
	DB	038H
	DB	038H
	DB	038H
	DB	0ffH
	DB	038H
	DB	038H
	DB	038H
	DB	0ffH
	DB	038H
	DB	038H
	DB	038H
	DB	0ffH
	DB	028H
	DB	024H
	DB	028H
	DB	0ffH
	DB	020H
	DB	024H
	DB	020H
	DB	0ffH
	DB	028H
	DB	024H
	DB	028H
	DB	0ffH
	DB	020H
	DB	024H
	DB	020H
	DB	0ffH
	DB	040H
	DB	044H
	DB	040H
	DB	0ffH
	DB	048H
	DB	04cH
	DB	048H
	DB	0ffH
	DB	050H
	DB	04cH
	DB	050H
	DB	0ffH
	DB	050H
	DB	04cH
	DB	050H
	DB	0ffH
	DB	048H
	DB	04cH
	DB	048H
	DB	0ffH
	DB	050H
	DB	04cH
	DB	048H
	DB	0ffH
	DB	050H
	DB	04cH
	DB	050H
	DB	0ffH
	DB	048H
	DB	04cH
	DB	048H
	DB	0ffH
	DB	038H
	DB	038H
	DB	038H
	DB	0ffH
	DB	038H
	DB	038H
	DB	038H
	DB	0ffH
	DB	040H
	DB	03cH
	DB	038H
	DB	0ffH
	DB	038H
	DB	03cH
	DB	040H
	DB	0ffH
	DB	040H
	DB	03cH
	DB	040H
	DB	0ffH
	DB	040H
	DB	040H
	DB	040H
	DB	0ffH
	DB	040H
	DB	040H
	DB	040H
	DB	0ffH
	DB	040H
	DB	040H
	DB	040H
	DB	0ffH
	DB	040H
	DB	044H
	DB	040H
	DB	0ffH
	DB	040H
	DB	044H
	DB	040H
	DB	0ffH
	DB	048H
	DB	044H
	DB	048H
	DB	0ffH
	DB	048H
	DB	048H
	DB	048H
	DB	0ffH
	DB	048H
	DB	048H
	DB	048H
	DB	0ffH
	DB	048H
	DB	048H
	DB	048H
	DB	0ffH
	DB	048H
	DB	04cH
	DB	048H
	DB	0ffH
	DB	050H
	DB	04cH
	DB	048H
	DB	0ffH
	DB	048H
	DB	04cH
	DB	050H
	DB	0ffH
	DB	050H
	DB	050H
	DB	050H
	DB	0ffH
	DB	050H
	DB	050H
	DB	050H
	DB	0ffH
	DB	058H
	DB	058H
	DB	058H
	DB	0ffH
	DB	040H
	DB	03cH
	DB	040H
	DB	0ffH
	DB	040H
	DB	03cH
	DB	038H
	DB	0ffH
	DB	038H
	DB	03cH
	DB	038H
	DB	0ffH
	DB	038H
	DB	038H
	DB	038H
	DB	0ffH
	DB	040H
	DB	03cH
	DB	038H
	DB	0ffH
	DB	038H
	DB	038H
	DB	038H
	DB	0ffH
	DB	038H
	DB	038H
	DB	038H
	DB	0ffH
	DB	038H
	DB	038H
	DB	038H
	DB	0ffH
	DB	028H
	DB	028H
	DB	028H
	DB	0ffH
	DB	028H
	DB	024H
	DB	028H
	DB	0ffH
	DB	028H
	DB	024H
	DB	028H
	DB	0ffH
	DB	028H
	DB	024H
	DB	028H
	DB	0ffH
	DB	040H
	DB	044H
	DB	040H
	DB	0ffH
	DB	048H
	DB	04cH
	DB	048H
	DB	0ffH
	DB	050H
	DB	04cH
	DB	050H
	DB	0ffH
	DB	048H
	DB	04cH
	DB	050H
	DB	0ffH
	DB	048H
	DB	04cH
	DB	048H
	DB	0ffH
	DB	050H
	DB	04cH
	DB	050H
	DB	0ffH
	DB	050H
	DB	04cH
	DB	050H
	DB	0ffH
	DB	050H
	DB	04cH
	DB	048H
	DB	0ffH
	DB	038H
	DB	03cH
	DB	038H
	DB	0ffH
	DB	038H
	DB	038H
	DB	038H
	DB	0ffH
	DB	038H
	DB	03cH
	DB	038H
	DB	0ffH
	DB	038H
	DB	03cH
	DB	038H
	DB	0ffH
	DB	040H
	DB	03cH
	DB	040H
	DB	0ffH
	DB	040H
	DB	03cH
	DB	038H
	DB	0ffH
	DB	040H
	DB	040H
	DB	040H
	DB	0ffH
	DB	040H
	DB	040H
	DB	040H
	DB	0ffH
	DB	040H
	DB	040H
	DB	040H
	DB	0ffH
	DB	040H
	DB	044H
	DB	048H
	DB	0ffH
	DB	048H
	DB	044H
	DB	040H
	DB	0ffH
	DB	048H
	DB	044H
	DB	048H
	DB	0ffH
	DB	048H
	DB	048H
	DB	048H
	DB	0ffH
	DB	048H
	DB	048H
	DB	048H
	DB	0ffH
	DB	048H
	DB	048H
	DB	048H
	DB	0ffH
	DB	050H
	DB	04cH
	DB	050H
	DB	0ffH
	DB	050H
	DB	04cH
	DB	048H
	DB	0ffH
	DB	050H
	DB	050H
	DB	050H
	DB	0ffH
	DB	050H
	DB	054H
	DB	050H
	DB	0ffH
	DB	058H
	DB	058H
	DB	058H
	DB	0ffH
	DB	040H
	DB	03cH
	DB	040H
	DB	0ffH
	DB	038H
	DB	03cH
	DB	038H
	DB	0ffH
	DB	038H
	DB	03cH
	DB	040H
	DB	0ffH
	DB	040H
	DB	038H
	DB	038H
	DB	0ffH
	DB	038H
	DB	03cH
	DB	038H
	DB	0ffH
	DB	038H
	DB	038H
	DB	038H
	DB	0ffH
	DB	038H
	DB	038H
	DB	038H
	DB	0ffH
	DB	038H
	DB	038H
	DB	038H
	DB	0ffH
	DB	028H
	DB	024H
	DB	028H
	DB	0ffH
	DB	020H
	DB	024H
	DB	020H
	DB	0ffH
	DB	028H
	DB	024H
	DB	028H
	DB	0ffH
	DB	028H
	DB	024H
	DB	028H
	DB	0ffH
	DB	040H
	DB	044H
	DB	040H
	DB	0ffH
	DB	048H
	DB	04cH
	DB	048H
	DB	0ffH
	DB	050H
	DB	04cH
	DB	050H
	DB	0ffH
	DB	050H
	DB	04cH
	DB	050H
	DB	0ffH
	DB	048H
	DB	04cH
	DB	048H
	DB	0ffH
	DB	048H
	DB	04cH
	DB	048H
	DB	0ffH
	DB	048H
	DB	04cH
	DB	050H
	DB	0ffH
	DB	050H
	DB	04cH
	DB	050H
	DB	0ffH
	DB	038H
	DB	038H
	DB	038H
	DB	0ffH
	DB	038H
	DB	038H
	DB	038H
	DB	0ffH
	DB	038H
	DB	038H
	DB	040H
	DB	0ffH
	DB	040H
	DB	03cH
	DB	038H
	DB	0ffH
	DB	038H
	DB	03cH
	DB	040H
	DB	0ffH
	DB	040H
	DB	03cH
	DB	040H
	DB	0ffH
	DB	040H
	DB	040H
	DB	040H
	DB	0ffH
	DB	040H
	DB	040H
	DB	040H
	DB	0ffH
	DB	040H
	DB	044H
	DB	040H
	DB	0ffH
	DB	040H
	DB	044H
	DB	040H
	DB	0ffH
	DB	048H
	DB	044H
	DB	048H
	DB	0ffH
	DB	048H
	DB	048H
	DB	048H
	DB	0ffH
	DB	048H
	DB	048H
	DB	048H
	DB	0ffH
	DB	048H
	DB	048H
	DB	048H
	DB	0ffH
	DB	048H
	DB	04cH
	DB	048H
	DB	0ffH
	DB	048H
	DB	04cH
	DB	050H
	DB	0ffH
	DB	050H
	DB	04cH
	DB	050H
	DB	0ffH
	DB	050H
	DB	050H
	DB	050H
	DB	0ffH
	DB	050H
	DB	054H
	DB	050H
	DB	0ffH
	DB	058H
	DB	058H
	DB	058H
	DB	0ffH
	DB	040H
	DB	03cH
	DB	040H
	DB	0ffH
	DB	038H
	DB	03cH
	DB	038H
	DB	0ffH
	DB	038H
	DB	03cH
	DB	040H
	DB	0ffH
	DB	038H
	DB	038H
	DB	038H
	DB	0ffH
	DB	038H
	DB	03cH
	DB	040H
	DB	0ffH
	DB	038H
	DB	038H
	DB	038H
	DB	0ffH
	DB	038H
	DB	038H
	DB	038H
	DB	0ffH
	DB	038H
	DB	038H
	DB	038H
	DB	0ffH
	DB	028H
	DB	028H
	DB	028H
	DB	0ffH
	DB	028H
	DB	024H
	DB	028H
	DB	0ffH
	DB	020H
	DB	024H
	DB	020H
	DB	0ffH
	DB	028H
	DB	024H
	DB	028H
	DB	0ffH
	DB	048H
	DB	044H
	DB	048H
	DB	0ffH
	DB	048H
	DB	04cH
	DB	048H
	DB	0ffH
	DB	048H
	DB	04cH
	DB	048H
	DB	0ffH
	DB	050H
	DB	04cH
	DB	050H
	DB	0ffH
	DB	050H
	DB	04cH
	DB	048H
	DB	0ffH
	DB	048H
	DB	04cH
	DB	050H
	DB	0ffH
	DB	050H
	DB	04cH
	DB	048H
	DB	0ffH
	DB	048H
	DB	04cH
	DB	050H
	DB	0ffH
	DB	038H
	DB	038H
	DB	038H
	DB	0ffH
	DB	038H
	DB	038H
	DB	038H
	DB	0ffH
	DB	038H
	DB	03cH
	DB	038H
	DB	0ffH
	DB	040H
	DB	03cH
	DB	038H
	DB	0ffH
	DB	040H
	DB	03cH
	DB	040H
	DB	0ffH
	DB	040H
	DB	040H
	DB	040H
	DB	0ffH
	DB	040H
	DB	040H
	DB	040H
	DB	0ffH
	DB	040H
	DB	040H
	DB	040H
	DB	0ffH
	DB	040H
	DB	040H
	DB	040H
	DB	0ffH
	DB	048H
	DB	044H
	DB	040H
	DB	0ffH
	DB	048H
	DB	044H
	DB	048H
	DB	0ffH
	DB	040H
	DB	048H
	DB	048H
	DB	0ffH
	DB	048H
	DB	048H
	DB	048H
	DB	0ffH
	DB	048H
	DB	048H
	DB	048H
	DB	0ffH
	DB	048H
	DB	04cH
	DB	048H
	DB	0ffH
	DB	050H
	DB	04cH
	DB	048H
	DB	0ffH
	DB	050H
	DB	04cH
	DB	050H
	DB	0ffH
	DB	050H
	DB	050H
	DB	050H
	DB	0ffH
	DB	050H
	DB	054H
	DB	050H
	DB	0ffH
	DB	058H
	DB	054H
	DB	058H
	DB	0ffH
	DB	040H
	DB	03cH
	DB	040H
	DB	0ffH
	DB	040H
	DB	03cH
	DB	038H
	DB	0ffH
	DB	038H
	DB	03cH
	DB	038H
	DB	0ffH
	DB	040H
	DB	038H
	DB	038H
	DB	0ffH
	DB	038H
	DB	03cH
	DB	038H
	DB	0ffH
	DB	038H
	DB	038H
	DB	038H
	DB	0ffH
	DB	038H
	DB	038H
	DB	038H
	DB	0ffH
	DB	038H
	DB	038H
	DB	038H
	DB	0ffH
	DB	028H
	DB	024H
	DB	028H
	DB	0ffH
	DB	028H
	DB	024H
	DB	028H
	DB	0ffH
	DB	028H
	DB	024H
	DB	028H
	DB	0ffH
	DB	020H
	DB	024H
	DB	020H
	DB	0ffH
	DB	048H
	DB	044H
	DB	040H
	DB	0ffH
	DB	048H
	DB	04cH
	DB	048H
	DB	0ffH
	DB	048H
	DB	04cH
	DB	050H
	DB	0ffH
	DB	050H
	DB	04cH
	DB	050H
	DB	0ffH
	DB	050H
	DB	04cH
	DB	048H
	DB	0ffH
	DB	048H
	DB	04cH
	DB	050H
	DB	0ffH
	DB	050H
	DB	04cH
	DB	048H
	DB	0ffH
	DB	050H
	DB	04cH
	DB	048H
	DB	0ffH
	DB	038H
	DB	038H
	DB	038H
	DB	0ffH
	DB	038H
	DB	038H
	DB	038H
	DB	0ffH
	DB	038H
	DB	03cH
	DB	038H
	DB	0ffH
	DB	038H
	DB	03cH
	DB	040H
	DB	0ffH
	DB	040H
	DB	03cH
	DB	040H
	DB	0ffH
	DB	040H
	DB	040H
	DB	038H
	DB	0ffH
	DB	040H
	DB	040H
	DB	040H
	DB	0ffH
	DB	040H
	DB	040H
	DB	040H
	DB	0ffH
	DB	040H
	DB	044H
	DB	040H
	DB	0ffH
	DB	040H
	DB	044H
	DB	048H
	DB	0ffH
	DB	048H
	DB	044H
	DB	048H
	DB	0ffH
	DB	048H
	DB	044H
	DB	048H
	DB	0ffH
	DB	048H
	DB	048H
	DB	048H
	DB	0ffH
	DB	048H
	DB	048H
	DB	048H
	DB	0ffH
	DB	048H
	DB	04cH
	DB	048H
	DB	0ffH
	DB	050H
	DB	04cH
	DB	050H
	DB	0ffH
	DB	048H
	DB	04cH
	DB	050H
	DB	0ffH
	DB	050H
	DB	050H
	DB	050H
	DB	0ffH
	DB	050H
	DB	054H
	DB	050H
	DB	0ffH
	DB	058H
	DB	058H
	DB	058H
	DB	0ffH
	DB	040H
	DB	03cH
	DB	040H
	DB	0ffH
	DB	038H
	DB	03cH
	DB	040H
	DB	0ffH
	DB	038H
	DB	03cH
	DB	038H
	DB	0ffH
	DB	038H
	DB	03cH
	DB	038H
	DB	0ffH
	DB	040H
	DB	038H
	DB	040H
	DB	0ffH
	DB	038H
	DB	038H
	DB	038H
	DB	0ffH
	DB	038H
	DB	03cH
	DB	038H
	DB	0ffH
	DB	038H
	DB	038H
	DB	038H
	DB	0ffH
	DB	028H
	DB	024H
	DB	028H
	DB	0ffH
	DB	020H
	DB	024H
	DB	020H
	DB	0ffH
	DB	028H
	DB	024H
	DB	028H
	DB	0ffH
	DB	020H
	DB	024H
	DB	028H
	DB	0ffH
	DB	040H
	DB	044H
	DB	040H
	DB	0ffH
	DB	048H
	DB	04cH
	DB	048H
	DB	0ffH
	DB	050H
	DB	04cH
	DB	050H
	DB	0ffH
	DB	050H
	DB	04cH
	DB	050H
	DB	0ffH
	DB	048H
	DB	04cH
	DB	048H
	DB	0ffH
	DB	048H
	DB	04cH
	DB	050H
	DB	0ffH
	DB	050H
	DB	04cH
	DB	050H
	DB	0ffH
	DB	048H
	DB	04cH
	DB	050H
	DB	0ffH
	DB	038H
	DB	03cH
	DB	038H
	DB	0ffH
	DB	038H
	DB	038H
	DB	038H
	DB	0ffH
	DB	038H
	DB	03cH
	DB	038H
	DB	0ffH
	DB	038H
	DB	03cH
	DB	038H
	DB	0ffH
	DB	040H
	DB	03cH
	DB	040H
	DB	0ffH
	DB	038H
	DB	03cH
	DB	040H
	DB	0ffH
	DB	040H
	DB	040H
	DB	040H
	DB	0ffH
	DB	040H
	DB	040H
	DB	040H
	DB	0ffH
	DB	040H
	DB	040H
	DB	040H
	DB	0ffH
	DB	040H
	DB	044H
	DB	040H
	DB	0ffH
	DB	048H
	DB	044H
	DB	048H
	DB	0ffH
	DB	048H
	DB	048H
	DB	048H
	DB	0ffH
	DB	048H
	DB	048H
	DB	048H
	DB	0ffH
	DB	048H
	DB	048H
	DB	048H
	DB	0ffH
	DB	048H
	DB	048H
	DB	048H
	DB	0ffH
	DB	048H
	DB	04cH
	DB	048H
	DB	0ffH
	DB	050H
	DB	04cH
	DB	050H
	DB	0ffH
	DB	050H
	DB	050H
	DB	050H
	DB	0ffH
	DB	050H
	DB	054H
	DB	050H
	DB	0ffH
	DB	058H
	DB	058H
	DB	058H
	DB	0ffH
	DB	040H
	DB	03cH
	DB	040H
	DB	0ffH
	DB	038H
	DB	03cH
	DB	038H
	DB	0ffH
	DB	038H
	DB	03cH
	DB	038H
	DB	0ffH
	DB	038H
	DB	038H
	DB	040H
	DB	0ffH
	DB	040H
	DB	03cH
	DB	038H
	DB	0ffH
	DB	038H
	DB	038H
	DB	038H
	DB	0ffH
	DB	038H
	DB	038H
	DB	038H
	DB	0ffH
	DB	038H
	DB	038H
	DB	038H
	DB	0ffH
	DB	028H
	DB	028H
	DB	028H
	DB	0ffH
	DB	028H
	DB	024H
	DB	028H
	DB	0ffH
	DB	028H
	DB	024H
	DB	028H
	DB	0ffH
	DB	028H
	DB	024H
	DB	028H
	DB	0ffH
	DB	048H
	DB	044H
	DB	040H
	DB	0ffH
	DB	048H
	DB	04cH
	DB	048H
	DB	0ffH
	DB	050H
	DB	04cH
	DB	050H
	DB	0ffH
	DB	050H
	DB	04cH
	DB	048H
	DB	0ffH
	DB	048H
	DB	04cH
	DB	048H
	DB	0ffH
	DB	050H
	DB	04cH
	DB	048H
	DB	0ffH
	DB	048H
	DB	04cH
	DB	050H
	DB	0ffH
	DB	050H
	DB	04cH
	DB	048H
	DB	0ffH
	DB	038H
	DB	038H
	DB	038H
	DB	0ffH
	DB	038H
	DB	038H
	DB	038H
	DB	0ffH
	DB	040H
	DB	038H
	DB	040H
	DB	0ffH
	DB	040H
	DB	03cH
	DB	038H
	DB	0ffH
	DB	040H
	DB	03cH
	DB	040H
	DB	0ffH
	DB	040H
	DB	03cH
	DB	040H
	DB	0ffH
	DB	040H
	DB	040H
	DB	040H
	DB	0ffH
	DB	040H
	DB	040H
	DB	040H
	DB	0ffH
	DB	040H
	DB	044H
	DB	040H
	DB	0ffH
	DB	040H
	DB	044H
	DB	040H
	DB	0ffH
	DB	048H
	DB	044H
	DB	048H
	DB	0ffH
	DB	048H
	DB	048H
	DB	040H
	DB	0ffH
	DB	048H
	DB	048H
	DB	048H
	DB	0ffH
	DB	048H
	DB	048H
	DB	048H
	DB	0ffH
	DB	048H
	DB	04cH
	DB	048H
	DB	0ffH
	DB	050H
	DB	04cH
	DB	050H
	DB	0ffH
	DB	050H
	DB	04cH
	DB	048H
	DB	0ffH
	DB	050H
	DB	050H
	DB	050H
	DB	0ffH
	DB	050H
	DB	050H
	DB	050H
	DB	0ffH
	DB	058H
	DB	058H
	DB	058H
	DB	0ffH
	DB	040H
	DB	03cH
	DB	040H
	DB	0ffH
	DB	040H
	DB	03cH
	DB	038H
	DB	0ffH
	DB	038H
	DB	03cH
	DB	038H
	DB	0ffH
	DB	038H
	DB	038H
	DB	038H
	DB	0ffH
	DB	038H
	DB	03cH
	DB	040H
	DB	0ffH
	DB	038H
	DB	038H
	DB	038H
	DB	0ffH
	DB	038H
	DB	038H
	DB	038H
	DB	0ffH
	DB	038H
	DB	038H
	DB	038H
	DB	0ffH
	DB	028H
	DB	024H
	DB	028H
	DB	0ffH
	DB	020H
	DB	024H
	DB	020H
	DB	0ffH
	DB	020H
	DB	024H
	DB	020H
	DB	0ffH
	DB	028H
	DB	024H
	DB	028H
	DB	0ffH
	DB	040H
	DB	044H
	DB	048H
	DB	0ffH
	DB	048H
	DB	04cH
	DB	048H
	DB	0ffH
	DB	048H
	DB	04cH
	DB	050H
	DB	0ffH
	DB	050H
	DB	04cH
	DB	050H
	DB	0ffH
	DB	048H
	DB	04cH
	DB	048H
	DB	0ffH
	DB	050H
	DB	04cH
	DB	050H
	DB	0ffH
	DB	050H
	DB	04cH
	DB	048H
	DB	0ffH
	DB	048H
	DB	04cH
	DB	050H
	DB	0ffH
	DB	038H
	DB	038H
	DB	038H
	DB	0ffH
	DB	038H
	DB	038H
	DB	038H
	DB	0ffH
	DB	038H
	DB	03cH
	DB	038H
	DB	0ffH
	DB	038H
	DB	03cH
	DB	038H
	DB	0ffH
	DB	040H
	DB	03cH
	DB	040H
	DB	0ffH
	DB	040H
	DB	040H
	DB	040H
	DB	0ffH
	DB	040H
	DB	040H
	DB	040H
	DB	0ffH
	DB	040H
	DB	040H
	DB	040H
	DB	0ffH
	DB	040H
	DB	040H
	DB	040H
	DB	0ffH
	DB	048H
	DB	044H
	DB	048H
	DB	0ffH
	DB	048H
	DB	044H
	DB	048H
	DB	0ffH
	DB	048H
	DB	044H
	DB	048H
	DB	0ffH
	DB	048H
	DB	048H
	DB	048H
	DB	0ffH
	DB	048H
	DB	048H
	DB	048H
	DB	0ffH
	DB	048H
	DB	04cH
	DB	048H
	DB	0ffH
	DB	050H
	DB	04cH
	DB	050H
	DB	0ffH
	DB	050H
	DB	04cH
	DB	050H
	DB	0ffH
	DB	050H
	DB	050H
	DB	050H
	DB	0ffH
	DB	050H
	DB	054H
	DB	050H
	DB	0ffH
	DB	058H
	DB	058H
	DB	058H
	DB	0ffH
	DB	040H
	DB	03cH
	DB	040H
	DB	0ffH
	DB	038H
	DB	03cH
	DB	040H
	DB	0ffH
	DB	040H
	DB	03cH
	DB	038H
	DB	0ffH
	DB	038H
	DB	038H
	DB	038H
	DB	0ffH
	DB	038H
	DB	03cH
	DB	038H
	DB	0ffH
	DB	038H
	DB	038H
	DB	038H
	DB	0ffH
	DB	038H
	DB	038H
	DB	038H
	DB	0ffH
	DB	038H
	DB	038H
	DB	038H
	DB	0ffH
	DB	028H
	DB	024H
	DB	028H
	DB	0ffH
	DB	028H
	DB	024H
	DB	028H
	DB	0ffH
	DB	028H
	DB	024H
	DB	028H
	DB	0ffH
	DB	028H
	DB	024H
	DB	020H
	DB	0ffH
	DB	040H
	DB	044H
	DB	040H
	DB	0ffH
	DB	048H
	DB	04cH
	DB	048H
	DB	0ffH
	DB	050H
	DB	04cH
	DB	050H
	DB	0ffH
	DB	050H
	DB	04cH
	DB	050H
	DB	0ffH
	DB	048H
	DB	04cH
	DB	048H
	DB	0ffH
	DB	048H
	DB	04cH
	DB	050H
	DB	0ffH
	DB	050H
	DB	04cH
	DB	050H
	DB	0ffH
	DB	050H
	DB	04cH
	DB	048H
	DB	0ffH
	DB	038H
	DB	03cH
	DB	038H
	DB	0ffH
	DB	038H
	DB	038H
	DB	038H
	DB	0ffH
	DB	038H
	DB	03cH
	DB	038H
	DB	0ffH
	DB	038H
	DB	03cH
	DB	040H
	DB	0ffH
	DB	040H
	DB	03cH
	DB	040H
	DB	0ffH
	DB	038H
	DB	03cH
	DB	038H
	DB	0ffH
	DB	040H
	DB	040H
	DB	040H
	DB	0ffH
	DB	040H
	DB	040H
	DB	040H
	DB	0ffH
	DB	040H
	DB	044H
	DB	040H
	DB	0ffH
	DB	040H
	DB	044H
	DB	040H
	DB	0ffH
	DB	048H
	DB	044H
	DB	048H
	DB	0ffH
	DB	040H
	DB	048H
	DB	048H
	DB	0ffH
	DB	048H
	DB	048H
	DB	048H
	DB	0ffH
	DB	048H
	DB	048H
	DB	048H
	DB	0ffH
	DB	048H
	DB	048H
	DB	048H
	DB	0ffH
	DB	048H
	DB	04cH
	DB	048H
	DB	0ffH
	DB	050H
	DB	04cH
	DB	050H
	DB	0ffH
	DB	050H
	DB	050H
	DB	050H
	DB	0ffH
	DB	050H
	DB	054H
	DB	050H
	DB	0ffH
	DB	058H
	DB	058H
	DB	058H
	DB	0ffH
	DB	038H
	DB	03cH
	DB	040H
	DB	0ffH
	DB	038H
	DB	03cH
	DB	038H
	DB	0ffH
	DB	040H
	DB	03cH
	DB	040H
	DB	0ffH
	DB	038H
	DB	038H
	DB	038H
	DB	0ffH
	DB	040H
	DB	03cH
	DB	038H
	DB	0ffH
	DB	038H
	DB	038H
	DB	038H
	DB	0ffH
	DB	038H
	DB	038H
	DB	038H
	DB	0ffH
	DB	038H
	DB	038H
	DB	038H
	DB	0ffH
	DB	028H
	DB	028H
	DB	028H
	DB	0ffH
	DB	020H
	DB	024H
	DB	028H
	DB	0ffH
	DB	028H
	DB	024H
	DB	028H
	DB	0ffH
	DB	028H
	DB	024H
	DB	028H
	DB	0ffH
	DB	040H
	DB	044H
	DB	040H
	DB	0ffH
	DB	048H
	DB	04cH
	DB	048H
	DB	0ffH
	DB	050H
	DB	04cH
	DB	050H
	DB	0ffH
	DB	050H
	DB	04cH
	DB	048H
	DB	0ffH
	DB	048H
	DB	04cH
	DB	048H
	DB	0ffH
	DB	048H
	DB	04cH
	DB	050H
	DB	0ffH
	DB	050H
	DB	04cH
	DB	048H
	DB	0ffH
	DB	048H
	DB	04cH
	DB	050H
	DB	0ffH
	DB	038H
	DB	038H
	DB	038H
	DB	0ffH
	DB	038H
	DB	038H
	DB	038H
	DB	0ffH
	DB	038H
	DB	03cH
	DB	038H
	DB	0ffH
	DB	040H
	DB	03cH
	DB	038H
	DB	0ffH
	DB	040H
	DB	03cH
	DB	040H
	DB	0ffH
	DB	040H
	DB	040H
	DB	040H
	DB	0ffH
	DB	040H
	DB	040H
	DB	040H
	DB	0ffH
	DB	040H
	DB	040H
	DB	040H
	DB	0ffH
	DB	040H
	DB	040H
	DB	040H
	DB	0ffH
	DB	040H
	DB	044H
	DB	040H
	DB	0ffH
	DB	048H
	DB	044H
	DB	048H
	DB	0ffH
	DB	048H
	DB	048H
	DB	048H
	DB	0ffH
	DB	048H
	DB	048H
	DB	048H
	DB	0ffH
	DB	048H
	DB	048H
	DB	048H
	DB	0ffH
	DB	048H
	DB	04cH
	DB	048H
	DB	0ffH
	DB	050H
	DB	04cH
	DB	050H
	DB	0ffH
	DB	048H
	DB	04cH
	DB	050H
	DB	0ffH
	DB	050H
	DB	050H
	DB	050H
	DB	0ffH
	DB	050H
	DB	054H
	DB	050H
	DB	0ffH
	DB	058H
	DB	054H
	DB	058H
	DB	0ffH
	DB	040H
	DB	03cH
	DB	038H
	DB	0ffH
	DB	040H
	DB	03cH
	DB	038H
	DB	0ffH
	DB	038H
	DB	03cH
	DB	040H
	DB	0ffH
	DB	038H
	DB	038H
	DB	038H
	DB	0ffH
	DB	038H
	DB	03cH
	DB	040H
	DB	0ffH
	DB	038H
	DB	038H
	DB	038H
	DB	0ffH
	DB	038H
	DB	038H
	DB	038H
	DB	0ffH
	DB	038H
	DB	038H
	DB	038H
	DB	0ffH
	DB	028H
	DB	024H
	DB	028H
	DB	0ffH
	DB	028H
	DB	024H
	DB	020H
	DB	0ffH
	DB	020H
	DB	024H
	DB	028H
	DB	0ffH
	DB	028H
	DB	024H
	DB	028H
	DB	0ffH
	DB	040H
	DB	044H
	DB	040H
	DB	0ffH
	DB	048H
	DB	04cH
	DB	048H
	DB	0ffH
	DB	050H
	DB	04cH
	DB	050H
	DB	0ffH
	DB	050H
	DB	04cH
	DB	050H
	DB	0ffH
	DB	048H
	DB	04cH
	DB	048H
	DB	0ffH
	DB	050H
	DB	04cH
	DB	050H
	DB	0ffH
	DB	050H
	DB	04cH
	DB	048H
	DB	0ffH
	DB	048H
	DB	04cH
	DB	050H
	DB	0ffH
	DB	038H
	DB	038H
	DB	038H
	DB	0ffH
	DB	038H
	DB	038H
	DB	038H
	DB	0ffH
	DB	038H
	DB	038H
	DB	038H
	DB	0ffH
	DB	038H
	DB	03cH
	DB	040H
	DB	0ffH
	DB	040H
	DB	03cH
	DB	040H
	DB	0ffH
	DB	040H
	DB	03cH
	DB	040H
	DB	0ffH
	DB	040H
	DB	040H
	DB	040H
	DB	0ffH
	DB	040H
	DB	040H
	DB	040H
	DB	0ffH
	DB	040H
	DB	044H
	DB	040H
	DB	0ffH
	DB	048H
	DB	044H
	DB	040H
	DB	0ffH
	DB	048H
	DB	044H
	DB	048H
	DB	0ffH
	DB	048H
	DB	044H
	DB	048H
	DB	0ffH
	DB	048H
	DB	048H
	DB	048H
	DB	0ffH
	DB	048H
	DB	048H
	DB	048H
	DB	0ffH
	DB	048H
	DB	04cH
	DB	048H
	DB	0ffH
	DB	050H
	DB	04cH
	DB	048H
	DB	0ffH
	DB	050H
	DB	04cH
	DB	050H
	DB	0ffH
	DB	050H
	DB	050H
	DB	050H
	DB	0ffH
	DB	050H
	DB	054H
	DB	050H
	DB	0ffH
	DB	058H
	DB	058H
	DB	058H
	DB	0ffH
	DB	040H
	DB	03cH
	DB	040H
	DB	0ffH
	DB	038H
	DB	03cH
	DB	040H
	DB	0ffH
	DB	038H
	DB	03cH
	DB	038H
	DB	0ffH
	DB	038H
	DB	038H
	DB	038H
	DB	0ffH
	DB	040H
	DB	03cH
	DB	038H
	DB	0ffH
	DB	038H
	DB	038H
	DB	038H
	DB	0ffH
	DB	038H
	DB	038H
	DB	038H
	DB	0ffH
	DB	038H
	DB	038H
	DB	038H
	DB	0ffH
	DB	028H
	DB	028H
	DB	028H
	DB	0ffH
	DB	020H
	DB	024H
	DB	028H
	DB	0ffH
	DB	028H
	DB	024H
	DB	020H
	DB	0ffH
	DB	028H
	DB	024H
	DB	028H
	DB	0ffH
	DB	040H
	DB	044H
	DB	048H
	DB	0ffH
	DB	048H
	DB	04cH
	DB	048H
	DB	0ffH
	DB	050H
	DB	04cH
	DB	048H
	DB	0ffH
	DB	048H
	DB	04cH
	DB	050H
	DB	0ffH
	DB	048H
	DB	04cH
	DB	050H
	DB	0ffH
	DB	050H
	DB	04cH
	DB	048H
	DB	0ffH
	DB	048H
	DB	04cH
	DB	050H
	DB	0ffH
	DB	050H
	DB	04cH
	DB	048H
	DB	0ffH
	DB	038H
	DB	038H
	DB	038H
	DB	0ffH
	DB	038H
	DB	038H
	DB	038H
	DB	0ffH
	DB	040H
	DB	03cH
	DB	038H
	DB	0ffH
	DB	038H
	DB	03cH
	DB	038H
	DB	0ffH
	DB	040H
	DB	03cH
	DB	040H
	DB	0ffH
	DB	040H
	DB	040H
	DB	040H
	DB	0ffH
	DB	040H
	DB	040H
	DB	040H
	DB	0ffH
	DB	040H
	DB	040H
	DB	040H
	DB	0ffH
	DB	040H
	DB	040H
	DB	040H
	DB	0ffH
	DB	040H
	DB	044H
	DB	040H
	DB	0ffH
	DB	048H
	DB	044H
	DB	048H
	DB	0ffH
	DB	048H
	DB	048H
	DB	048H
	DB	0ffH
	DB	048H
	DB	048H
	DB	048H
	DB	0ffH
	DB	048H
	DB	048H
	DB	048H
	DB	0ffH
	DB	048H
	DB	04cH
	DB	048H
	DB	0ffH
	DB	048H
	DB	04cH
	DB	050H
	DB	0ffH
	DB	050H
	DB	04cH
	DB	048H
	DB	0ffH
	DB	050H
	DB	050H
	DB	050H
	DB	0ffH
	DB	050H
	DB	054H
	DB	050H
	DB	0ffH
	DB	058H
	DB	058H
	DB	058H
	DB	0ffH
	DB	040H
	DB	03cH
	DB	040H
	DB	0ffH
	DB	038H
	DB	03cH
	DB	038H
	DB	0ffH
	DB	040H
	DB	03cH
	DB	038H
	DB	0ffH
	DB	038H
	DB	03cH
	DB	038H
	DB	0ffH
	DB	038H
	DB	038H
	DB	040H
	DB	0ffH
	DB	038H
	DB	038H
	DB	038H
	DB	0ffH
	DB	038H
	DB	03cH
	DB	038H
	DB	0ffH
	DB	038H
	DB	038H
	DB	038H
	DB	0ffH
	DB	028H
	DB	024H
	DB	028H
	DB	0ffH
	DB	028H
	DB	024H
	DB	020H
	DB	0ffH
	DB	028H
	DB	024H
	DB	028H
	DB	0ffH
	DB	028H
	DB	024H
	DB	020H
	DB	0ffH
	DB	040H
	DB	044H
	DB	040H
	DB	0ffH
	DB	048H
	DB	04cH
	DB	048H
	DB	0ffH
	DB	050H
	DB	04cH
	DB	050H
	DB	0ffH
	DB	050H
	DB	04cH
	DB	050H
	DB	0ffH
	DB	048H
	DB	04cH
	DB	048H
	DB	0ffH
	DB	050H
	DB	04cH
	DB	048H
	DB	0ffH
	DB	048H
	DB	04cH
	DB	050H
	DB	0ffH
	DB	050H
	DB	04cH
	DB	050H
	DB	0ffH
	DB	038H
	DB	03cH
	DB	038H
	DB	0ffH
	DB	038H
	DB	038H
	DB	038H
	DB	0ffH
	DB	038H
	DB	03cH
	DB	040H
	DB	0ffH
	DB	038H
	DB	03cH
	DB	038H
	DB	0ffH
	DB	040H
	DB	03cH
	DB	038H
	DB	0ffH
	DB	040H
	DB	03cH
	DB	040H
	DB	0ffH
	DB	040H
	DB	040H
	DB	040H
	DB	0ffH
	DB	040H
	DB	040H
	DB	040H
	DB	0ffH
	DB	040H
	DB	044H
	DB	040H
	DB	0ffH
	DB	040H
	DB	044H
	DB	048H
	DB	0ffH
	DB	048H
	DB	044H
	DB	048H
	DB	0ffH
	DB	048H
	DB	048H
	DB	040H
	DB	0ffH
	DB	048H
	DB	048H
	DB	048H
	DB	0ffH
	DB	048H
	DB	048H
	DB	048H
	DB	0ffH
	DB	048H
	DB	048H
	DB	048H
	DB	0ffH
	DB	050H
	DB	04cH
	DB	050H
	DB	0ffH
	DB	050H
	DB	04cH
	DB	050H
	DB	0ffH
	DB	050H
	DB	050H
	DB	050H
	DB	0ffH
	DB	050H
	DB	050H
	DB	050H
	DB	0ffH
	DB	058H
	DB	058H
	DB	058H
	DB	0ffH
	DB	040H
	DB	03cH
	DB	040H
	DB	0ffH
	DB	038H
	DB	03cH
	DB	038H
	DB	0ffH
	DB	040H
	DB	03cH
	DB	040H
	DB	0ffH
	DB	038H
	DB	038H
	DB	038H
	DB	0ffH
	DB	038H
	DB	03cH
	DB	038H
	DB	0ffH
	DB	038H
	DB	038H
	DB	038H
	DB	0ffH
	DB	038H
	DB	038H
	DB	038H
	DB	0ffH
	DB	038H
	DB	038H
	DB	038H
	DB	0ffH
	DB	028H
	DB	024H
	DB	028H
	DB	0ffH
	DB	028H
	DB	024H
	DB	028H
	DB	0ffH
	DB	020H
	DB	024H
	DB	028H
	DB	0ffH
	DB	028H
	DB	024H
	DB	028H
	DB	0ffH
	DB	040H
	DB	044H
	DB	040H
	DB	0ffH
	DB	048H
	DB	04cH
	DB	048H
	DB	0ffH
	DB	050H
	DB	04cH
	DB	050H
	DB	0ffH
	DB	050H
	DB	04cH
	DB	050H
	DB	0ffH
	DB	048H
	DB	04cH
	DB	048H
	DB	0ffH
	DB	050H
	DB	04cH
	DB	048H
	DB	0ffH
	DB	050H
	DB	04cH
	DB	050H
	DB	0ffH
	DB	048H
	DB	04cH
	DB	050H
	DB	0ffH
	DB	038H
	DB	038H
	DB	038H
	DB	0ffH
	DB	038H
	DB	038H
	DB	038H
	DB	0ffH
	DB	038H
	DB	03cH
	DB	038H
	DB	0ffH
	DB	040H
	DB	03cH
	DB	040H
	DB	0ffH
	DB	038H
	DB	03cH
	DB	040H
	DB	0ffH
	DB	040H
	DB	03cH
	DB	040H
	DB	0ffH
	DB	040H
	DB	040H
	DB	040H
	DB	0ffH
	DB	040H
	DB	040H
	DB	040H
	DB	0ffH
	DB	040H
	DB	040H
	DB	040H
	DB	0ffH
	DB	040H
	DB	044H
	DB	040H
	DB	0ffH
	DB	048H
	DB	044H
	DB	048H
	DB	0ffH
	DB	048H
	DB	044H
	DB	048H
	DB	0ffH
	DB	048H
	DB	048H
	DB	048H
	DB	0ffH
	DB	048H
	DB	048H
	DB	048H
	DB	0ffH
	DB	048H
	DB	04cH
	DB	048H
	DB	0ffH
	DB	048H
	DB	04cH
	DB	048H
	DB	0ffH
	DB	050H
	DB	04cH
	DB	050H
	DB	0ffH
	DB	050H
	DB	050H
	DB	050H
	DB	0ffH
	DB	050H
	DB	054H
	DB	050H
	DB	0ffH
	DB	058H
	DB	058H
	DB	058H
	DB	0ffH
	DB	040H
	DB	03cH
	DB	040H
	DB	0ffH
	DB	038H
	DB	03cH
	DB	038H
	DB	0ffH
	DB	038H
	DB	03cH
	DB	040H
	DB	0ffH
	DB	040H
	DB	038H
	DB	038H
	DB	0ffH
	DB	038H
	DB	03cH
	DB	038H
	DB	0ffH
	DB	038H
	DB	038H
	DB	038H
	DB	0ffH
	DB	038H
	DB	038H
	DB	038H
	DB	0ffH
	DB	038H
	DB	038H
	DB	038H
	DB	0ffH
	DB	028H
	DB	028H
	DB	028H
	DB	0ffH
	DB	020H
	DB	024H
	DB	020H
	DB	0ffH
	DB	028H
	DB	024H
	DB	028H
	DB	0ffH
	DB	028H
	DB	024H
	DB	028H
	DB	0ffH
	DB	040H
	DB	044H
	DB	040H
	DB	0ffH
	DB	048H
	DB	04cH
	DB	048H
	DB	0ffH
	DB	050H
	DB	04cH
	DB	050H
	DB	0ffH
	DB	048H
	DB	04cH
	DB	050H
	DB	0ffH
	DB	048H
	DB	04cH
	DB	048H
	DB	0ffH
	DB	050H
	DB	04cH
	DB	050H
	DB	0ffH
	DB	048H
	DB	04cH
	DB	048H
	DB	0ffH
	DB	050H
	DB	04cH
	DB	048H
	DB	0ffH
	DB	038H
	DB	038H
	DB	038H
	DB	0ffH
	DB	038H
	DB	038H
	DB	038H
	DB	0ffH
	DB	038H
	DB	03cH
	DB	038H
	DB	0ffH
	DB	040H
	DB	03cH
	DB	038H
	DB	0ffH
	DB	040H
	DB	03cH
	DB	040H
	DB	0ffH
	DB	038H
	DB	040H
	DB	040H
	DB	0ffH
	DB	040H
	DB	040H
	DB	040H
	DB	0ffH
	DB	040H
	DB	040H
	DB	040H
	DB	0ffH
	DB	040H
	DB	044H
	DB	040H
	DB	0ffH
	DB	040H
	DB	044H
	DB	040H
	DB	0ffH
	DB	048H
	DB	044H
	DB	048H
	DB	0ffH
	DB	048H
	DB	048H
	DB	048H
	DB	0ffH
	DB	048H
	DB	048H
	DB	048H
	DB	0ffH
	DB	048H
	DB	048H
	DB	048H
	DB	0ffH
	DB	048H
	DB	04cH
	DB	048H
	DB	0ffH
	DB	050H
	DB	04cH
	DB	050H
	DB	0ffH
	DB	048H
	DB	04cH
	DB	050H
	DB	0ffH
	DB	050H
	DB	050H
	DB	050H
	DB	0ffH
	DB	050H
	DB	054H
	DB	050H
	DB	0ffH
	DB	058H
	DB	058H
	DB	058H
	DB	0ffH
	DB	040H
	DB	03cH
	DB	040H
	DB	0ffH
	DB	038H
	DB	03cH
	DB	038H
	DB	0ffH
	DB	038H
	DB	03cH
	DB	038H
	DB	0ffH
	DB	038H
	DB	038H
	DB	040H
	DB	0ffH
	DB	040H
	DB	03cH
	DB	038H
	DB	0ffH
	DB	038H
	DB	038H
	DB	038H
	DB	0ffH
	DB	038H
	DB	038H
	DB	038H
	DB	0ffH
	DB	038H
	DB	038H
	DB	038H
	DB	0ffH
	DB	028H
	DB	024H
	DB	028H
	DB	0ffH
	DB	028H
	DB	024H
	DB	028H
	DB	0ffH
	DB	028H
	DB	024H
	DB	020H
	DB	0ffH
	DB	028H
	DB	024H
	DB	028H
	DB	0ffH
	DB	040H
	DB	044H
	DB	048H
	DB	0ffH
	DB	048H
	DB	04cH
	DB	048H
	DB	0ffH
	DB	050H
	DB	04cH
	DB	048H
	DB	0ffH
	DB	050H
	DB	04cH
	DB	050H
	DB	0ffH
	DB	048H
	DB	04cH
	DB	048H
	DB	0ffH
	DB	048H
	DB	04cH
	DB	050H
	DB	0ffH
	DB	050H
	DB	04cH
	DB	050H
	DB	0ffH
	DB	050H
	DB	04cH
	DB	048H
	DB	0ffH
	DB	038H
	DB	038H
	DB	038H
	DB	0ffH
	DB	038H
	DB	038H
	DB	038H
	DB	0ffH
	DB	038H
	DB	03cH
	DB	038H
	DB	0ffH
	DB	038H
	DB	03cH
	DB	038H
	DB	0ffH
	DB	040H
	DB	03cH
	DB	040H
	DB	0ffH
	DB	040H
	DB	03cH
	DB	040H
	DB	0ffH
	DB	040H
	DB	040H
	DB	040H
	DB	0ffH
	DB	040H
	DB	040H
	DB	040H
	DB	0ffH
	DB	040H
	DB	040H
	DB	040H
	DB	0ffH
	DB	040H
	DB	044H
	DB	040H
	DB	0ffH
	DB	048H
	DB	044H
	DB	048H
	DB	0ffH
	DB	048H
	DB	048H
	DB	048H
	DB	0ffH
	DB	048H
	DB	048H
	DB	048H
	DB	0ffH
	DB	048H
	DB	048H
	DB	048H
	DB	0ffH
	DB	048H
	DB	048H
	DB	048H
	DB	0ffH
	DB	050H
	DB	04cH
	DB	050H
	DB	0ffH
	DB	050H
	DB	04cH
	DB	048H
	DB	0ffH
	DB	050H
	DB	050H
	DB	050H
	DB	0ffH
	DB	050H
	DB	054H
	DB	050H
	DB	0ffH
	DB	058H
	DB	054H
	DB	058H
	DB	0ffH
	DB	040H
	DB	03cH
	DB	040H
	DB	0ffH
	DB	040H
	DB	03cH
	DB	038H
	DB	0ffH
	DB	038H
	DB	03cH
	DB	038H
	DB	0ffH
	DB	038H
	DB	038H
	DB	038H
	DB	0ffH
	DB	038H
	DB	03cH
	DB	040H
	DB	0ffH
	DB	038H
	DB	038H
	DB	038H
	DB	0ffH
	DB	038H
	DB	038H
	DB	038H
	DB	0ffH
	DB	038H
	DB	038H
	DB	038H
	DB	0ffH
	DB	028H
	DB	024H
	DB	028H
	DB	0ffH
	DB	020H
	DB	024H
	DB	028H
	DB	0ffH
	DB	020H
	DB	024H
	DB	028H
	DB	0ffH
	DB	028H
	DB	024H
	DB	020H
	DB	0ffH
	DB	048H
	DB	044H
	DB	040H
	DB	0ffH
	DB	048H
	DB	04cH
	DB	048H
	DB	0ffH
	DB	048H
	DB	04cH
	DB	050H
	DB	0ffH
	DB	050H
	DB	04cH
	DB	050H
	DB	0ffH
	DB	050H
	DB	04cH
	DB	048H
	DB	0ffH
	DB	048H
	DB	04cH
	DB	048H
	DB	0ffH
	DB	048H
	DB	04cH
	DB	050H
	DB	0ffH
	DB	050H
	DB	04cH
	DB	050H
	DB	0ffH
	DB	038H
	DB	038H
	DB	038H
	DB	0ffH
	DB	038H
	DB	038H
	DB	038H
	DB	0ffH
	DB	038H
	DB	03cH
	DB	040H
	DB	0ffH
	DB	038H
	DB	03cH
	DB	038H
	DB	0ffH
	DB	040H
	DB	03cH
	DB	040H
	DB	0ffH
	DB	040H
	DB	03cH
	DB	040H
	DB	0ffH
	DB	040H
	DB	040H
	DB	040H
	DB	0ffH
	DB	040H
	DB	040H
	DB	040H
	DB	0ffH
	DB	040H
	DB	044H
	DB	040H
	DB	0ffH
	DB	048H
	DB	044H
	DB	040H
	DB	0ffH
	DB	040H
	DB	044H
	DB	048H
	DB	0ffH
	DB	048H
	DB	044H
	DB	048H
	DB	0ffH
	DB	048H
	DB	048H
	DB	048H
	DB	0ffH
	DB	048H
	DB	048H
	DB	048H
	DB	0ffH
	DB	048H
	DB	04cH
	DB	048H
	DB	0ffH
	DB	048H
	DB	04cH
	DB	048H
	DB	0ffH
	DB	050H
	DB	04cH
	DB	050H
	DB	0ffH
	DB	050H
	DB	050H
	DB	050H
	DB	0ffH
	DB	050H
	DB	054H
	DB	050H
	DB	0ffH
	DB	058H
	DB	058H
	DB	058H
	DB	0ffH
	DB	040H
	DB	03cH
	DB	040H
	DB	0ffH
	DB	038H
	DB	03cH
	DB	040H
	DB	0ffH
	DB	040H
	DB	03cH
	DB	038H
	DB	0ffH
	DB	038H
	DB	038H
	DB	038H
	DB	0ffH
	DB	040H
	DB	03cH
	DB	038H
	DB	0ffH
	DB	038H
	DB	038H
	DB	038H
	DB	0ffH
	DB	038H
	DB	038H
	DB	038H
	DB	0ffH
	DB	038H
	DB	038H
	DB	038H
	DB	0ffH
	DB	028H
	DB	028H
	DB	028H
	DB	0ffH
	DB	028H
	DB	024H
	DB	020H
	DB	0ffH
	DB	028H
	DB	024H
	DB	028H
	DB	0ffH
	DB	020H
	DB	024H
	DB	028H
	DB	0ffH
	DB	040H
	DB	044H
	DB	040H
	DB	0ffH
	DB	048H
	DB	04cH
	DB	048H
	DB	0ffH
	DB	050H
	DB	04cH
	DB	050H
	DB	0ffH
	DB	050H
	DB	04cH
	DB	050H
	DB	0ffH
	DB	048H
	DB	04cH
	DB	048H
	DB	0ffH
	DB	050H
	DB	04cH
	DB	048H
	DB	0ffH
	DB	050H
	DB	04cH
	DB	050H
	DB	0ffH
	DB	048H
	DB	04cH
	DB	050H
	DB	0ffH
	DB	038H
	DB	03cH
	DB	038H
	DB	0ffH
	DB	038H
	DB	038H
	DB	038H
	DB	0ffH
	DB	040H
	DB	038H
	DB	038H
	DB	0ffH
	DB	038H
	DB	03cH
	DB	038H
	DB	0ffH
	DB	040H
	DB	03cH
	DB	040H
	DB	0ffH
	DB	040H
	DB	040H
	DB	038H
	DB	0ffH
	DB	040H
	DB	040H
	DB	040H
	DB	0ffH
	DB	040H
	DB	040H
	DB	040H
	DB	0ffH
	DB	040H
	DB	040H
	DB	040H
	DB	0ffH
	DB	040H
	DB	044H
	DB	040H
	DB	0ffH
	DB	048H
	DB	044H
	DB	048H
	DB	0ffH
	DB	048H
	DB	048H
	DB	048H
	DB	0ffH
	DB	048H
	DB	048H
	DB	048H
	DB	0ffH
	DB	048H
	DB	048H
	DB	048H
	DB	0ffH
	DB	048H
	DB	04cH
	DB	048H
	DB	0ffH
	DB	050H
	DB	04cH
	DB	050H
	DB	0ffH
	DB	050H
	DB	04cH
	DB	050H
	DB	0ffH
	DB	050H
	DB	050H
	DB	050H
	DB	0ffH
	DB	050H
	DB	054H
	DB	050H
	DB	0ffH
	DB	058H
	DB	058H
	DB	058H
	DB	0ffH
	DB	040H
	DB	03cH
	DB	040H
	DB	0ffH
	DB	038H
	DB	03cH
	DB	038H
	DB	0ffH
	DB	038H
	DB	03cH
	DB	040H
	DB	0ffH
	DB	038H
	DB	038H
	DB	038H
	DB	0ffH
	DB	038H
	DB	03cH
	DB	040H
	DB	0ffH
	DB	038H
	DB	038H
	DB	038H
	DB	0ffH
	DB	038H
	DB	038H
	DB	038H
	DB	0ffH
	DB	038H
	DB	038H
	DB	038H
	DB	0ffH
	DB	028H
	DB	028H
	DB	028H
	DB	0ffH
	DB	028H
	DB	024H
	DB	028H
	DB	0ffH
	DB	028H
	DB	024H
	DB	028H
	DB	0ffH
	DB	028H
	DB	024H
	DB	028H
	DB	0ffH
	DB	040H
	DB	044H
	DB	040H
	DB	0ffH
	DB	048H
	DB	04cH
	DB	048H
	DB	0ffH
	DB	050H
	DB	04cH
	DB	050H
	DB	0ffH
	DB	050H
	DB	04cH
	DB	050H
	DB	0ffH
	DB	048H
	DB	04cH
	DB	048H
	DB	0ffH
	DB	048H
	DB	04cH
	DB	050H
	DB	0ffH
	DB	050H
	DB	04cH
	DB	048H
	DB	0ffH
	DB	050H
	DB	04cH
	DB	048H
	DB	0ffH
	DB	038H
	DB	038H
	DB	038H
	DB	0ffH
	DB	038H
	DB	038H
	DB	038H
	DB	0ffH
	DB	038H
	DB	03cH
	DB	038H
	DB	0ffH
	DB	038H
	DB	03cH
	DB	040H
	DB	0ffH
	DB	040H
	DB	03cH
	DB	040H
	DB	0ffH
	DB	040H
	DB	03cH
	DB	040H
	DB	0ffH
	DB	040H
	DB	040H
	DB	040H
	DB	0ffH
	DB	040H
	DB	040H
	DB	040H
	DB	0ffH
	DB	040H
	DB	044H
	DB	040H
	DB	0ffH
	DB	040H
	DB	044H
	DB	048H
	DB	0ffH
	DB	048H
	DB	044H
	DB	048H
	DB	0ffH
	DB	048H
	DB	048H
	DB	040H
	DB	0ffH
	DB	048H
	DB	048H
	DB	048H
	DB	0ffH
	DB	048H
	DB	048H
	DB	048H
	DB	0ffH
	DB	048H
	DB	04cH
	DB	048H
	DB	0ffH
	DB	048H
	DB	04cH
	DB	050H
	DB	0ffH
	DB	050H
	DB	04cH
	DB	050H
	DB	0ffH
	DB	050H
	DB	050H
	DB	050H
	DB	0ffH
	DB	050H
	DB	050H
	DB	050H
	DB	0ffH
	DB	058H
	DB	058H
	DB	058H
	DB	0ffH
	DB	040H
	DB	03cH
	DB	040H
	DB	0ffH
	DB	038H
	DB	03cH
	DB	038H
	DB	0ffH
	DB	040H
	DB	03cH
	DB	038H
	DB	0ffH
	DB	038H
	DB	038H
	DB	038H
	DB	0ffH
	DB	038H
	DB	03cH
	DB	038H
	DB	0ffH
	DB	038H
	DB	038H
	DB	038H
	DB	0ffH
	DB	038H
	DB	038H
	DB	038H
	DB	0ffH
	DB	038H
	DB	038H
	DB	038H
	DB	0ffH
	DB	028H
	DB	024H
	DB	028H
	DB	0ffH
	DB	020H
	DB	024H
	DB	020H
	DB	0ffH
	DB	028H
	DB	024H
	DB	020H
	DB	0ffH
	DB	028H
	DB	024H
	DB	028H
	DB	0ffH
	DB	040H
	DB	044H
	DB	048H
	DB	0ffH
	DB	048H
	DB	04cH
	DB	048H
	DB	0ffH
	DB	050H
	DB	04cH
	DB	048H
	DB	0ffH
	DB	050H
	DB	04cH
	DB	050H
	DB	0ffH
	DB	048H
	DB	04cH
	DB	048H
	DB	0ffH
	DB	048H
	DB	04cH
	DB	050H
	DB	0ffH
	DB	050H
	DB	04cH
	DB	050H
	DB	0ffH
	DB	048H
	DB	04cH
	DB	048H
	DB	0ffH
	DB	038H
	DB	038H
	DB	038H
	DB	0ffH
	DB	038H
	DB	038H
	DB	038H
	DB	0ffH
	DB	038H
	DB	03cH
	DB	038H
	DB	0ffH
	DB	040H
	DB	03cH
	DB	038H
	DB	0ffH
	DB	038H
	DB	03cH
	DB	040H
	DB	0ffH
	DB	040H
	DB	040H
	DB	040H
	DB	0ffH
	DB	040H
	DB	040H
	DB	040H
	DB	0ffH
	DB	040H
	DB	040H
	DB	040H
	DB	0ffH
	DB	040H
	DB	040H
	DB	040H
	DB	0ffH
	DB	048H
	DB	044H
	DB	040H
	DB	0ffH
	DB	048H
	DB	044H
	DB	048H
	DB	0ffH
	DB	040H
	DB	044H
	DB	048H
	DB	0ffH
	DB	048H
	DB	048H
	DB	048H
	DB	0ffH
	DB	048H
	DB	048H
	DB	048H
	DB	0ffH
	DB	048H
	DB	048H
	DB	048H
	DB	0ffH
	DB	050H
	DB	04cH
	DB	048H
	DB	0ffH
	DB	048H
	DB	04cH
	DB	050H
	DB	0ffH
	DB	050H
	DB	050H
	DB	050H
	DB	0ffH
	DB	050H
	DB	054H
	DB	050H
	DB	0ffH
	DB	058H
	DB	058H
	DB	058H
	DB	0ffH
	DB	040H
	DB	03cH
	DB	040H
	DB	0ffH
	DB	038H
	DB	03cH
	DB	038H
	DB	0ffH
	DB	040H
	DB	03cH
	DB	040H
	DB	0ffH
	DB	038H
	DB	03cH
	DB	038H
	DB	0ffH
	DB	040H
	DB	038H
	DB	038H
	DB	0ffH
	DB	038H
	DB	038H
	DB	038H
	DB	0ffH
	DB	038H
	DB	03cH
	DB	038H
	DB	0ffH
	DB	038H
	DB	038H
	DB	038H
	DB	0ffH
	DB	028H
	DB	024H
	DB	028H
	DB	0ffH
	DB	028H
	DB	024H
	DB	028H
	DB	0ffH
	DB	020H
	DB	024H
	DB	028H
	DB	0ffH
	DB	028H
	DB	024H
	DB	020H
	DB	0ffH
	DB	048H
	DB	044H
	DB	048H
	DB	0ffH
	DB	048H
	DB	04cH
	DB	048H
	DB	0ffH
	DB	048H
	DB	04cH
	DB	048H
	DB	0ffH
	DB	050H
	DB	04cH
	DB	050H
	DB	0ffH
	DB	050H
	DB	04cH
	DB	048H
	DB	0ffH
	DB	048H
	DB	04cH
	DB	048H
	DB	0ffH
	DB	050H
	DB	04cH
	DB	050H
	DB	0ffH
	DB	050H
	DB	04cH
	DB	050H
	DB	0ffH
	DB	038H
	DB	038H
	DB	038H
	DB	0ffH
	DB	038H
	DB	038H
	DB	038H
	DB	0ffH
	DB	038H
	DB	03cH
	DB	040H
	DB	0ffH
	DB	040H
	DB	03cH
	DB	038H
	DB	0ffH
	DB	040H
	DB	03cH
	DB	038H
	DB	0ffH
	DB	038H
	DB	03cH
	DB	040H
	DB	0ffH
	DB	040H
	DB	040H
	DB	040H
	DB	0ffH
	DB	040H
	DB	040H
	DB	040H
	DB	0ffH
	DB	040H
	DB	044H
	DB	040H
	DB	0ffH
	DB	040H
	DB	044H
	DB	040H
	DB	0ffH
	DB	048H
	DB	044H
	DB	048H
	DB	0ffH
	DB	048H
	DB	048H
	DB	048H
	DB	0ffH
	DB	048H
	DB	048H
	DB	048H
	DB	0ffH
	DB	048H
	DB	048H
	DB	048H
	DB	0ffH
	DB	048H
	DB	04cH
	DB	048H
	DB	0ffH
	DB	050H
	DB	04cH
	DB	050H
	DB	0ffH
	DB	050H
	DB	04cH
	DB	048H
	DB	0ffH
	DB	050H
	DB	050H
	DB	050H
	DB	0ffH
	DB	050H
	DB	054H
	DB	050H
	DB	0ffH
	DB	058H
	DB	058H
	DB	058H
	DB	0ffH
	DB	040H
	DB	03cH
	DB	040H
	DB	0ffH
	DB	038H
	DB	03cH
	DB	038H
	DB	0ffH
	DB	038H
	DB	03cH
	DB	040H
	DB	0ffH
	DB	038H
	DB	038H
	DB	038H
	DB	0ffH
	DB	038H
	DB	03cH
	DB	040H
	DB	0ffH
	DB	038H
	DB	038H
	DB	038H
	DB	0ffH
	DB	038H
	DB	038H
	DB	038H
	DB	0ffH
	DB	038H
	DB	038H
	DB	038H
	DB	0ffH
	DB	028H
	DB	028H
	DB	028H
	DB	0ffH
	DB	020H
	DB	024H
	DB	028H
	DB	0ffH
	DB	028H
	DB	024H
	DB	028H
	DB	0ffH
	DB	020H
	DB	024H
	DB	020H
	DB	0ffH
	DB	048H
	DB	044H
	DB	040H
	DB	0ffH
	DB	048H
	DB	04cH
	DB	048H
	DB	0ffH
	DB	048H
	DB	04cH
	DB	050H
	DB	0ffH
	DB	050H
	DB	04cH
	DB	050H
	DB	0ffH
	DB	048H
	DB	04cH
	DB	050H
	DB	0ffH
	DB	048H
	DB	04cH
	DB	048H
	DB	0ffH
	DB	050H
	DB	04cH
	DB	048H
	DB	0ffH
	DB	048H
	DB	04cH
	DB	050H
	DB	0ffH
	DB	038H
	DB	038H
	DB	038H
	DB	0ffH
	DB	038H
	DB	038H
	DB	038H
	DB	0ffH
	DB	038H
	DB	03cH
	DB	038H
	DB	0ffH
	DB	038H
	DB	03cH
	DB	040H
	DB	0ffH
	DB	040H
	DB	03cH
	DB	040H
	DB	0ffH
	DB	040H
	DB	03cH
	DB	040H
	DB	0ffH
	DB	040H
	DB	040H
	DB	040H
	DB	0ffH
	DB	040H
	DB	040H
	DB	040H
	DB	0ffH
	DB	040H
	DB	044H
	DB	040H
	DB	0ffH
	DB	040H
	DB	044H
	DB	040H
	DB	0ffH
	DB	048H
	DB	044H
	DB	048H
	DB	0ffH
	DB	048H
	DB	048H
	DB	048H
	DB	0ffH
	DB	048H
	DB	048H
	DB	048H
	DB	0ffH
	DB	048H
	DB	048H
	DB	048H
	DB	0ffH
	DB	048H
	DB	04cH
	DB	048H
	DB	0ffH
	DB	048H
	DB	04cH
	DB	050H
	DB	0ffH
	DB	050H
	DB	04cH
	DB	050H
	DB	0ffH
	DB	050H
	DB	050H
	DB	050H
	DB	0ffH
	DB	050H
	DB	054H
	DB	050H
	DB	0ffH
	DB	058H
	DB	054H
	DB	058H
	DB	0ffH
	DB	040H
	DB	03cH
	DB	040H
	DB	0ffH
	DB	038H
	DB	03cH
	DB	038H
	DB	0ffH
	DB	040H
	DB	03cH
	DB	038H
	DB	0ffH
	DB	038H
	DB	038H
	DB	038H
	DB	0ffH
	DB	038H
	DB	03cH
	DB	038H
	DB	0ffH
	DB	038H
	DB	038H
	DB	038H
	DB	0ffH
	DB	038H
	DB	038H
	DB	038H
	DB	0ffH
	DB	038H
	DB	038H
	DB	038H
	DB	0ffH
	DB	028H
	DB	024H
	DB	028H
	DB	0ffH
	DB	028H
	DB	024H
	DB	020H
	DB	0ffH
	DB	028H
	DB	024H
	DB	028H
	DB	0ffH
	DB	020H
	DB	024H
	DB	028H
	DB	0ffH
	DB	040H
	DB	044H
	DB	048H
	DB	0ffH
	DB	048H
	DB	04cH
	DB	048H
	DB	0ffH
	DB	050H
	DB	04cH
	DB	048H
	DB	0ffH
	DB	050H
	DB	04cH
	DB	050H
	DB	0ffH
	DB	048H
	DB	04cH
	DB	050H
	DB	0ffH
	DB	050H
	DB	04cH
	DB	048H
	DB	0ffH
	DB	048H
	DB	04cH
	DB	050H
	DB	0ffH
	DB	050H
	DB	04cH
	DB	050H
	DB	0ffH
	DB	038H
	DB	03cH
	DB	038H
	DB	0ffH
	DB	038H
	DB	038H
	DB	038H
	DB	0ffH
	DB	038H
	DB	038H
	DB	038H
	DB	0ffH
	DB	040H
	DB	03cH
	DB	038H
	DB	0ffH
	DB	040H
	DB	03cH
	DB	040H
	DB	0ffH
	DB	040H
	DB	040H
	DB	040H
	DB	0ffH
	DB	040H
	DB	040H
	DB	040H
	DB	0ffH
	DB	040H
	DB	040H
	DB	040H
	DB	0ffH
	DB	040H
	DB	040H
	DB	040H
	DB	0ffH
	DB	048H
	DB	044H
	DB	048H
	DB	0ffH
	DB	048H
	DB	044H
	DB	048H
	DB	0ffH
	DB	048H
	DB	044H
	DB	048H
	DB	0ffH
	DB	048H
	DB	048H
	DB	048H
	DB	0ffH
	DB	048H
	DB	048H
	DB	048H
	DB	0ffH
	DB	048H
	DB	04cH
	DB	048H
	DB	0ffH
	DB	050H
	DB	04cH
	DB	048H
	DB	0ffH
	DB	050H
	DB	04cH
	DB	050H
	DB	0ffH
	DB	050H
	DB	050H
	DB	050H
	DB	0ffH
	DB	050H
	DB	054H
	DB	050H
	DB	0ffH
	DB	058H
	DB	058H
	DB	058H
	DB	0ffH
	DB	040H
	DB	03cH
	DB	040H
	DB	0ffH
	DB	038H
	DB	03cH
	DB	038H
	DB	0ffH
	DB	040H
	DB	03cH
	DB	040H
	DB	0ffH
	DB	038H
	DB	038H
	DB	038H
	DB	0ffH
	DB	040H
	DB	03cH
	DB	038H
	DB	0ffH
	DB	038H
	DB	038H
	DB	038H
	DB	0ffH
	DB	038H
	DB	038H
	DB	038H
	DB	0ffH
	DB	038H
	DB	038H
	DB	038H
	DB	0ffH
	DB	028H
	DB	024H
	DB	028H
	DB	0ffH
	DB	028H
	DB	024H
	DB	028H
	DB	0ffH
	DB	028H
	DB	024H
	DB	020H
	DB	0ffH
	DB	028H
	DB	024H
	DB	028H
	DB	0ffH
	DB	048H
	DB	044H
	DB	048H
	DB	0ffH
	DB	048H
	DB	04cH
	DB	048H
	DB	0ffH
	DB	050H
	DB	04cH
	DB	048H
	DB	0ffH
	DB	050H
	DB	04cH
	DB	050H
	DB	0ffH
	DB	048H
	DB	04cH
	DB	048H
	DB	0ffH
	DB	050H
	DB	04cH
	DB	048H
	DB	0ffH
	DB	050H
	DB	04cH
	DB	050H
	DB	0ffH
	DB	048H
	DB	04cH
	DB	048H
	DB	0ffH
	DB	038H
	DB	038H
	DB	038H
	DB	0ffH
	DB	038H
	DB	038H
	DB	038H
	DB	0ffH
	DB	038H
	DB	03cH
	DB	038H
	DB	0ffH
	DB	038H
	DB	03cH
	DB	038H
	DB	0ffH
	DB	040H
	DB	03cH
	DB	040H
	DB	0ffH
	DB	040H
	DB	03cH
	DB	040H
	DB	0ffH
	DB	040H
	DB	040H
	DB	040H
	DB	0ffH
	DB	040H
	DB	040H
	DB	040H
	DB	0ffH
	DB	040H
	DB	040H
	DB	040H
	DB	0ffH
	DB	040H
	DB	044H
	DB	040H
	DB	0ffH
	DB	048H
	DB	044H
	DB	048H
	DB	0ffH
	DB	048H
	DB	048H
	DB	040H
	DB	0ffH
	DB	048H
	DB	048H
	DB	048H
	DB	0ffH
	DB	048H
	DB	048H
	DB	048H
	DB	0ffH
	DB	048H
	DB	048H
	DB	048H
	DB	0ffH
	DB	048H
	DB	04cH
	DB	050H
	DB	0ffH
	DB	050H
	DB	04cH
	DB	050H
	DB	0ffH
	DB	050H
	DB	050H
	DB	050H
	DB	0ffH
	DB	050H
	DB	054H
	DB	050H
	DB	0ffH
	DB	058H
	DB	058H
	DB	058H
	DB	0ffH
	DB	040H
	DB	03cH
	DB	040H
	DB	0ffH
	DB	038H
	DB	03cH
	DB	038H
	DB	0ffH
	DB	038H
	DB	03cH
	DB	040H
	DB	0ffH
	DB	038H
	DB	038H
	DB	038H
	DB	0ffH
	DB	038H
	DB	03cH
	DB	040H
	DB	0ffH
	DB	038H
	DB	038H
	DB	038H
	DB	0ffH
	DB	038H
	DB	038H
	DB	038H
	DB	0ffH
	DB	038H
	DB	038H
	DB	038H
	DB	0ffH
	DB	028H
	DB	028H
	DB	028H
	DB	0ffH
	DB	020H
	DB	024H
	DB	020H
	DB	0ffH
	DB	020H
	DB	024H
	DB	028H
	DB	0ffH
	DB	028H
	DB	024H
	DB	020H
	DB	0ffH
	DB	040H
	DB	044H
	DB	040H
	DB	0ffH
	DB	048H
	DB	04cH
	DB	048H
	DB	0ffH
	DB	048H
	DB	04cH
	DB	050H
	DB	0ffH
	DB	050H
	DB	04cH
	DB	050H
	DB	0ffH
	DB	048H
	DB	04cH
	DB	048H
	DB	0ffH
	DB	048H
	DB	04cH
	DB	050H
	DB	0ffH
	DB	050H
	DB	04cH
	DB	050H
	DB	0ffH
	DB	050H
	DB	04cH
	DB	048H
	DB	0ffH
	DB	038H
	DB	038H
	DB	038H
	DB	0ffH
	DB	038H
	DB	038H
	DB	038H
	DB	0ffH
	DB	038H
	DB	03cH
	DB	040H
	DB	0ffH
	DB	038H
	DB	03cH
	DB	038H
	DB	0ffH
	DB	040H
	DB	03cH
	DB	040H
	DB	0ffH
	DB	040H
	DB	040H
	DB	040H
	DB	0ffH
	DB	040H
	DB	040H
	DB	040H
	DB	0ffH
	DB	040H
	DB	040H
	DB	040H
	DB	0ffH
	DB	040H
	DB	044H
	DB	040H
	DB	0ffH
	DB	040H
	DB	044H
	DB	040H
	DB	0ffH
	DB	048H
	DB	044H
	DB	048H
	DB	0ffH
	DB	040H
	DB	048H
	DB	048H
	DB	0ffH
	DB	048H
	DB	048H
	DB	048H
	DB	0ffH
	DB	048H
	DB	048H
	DB	048H
	DB	0ffH
	DB	048H
	DB	04cH
	DB	048H
	DB	0ffH
	DB	050H
	DB	04cH
	DB	048H
	DB	0ffH
	DB	050H
	DB	04cH
	DB	050H
	DB	0ffH
	DB	050H
	DB	050H
	DB	050H
	DB	0ffH
	DB	050H
	DB	050H
	DB	050H
	DB	0ffH
	DB	058H
	DB	058H
	DB	058H
	DB	0ffH
	DB	040H
	DB	03cH
	DB	040H
	DB	0ffH
	DB	038H
	DB	03cH
	DB	038H
	DB	0ffH
	DB	040H
	DB	03cH
	DB	038H
	DB	0ffH
	DB	038H
	DB	038H
	DB	038H
	DB	0ffH
	DB	038H
	DB	03cH
	DB	038H
	DB	0ffH
	DB	038H
	DB	038H
	DB	038H
	DB	0ffH
	DB	038H
	DB	038H
	DB	038H
	DB	0ffH
	DB	038H
	DB	038H
	DB	038H
	DB	0ffH
	DB	028H
	DB	024H
	DB	028H
	DB	0ffH
	DB	028H
	DB	024H
	DB	028H
	DB	0ffH
	DB	028H
	DB	024H
	DB	028H
	DB	0ffH
	DB	028H
	DB	024H
	DB	028H
	DB	0ffH
	DB	040H
	DB	044H
	DB	040H
	DB	0ffH
	DB	048H
	DB	04cH
	DB	048H
	DB	0ffH
	DB	050H
	DB	04cH
	DB	050H
	DB	0ffH
	DB	050H
	DB	04cH
	DB	050H
	DB	0ffH
	DB	048H
	DB	04cH
	DB	048H
	DB	0ffH
	DB	048H
	DB	04cH
	DB	050H
	DB	0ffH
	DB	050H
	DB	04cH
	DB	048H
	DB	0ffH
	DB	048H
	DB	04cH
	DB	050H
	DB	0ffH
	DB	038H
	DB	038H
	DB	038H
	DB	0ffH
	DB	038H
	DB	038H
	DB	038H
	DB	0ffH
	DB	040H
	DB	03cH
	DB	038H
	DB	0ffH
	DB	038H
	DB	03cH
	DB	038H
	DB	0ffH
	DB	040H
	DB	03cH
	DB	040H
	DB	0ffH
	DB	040H
	DB	03cH
	DB	040H
	DB	0ffH
	DB	040H
	DB	040H
	DB	040H
	DB	0ffH
	DB	040H
	DB	040H
	DB	040H
	DB	0ffH
	DB	040H
	DB	044H
	DB	040H
	DB	0ffH
	DB	040H
	DB	044H
	DB	040H
	DB	0ffH
	DB	048H
	DB	044H
	DB	048H
	DB	0ffH
	DB	048H
	DB	044H
	DB	048H
	DB	0ffH
	DB	048H
	DB	048H
	DB	048H
	DB	0ffH
	DB	048H
	DB	048H
	DB	048H
	DB	0ffH
	DB	048H
	DB	04cH
	DB	048H
	DB	0ffH
	DB	048H
	DB	04cH
	DB	050H
	DB	0ffH
	DB	050H
	DB	04cH
	DB	050H
	DB	0ffH
	DB	050H
	DB	050H
	DB	050H
	DB	0ffH
	DB	050H
	DB	054H
	DB	050H
	DB	0ffH
	DB	058H
	DB	058H
	DB	058H
	DB	0ffH
	DB	040H
	DB	03cH
	DB	040H
	DB	0ffH
	DB	038H
	DB	03cH
	DB	038H
	DB	0ffH
	DB	040H
	DB	03cH
	DB	040H
	DB	0ffH
	DB	038H
	DB	038H
	DB	038H
	DB	0ffH
	DB	040H
	DB	03cH
	DB	038H
	DB	0ffH
	DB	038H
	DB	038H
	DB	038H
	DB	0ffH
	DB	038H
	DB	038H
	DB	038H
	DB	0ffH
	DB	038H
	DB	038H
	DB	038H
	DB	0ffH
	DB	028H
	DB	028H
	DB	028H
	DB	0ffH
	DB	028H
	DB	024H
	DB	028H
	DB	0ffH
	DB	028H
	DB	024H
	DB	028H
	DB	0ffH
	DB	028H
	DB	024H
	DB	028H
	DB	0ffH
	DB	040H
	DB	044H
	DB	040H
	DB	0ffH
	DB	048H
	DB	048H
	DB	048H
	DB	0ffH
	DB	050H
	DB	04cH
	DB	050H
	DB	0ffH
	DB	050H
	DB	04cH
	DB	050H
	DB	0ffH
	DB	048H
	DB	04cH
	DB	048H
	DB	0ffH
	DB	050H
	DB	04cH
	DB	048H
	DB	0ffH
	DB	050H
	DB	04cH
	DB	050H
	DB	0ffH
	DB	048H
	DB	04cH
	DB	050H
	DB	0ffH
	DB	038H
	DB	03cH
	DB	038H
	DB	0ffH
	DB	038H
	DB	038H
	DB	038H
	DB	0ffH
	DB	038H
	DB	038H
	DB	038H
	DB	0ffH
	DB	040H
	DB	03cH
	DB	040H
	DB	0ffH
	DB	038H
	DB	03cH
	DB	038H
	DB	0ffH
	DB	040H
	DB	040H
	DB	040H
	DB	0ffH
	DB	040H
	DB	040H
	DB	040H
	DB	0ffH
	DB	040H
	DB	040H
	DB	040H
	DB	0ffH
	DB	040H
	DB	040H
	DB	040H
	DB	0ffH
	DB	040H
	DB	044H
	DB	040H
	DB	0ffH
	DB	048H
	DB	044H
	DB	048H
	DB	0ffH
	DB	048H
	DB	048H
	DB	048H
	DB	0ffH
	DB	048H
	DB	048H
	DB	048H
	DB	0ffH
	DB	048H
	DB	048H
	DB	048H
	DB	0ffH
	DB	048H
	DB	048H
	DB	048H
	DB	0ffH
	DB	050H
	DB	04cH
	DB	048H
	DB	0ffH
	DB	048H
	DB	04cH
	DB	050H
	DB	0ffH
	DB	050H
	DB	050H
	DB	050H
	DB	0ffH
	DB	050H
	DB	054H
	DB	050H
	DB	0ffH
	DB	058H
	DB	058H
	DB	058H
	DB	0ffH
	DB	040H
	DB	03cH
	DB	040H
	DB	0ffH
	DB	038H
	DB	03cH
	DB	038H
	DB	0ffH
	DB	038H
	DB	03cH
	DB	040H
	DB	0ffH
	DB	038H
	DB	038H
	DB	038H
	DB	0ffH
	DB	038H
	DB	03cH
	DB	040H
	DB	0ffH
	DB	038H
	DB	038H
	DB	038H
	DB	0ffH
	DB	038H
	DB	038H
	DB	038H
	DB	0ffH
	DB	038H
	DB	038H
	DB	038H
	DB	0ffH
	DB	028H
	DB	024H
	DB	028H
	DB	0ffH
	DB	020H
	DB	024H
	DB	020H
	DB	0ffH
	DB	020H
	DB	024H
	DB	020H
	DB	0ffH
	DB	028H
	DB	024H
	DB	028H
	DB	0ffH
	DB	040H
	DB	044H
	DB	048H
	DB	0ffH
	DB	048H
	DB	04cH
	DB	048H
	DB	0ffH
	DB	050H
	DB	04cH
	DB	048H
	DB	0ffH
	DB	050H
	DB	04cH
	DB	050H
	DB	0ffH
	DB	048H
	DB	04cH
	DB	048H
	DB	0ffH
	DB	050H
	DB	04cH
	DB	050H
	DB	0ffH
	DB	048H
	DB	04cH
	DB	048H
	DB	0ffH
	DB	050H
	DB	04cH
	DB	048H
	DB	0ffH
	DB	038H
	DB	038H
	DB	038H
	DB	0ffH
	DB	038H
	DB	038H
	DB	038H
	DB	0ffH
	DB	038H
	DB	03cH
	DB	038H
	DB	0ffH
	DB	038H
	DB	03cH
	DB	040H
	DB	0ffH
	DB	040H
	DB	03cH
	DB	040H
	DB	0ffH
	DB	040H
	DB	03cH
	DB	038H
	DB	0ffH
	DB	040H
	DB	040H
	DB	040H
	DB	0ffH
	DB	040H
	DB	040H
	DB	040H
	DB	0ffH
	DB	040H
	DB	040H
	DB	040H
	DB	0ffH
	DB	048H
	DB	044H
	DB	040H
	DB	0ffH
	DB	048H
	DB	044H
	DB	048H
	DB	0ffH
	DB	048H
	DB	048H
	DB	048H
	DB	0ffH
	DB	048H
	DB	048H
	DB	048H
	DB	0ffH
	DB	048H
	DB	048H
	DB	048H
	DB	0ffH
	DB	048H
	DB	04cH
	DB	048H
	DB	0ffH
	DB	050H
	DB	04cH
	DB	050H
	DB	0ffH
	DB	050H
	DB	04cH
	DB	048H
	DB	0ffH
	DB	050H
	DB	050H
	DB	050H
	DB	0ffH
	DB	050H
	DB	054H
	DB	050H
	DB	0ffH
	DB	058H
	DB	054H
	DB	058H
	DB	0ffH
	DB	040H
	DB	03cH
	DB	040H
	DB	0ffH
	DB	038H
	DB	03cH
	DB	038H
	DB	0ffH
	DB	040H
	DB	03cH
	DB	038H
	DB	0ffH
	DB	038H
	DB	03cH
	DB	038H
	DB	0ffH
	DB	038H
	DB	038H
	DB	038H
	DB	0ffH
	DB	038H
	DB	038H
	DB	038H
	DB	0ffH
	DB	038H
	DB	03cH
	DB	038H
	DB	0ffH
	DB	038H
	DB	038H
	DB	038H
	DB	0ffH
	DB	028H
	DB	024H
	DB	028H
	DB	0ffH
	DB	028H
	DB	024H
	DB	028H
	DB	0ffH
	DB	028H
	DB	024H
	DB	028H
	DB	0ffH
	DB	028H
	DB	024H
	DB	020H
	DB	0ffH
	DB	040H
	DB	044H
	DB	040H
	DB	0ffH
	DB	048H
	DB	04cH
	DB	048H
	DB	0ffH
	DB	050H
	DB	04cH
	DB	050H
	DB	0ffH
	DB	048H
	DB	04cH
	DB	050H
	DB	0ffH
	DB	048H
	DB	04cH
	DB	048H
	DB	0ffH
	DB	050H
	DB	04cH
	DB	050H
	DB	0ffH
	DB	048H
	DB	04cH
	DB	050H
	DB	0ffH
	DB	050H
	DB	04cH
	DB	048H
	DB	0ffH
	DB	038H
	DB	038H
	DB	038H
	DB	0ffH
	DB	038H
	DB	038H
	DB	038H
	DB	0ffH
	DB	040H
	DB	03cH
	DB	038H
	DB	0ffH
	DB	038H
	DB	03cH
	DB	038H
	DB	0ffH
	DB	040H
	DB	03cH
	DB	040H
	DB	0ffH
	DB	040H
	DB	03cH
	DB	040H
	DB	0ffH
	DB	040H
	DB	040H
	DB	040H
	DB	0ffH
	DB	040H
	DB	040H
	DB	040H
	DB	0ffH
	DB	040H
	DB	044H
	DB	040H
	DB	0ffH
	DB	040H
	DB	044H
	DB	048H
	DB	0ffH
	DB	048H
	DB	044H
	DB	048H
	DB	0ffH
	DB	048H
	DB	044H
	DB	048H
	DB	0ffH
	DB	048H
	DB	048H
	DB	048H
	DB	0ffH
	DB	048H
	DB	048H
	DB	048H
	DB	0ffH
	DB	048H
	DB	04cH
	DB	048H
	DB	0ffH
	DB	048H
	DB	04cH
	DB	050H
	DB	0ffH
	DB	050H
	DB	04cH
	DB	050H
	DB	0ffH
	DB	050H
	DB	050H
	DB	050H
	DB	0ffH
	DB	050H
	DB	054H
	DB	050H
	DB	0ffH
	DB	058H
	DB	058H
	DB	058H
	DB	0ffH
	DB	040H
	DB	03cH
	DB	040H
	DB	0ffH
	DB	038H
	DB	03cH
	DB	038H
	DB	0ffH
	DB	040H
	DB	03cH
	DB	040H
	DB	0ffH
	DB	038H
	DB	038H
	DB	038H
	DB	0ffH
	DB	040H
	DB	03cH
	DB	038H
	DB	0ffH
	DB	038H
	DB	038H
	DB	038H
	DB	0ffH
	DB	038H
	DB	038H
	DB	038H
	DB	0ffH
	DB	038H
	DB	038H
	DB	038H
	DB	0ffH
	DB	028H
	DB	028H
	DB	028H
	DB	0ffH
	DB	020H
	DB	024H
	DB	028H
	DB	0ffH
	DB	028H
	DB	024H
	DB	028H
	DB	0ffH
	DB	028H
	DB	024H
	DB	028H
	DB	0ffH
	DB	040H
	DB	044H
	DB	040H
	DB	0ffH
	DB	048H
	DB	04cH
	DB	048H
	DB	0ffH
	DB	050H
	DB	04cH
	DB	050H
	DB	0ffH
	DB	050H
	DB	04cH
	DB	050H
	DB	0ffH
	DB	048H
	DB	04cH
	DB	048H
	DB	0ffH
	DB	050H
	DB	04cH
	DB	048H
	DB	0ffH
	DB	050H
	DB	04cH
	DB	050H
	DB	0ffH
	DB	048H
	DB	04cH
	DB	050H
	DB	0ffH
	DB	038H
	DB	038H
	DB	038H
	DB	0ffH
	DB	038H
	DB	038H
	DB	038H
	DB	0ffH
	DB	038H
	DB	03cH
	DB	040H
	DB	0ffH
	DB	038H
	DB	03cH
	DB	038H
	DB	0ffH
	DB	040H
	DB	03cH
	DB	040H
	DB	0ffH
	DB	040H
	DB	040H
	DB	040H
	DB	0ffH
	DB	040H
	DB	040H
	DB	040H
	DB	0ffH
	DB	040H
	DB	040H
	DB	040H
	DB	0ffH
	DB	040H
	DB	044H
	DB	040H
	DB	0ffH
	DB	040H
	DB	044H
	DB	040H
	DB	0ffH
	DB	048H
	DB	044H
	DB	048H
	DB	0ffH
	DB	048H
	DB	048H
	DB	040H
	DB	0ffH
	DB	048H
	DB	048H
	DB	048H
	DB	0ffH
	DB	048H
	DB	048H
	DB	048H
	DB	0ffH
	DB	048H
	DB	04cH
	DB	048H
	DB	0ffH
	DB	050H
	DB	04cH
	DB	048H
	DB	0ffH
	DB	050H
	DB	04cH
	DB	050H
	DB	0ffH
	DB	050H
	DB	050H
	DB	050H
	DB	0ffH
	DB	050H
	DB	054H
	DB	050H
	DB	0ffH
	DB	058H
	DB	058H
	DB	058H
	DB	0ffH
	DB	040H
	DB	03cH
	DB	040H
	DB	0ffH
	DB	038H
	DB	03cH
	DB	038H
	DB	0ffH
	DB	038H
	DB	03cH
	DB	040H
	DB	0ffH
	DB	038H
	DB	038H
	DB	038H
	DB	0ffH
	DB	038H
	DB	03cH
	DB	040H
	DB	0ffH
	DB	038H
	DB	038H
	DB	038H
	DB	0ffH
	DB	038H
	DB	038H
	DB	038H
	DB	0ffH
	DB	038H
	DB	038H
	DB	038H
	DB	0ffH
	DB	028H
	DB	024H
	DB	028H
	DB	0ffH
	DB	028H
	DB	024H
	DB	020H
	DB	0ffH
	DB	020H
	DB	024H
	DB	028H
	DB	0ffH
	DB	028H
	DB	024H
	DB	028H
	DB	0ffH
	DB	040H
	DB	044H
	DB	040H
	DB	0ffH
	DB	048H
	DB	04cH
	DB	048H
	DB	0ffH
	DB	050H
	DB	04cH
	DB	050H
	DB	0ffH
	DB	050H
	DB	04cH
	DB	050H
	DB	0ffH
	DB	048H
	DB	04cH
	DB	048H
	DB	0ffH
	DB	048H
	DB	04cH
	DB	048H
	DB	0ffH
	DB	050H
	DB	04cH
	DB	050H
	DB	0ffH
	DB	050H
	DB	04cH
	DB	050H
	DB	0ffH
	DB	038H
	DB	03cH
	DB	038H
	DB	0ffH
	DB	038H
	DB	038H
	DB	038H
	DB	0ffH
	DB	038H
	DB	038H
	DB	038H
	DB	0ffH
	DB	040H
	DB	03cH
	DB	038H
	DB	0ffH
	DB	038H
	DB	03cH
	DB	040H
	DB	0ffH
	DB	040H
	DB	040H
	DB	040H
	DB	0ffH
	DB	040H
	DB	040H
	DB	040H
	DB	0ffH
	DB	040H
	DB	040H
	DB	040H
	DB	0ffH
	DB	040H
	DB	040H
	DB	040H
	DB	0ffH
	DB	040H
	DB	044H
	DB	040H
	DB	0ffH
	DB	048H
	DB	044H
	DB	048H
	DB	0ffH
	DB	048H
	DB	048H
	DB	048H
	DB	0ffH
	DB	048H
	DB	048H
	DB	048H
	DB	0ffH
	DB	048H
	DB	048H
	DB	048H
	DB	0ffH
	DB	048H
	DB	048H
	DB	048H
	DB	0ffH
	DB	048H
	DB	04cH
	DB	050H
	DB	0ffH
	DB	050H
	DB	04cH
	DB	050H
	DB	0ffH
	DB	050H
	DB	050H
	DB	050H
	DB	0ffH
	DB	050H
	DB	050H
	DB	050H
	DB	0ffH
	DB	058H
	DB	058H
	DB	058H
	DB	0ffH
	DB	040H
	DB	03cH
	DB	040H
	DB	0ffH
	DB	038H
	DB	03cH
	DB	038H
	DB	0ffH
	DB	040H
	DB	03cH
	DB	038H
	DB	0ffH
	DB	038H
	DB	038H
	DB	038H
	DB	0ffH
	DB	038H
	DB	03cH
	DB	038H
	DB	0ffH
	DB	038H
	DB	038H
	DB	038H
	DB	0ffH
	DB	038H
	DB	038H
	DB	038H
	DB	0ffH
	DB	038H
	DB	038H
	DB	038H
	DB	0ffH
	DB	028H
	DB	024H
	DB	028H
	DB	0ffH
	DB	028H
	DB	024H
	DB	028H
	DB	0ffH
	DB	028H
	DB	024H
	DB	020H
	DB	0ffH
	DB	028H
	DB	024H
	DB	028H
	DB	0ffH
	DB	040H
	DB	044H
	DB	048H
	DB	0ffH
	DB	048H
	DB	04cH
	DB	048H
	DB	0ffH
	DB	050H
	DB	04cH
	DB	048H
	DB	0ffH
	DB	050H
	DB	04cH
	DB	050H
	DB	0ffH
	DB	048H
	DB	04cH
	DB	050H
	DB	0ffH
	DB	048H
	DB	04cH
	DB	048H
	DB	0ffH
	DB	050H
	DB	04cH
	DB	048H
	DB	0ffH
	DB	048H
	DB	04cH
	DB	050H
	DB	0ffH
	DB	038H
	DB	038H
	DB	038H
	DB	0ffH
	DB	038H
	DB	038H
	DB	038H
	DB	0ffH
	DB	038H
	DB	03cH
	DB	038H
	DB	0ffH
	DB	040H
	DB	03cH
	DB	038H
	DB	0ffH
	DB	040H
	DB	03cH
	DB	040H
	DB	0ffH
	DB	038H
	DB	03cH
	DB	040H
	DB	0ffH
	DB	040H
	DB	040H
	DB	040H
	DB	0ffH
	DB	040H
	DB	040H
	DB	040H
	DB	0ffH
	DB	040H
	DB	040H
	DB	040H
	DB	0ffH
	DB	040H
	DB	044H
	DB	040H
	DB	0ffH
	DB	048H
	DB	044H
	DB	048H
	DB	0ffH
	DB	048H
	DB	044H
	DB	048H
	DB	0ffH
	DB	048H
	DB	048H
	DB	048H
	DB	0ffH
	DB	048H
	DB	048H
	DB	048H
	DB	0ffH
	DB	048H
	DB	04cH
	DB	048H
	DB	0ffH
	DB	050H
	DB	04cH
	DB	050H
	DB	0ffH
	DB	048H
	DB	04cH
	DB	048H
	DB	0ffH
	DB	050H
	DB	050H
	DB	050H
	DB	0ffH
	DB	050H
	DB	054H
	DB	050H
	DB	0ffH
	DB	058H
	DB	058H
	DB	058H
	DB	0ffH
	DB	040H
	DB	03cH
	DB	040H
	DB	0ffH
	DB	038H
	DB	03cH
	DB	038H
	DB	0ffH
	DB	040H
	DB	03cH
	DB	040H
	DB	0ffH
	DB	038H
	DB	038H
	DB	038H
	DB	0ffH
	DB	040H
	DB	03cH
	DB	038H
	DB	0ffH
	DB	038H
	DB	038H
	DB	038H
	DB	0ffH
	DB	038H
	DB	038H
	DB	038H
	DB	0ffH
	DB	038H
	DB	038H
	DB	038H
	DB	0ffH
	DB	028H
	DB	028H
	DB	028H
	DB	0ffH
	DB	020H
	DB	024H
	DB	028H
	DB	0ffH
	DB	028H
	DB	024H
	DB	028H
	DB	0ffH
	DB	028H
	DB	024H
	DB	020H
	DB	0ffH
	DB	040H
	DB	044H
	DB	040H
	DB	0ffH
	DB	048H
	DB	04cH
	DB	048H
	DB	0ffH
	DB	050H
	DB	04cH
	DB	050H
	DB	0ffH
	DB	050H
	DB	04cH
	DB	050H
	DB	0ffH
	DB	048H
	DB	04cH
	DB	048H
	DB	0ffH
	DB	050H
	DB	04cH
	DB	050H
	DB	0ffH
	DB	050H
	DB	04cH
	DB	048H
	DB	0ffH
	DB	048H
	DB	04cH
	DB	048H
	DB	0ffH
	DB	038H
	DB	038H
	DB	038H
	DB	0ffH
	DB	038H
	DB	038H
	DB	038H
	DB	0ffH
	DB	038H
	DB	03cH
	DB	040H
	DB	0ffH
	DB	038H
	DB	03cH
	DB	038H
	DB	0ffH
	DB	040H
	DB	03cH
	DB	040H
	DB	0ffH
	DB	040H
	DB	03cH
	DB	040H
	DB	0ffH
	DB	040H
	DB	040H
	DB	040H
	DB	0ffH
	DB	040H
	DB	040H
	DB	040H
	DB	0ffH
	DB	040H
	DB	044H
	DB	040H
	DB	0ffH
	DB	040H
	DB	044H
	DB	048H
	DB	0ffH
	DB	048H
	DB	044H
	DB	048H
	DB	0ffH
	DB	048H
	DB	048H
	DB	048H
	DB	0ffH
	DB	048H
	DB	048H
	DB	048H
	DB	0ffH
	DB	048H
	DB	048H
	DB	048H
	DB	0ffH
	DB	048H
	DB	04cH
	DB	048H
	DB	0ffH
	DB	050H
	DB	04cH
	DB	048H
	DB	0ffH
	DB	050H
	DB	04cH
	DB	050H
	DB	0ffH
	DB	050H
	DB	050H
	DB	050H
	DB	0ffH
	DB	050H
	DB	054H
	DB	050H
	DB	0ffH
	DB	058H
	DB	058H
	DB	058H
	DB	0ffH
	DB	040H
	DB	03cH
	DB	040H
	DB	0ffH
	DB	038H
	DB	03cH
	DB	038H
	DB	0ffH
	DB	038H
	DB	03cH
	DB	040H
	DB	0ffH
	DB	038H
	DB	038H
	DB	038H
	DB	0ffH
	DB	038H
	DB	03cH
	DB	040H
	DB	0ffH
	DB	038H
	DB	038H
	DB	038H
	DB	0ffH
	DB	038H
	DB	038H
	DB	038H
	DB	0ffH
	DB	038H
	DB	038H
	DB	038H
	DB	0ffH
	DB	028H
	DB	028H
	DB	028H
	DB	0ffH
	DB	028H
	DB	024H
	DB	020H
	DB	0ffH
	DB	020H
	DB	024H
	DB	028H
	DB	0ffH
	DB	028H
	DB	024H
	DB	028H
	DB	0ffH
	DB	040H
	DB	044H
	DB	040H
	DB	0ffH
	DB	048H
	DB	04cH
	DB	048H
	DB	0ffH
	DB	050H
	DB	04cH
	DB	050H
	DB	0ffH
	DB	048H
	DB	04cH
	DB	048H
	DB	0ffH
	DB	048H
	DB	04cH
	DB	048H
	DB	0ffH
	DB	050H
	DB	04cH
	DB	050H
	DB	0ffH
	DB	048H
	DB	04cH
	DB	050H
	DB	0ffH
	DB	050H
	DB	04cH
	DB	050H
	DB	0ffH
	DB	038H
	DB	03cH
	DB	038H
	DB	0ffH
	DB	038H
	DB	038H
	DB	038H
	DB	0ffH
	DB	040H
	DB	038H
	DB	038H
	DB	0ffH
	DB	038H
	DB	03cH
	DB	038H
	DB	0ffH
	DB	040H
	DB	03cH
	DB	040H
	DB	0ffH
	DB	040H
	DB	040H
	DB	040H
	DB	0ffH
	DB	040H
	DB	040H
	DB	040H
	DB	0ffH
	DB	040H
	DB	040H
	DB	040H
	DB	0ffH
	DB	040H
	DB	044H
	DB	040H
	DB	0ffH
	DB	048H
	DB	044H
	DB	040H
	DB	0ffH
	DB	040H
	DB	044H
	DB	048H
	DB	0ffH
	DB	048H
	DB	048H
	DB	048H
	DB	0ffH
	DB	048H
	DB	048H
	DB	048H
	DB	0ffH
	DB	048H
	DB	048H
	DB	048H
	DB	0ffH
	DB	048H
	DB	048H
	DB	048H
	DB	0ffH
	DB	048H
	DB	04cH
	DB	050H
	DB	0ffH
	DB	050H
	DB	04cH
	DB	050H
	DB	0ffH
	DB	050H
	DB	050H
	DB	050H
	DB	0ffH
	DB	050H
	DB	054H
	DB	050H
	DB	0ffH
	DB	058H
	DB	054H
	DB	058H
	DB	0ffH
	DB	040H
	DB	03cH
	DB	040H
	DB	0ffH
	DB	038H
	DB	03cH
	DB	038H
	DB	0ffH
	DB	040H
	DB	03cH
	DB	038H
	DB	0ffH
	DB	038H
	DB	038H
	DB	038H
	DB	0ffH
	DB	038H
	DB	03cH
	DB	038H
	DB	0ffH
	DB	038H
	DB	038H
	DB	038H
	DB	0ffH
	DB	038H
	DB	038H
	DB	038H
	DB	0ffH
	DB	038H
	DB	038H
	DB	038H
	DB	0ffH
	DB	028H
	DB	024H
	DB	028H
	DB	0ffH
	DB	028H
	DB	024H
	DB	028H
	DB	0ffH
	DB	028H
	DB	024H
	DB	028H
	DB	0ffH
	DB	028H
	DB	024H
	DB	028H
	DB	0ffH
	DB	040H
	DB	044H
	DB	040H
	DB	0ffH
	DB	048H
	DB	04cH
	DB	048H
	DB	0ffH
	DB	050H
	DB	04cH
	DB	050H
	DB	0ffH
	DB	050H
	DB	04cH
	DB	050H
	DB	0ffH
	DB	048H
	DB	04cH
	DB	048H
	DB	0ffH
	DB	050H
	DB	04cH
	DB	048H
	DB	0ffH
	DB	048H
	DB	04cH
	DB	050H
	DB	0ffH
	DB	050H
	DB	04cH
	DB	048H
	DB	0ffH
	DB	038H
	DB	038H
	DB	038H
	DB	0ffH
	DB	038H
	DB	038H
	DB	038H
	DB	0ffH
	DB	038H
	DB	03cH
	DB	038H
	DB	0ffH
	DB	038H
	DB	03cH
	DB	040H
	DB	0ffH
	DB	040H
	DB	03cH
	DB	038H
	DB	0ffH
	DB	040H
	DB	040H
	DB	040H
	DB	0ffH
	DB	040H
	DB	040H
	DB	040H
	DB	0ffH
	DB	040H
	DB	040H
	DB	040H
	DB	0ffH
	DB	040H
	DB	040H
	DB	040H
	DB	0ffH
	DB	040H
	DB	044H
	DB	040H
	DB	0ffH
	DB	048H
	DB	044H
	DB	048H
	DB	0ffH
	DB	048H
	DB	044H
	DB	048H
	DB	0ffH
	DB	048H
	DB	048H
	DB	048H
	DB	0ffH
	DB	048H
	DB	048H
	DB	048H
	DB	0ffH
	DB	048H
	DB	04cH
	DB	048H
	DB	0ffH
	DB	050H
	DB	04cH
	DB	050H
	DB	0ffH
	DB	050H
	DB	04cH
	DB	050H
	DB	0ffH
	DB	050H
	DB	050H
	DB	050H
	DB	0ffH
	DB	050H
	DB	054H
	DB	050H
	DB	0ffH
	DB	058H
	DB	058H
	DB	058H
	DB	0ffH
	DB	040H
	DB	03cH
	DB	040H
	DB	0ffH
	DB	038H
	DB	03cH
	DB	038H
	DB	0ffH
	DB	040H
	DB	03cH
	DB	040H
	DB	0ffH
	DB	038H
	DB	038H
	DB	038H
	DB	0ffH
	DB	040H
	DB	03cH
	DB	038H
	DB	0ffH
	DB	038H
	DB	038H
	DB	038H
	DB	0ffH
	DB	038H
	DB	038H
	DB	038H
	DB	0ffH
	DB	038H
	DB	038H
	DB	038H
	DB	0ffH
	DB	028H
	DB	024H
	DB	028H
	DB	0ffH
	DB	020H
	DB	024H
	DB	028H
	DB	0ffH
	DB	028H
	DB	024H
	DB	020H
	DB	0ffH
	DB	028H
	DB	024H
	DB	028H
	DB	0ffH
	DB	040H
	DB	044H
	DB	048H
	DB	0ffH
	DB	048H
	DB	04cH
	DB	048H
	DB	0ffH
	DB	050H
	DB	04cH
	DB	050H
	DB	0ffH
	DB	050H
	DB	04cH
	DB	050H
	DB	0ffH
	DB	048H
	DB	04cH
	DB	048H
	DB	0ffH
	DB	050H
	DB	04cH
	DB	050H
	DB	0ffH
	DB	048H
	DB	04cH
	DB	048H
	DB	0ffH
	DB	050H
	DB	04cH
	DB	050H
	DB	0ffH
	DB	038H
	DB	038H
	DB	038H
	DB	0ffH
	DB	038H
	DB	038H
	DB	038H
	DB	0ffH
	DB	038H
	DB	03cH
	DB	038H
	DB	0ffH
	DB	040H
	DB	03cH
	DB	040H
	DB	0ffH
	DB	038H
	DB	03cH
	DB	040H
	DB	0ffH
	DB	040H
	DB	03cH
	DB	038H
	DB	0ffH
	DB	040H
	DB	040H
	DB	040H
	DB	0ffH
	DB	040H
	DB	040H
	DB	040H
	DB	0ffH
	DB	040H
	DB	040H
	DB	040H
	DB	0ffH
	DB	040H
	DB	044H
	DB	040H
	DB	0ffH
	DB	048H
	DB	044H
	DB	048H
	DB	0ffH
	DB	048H
	DB	048H
	DB	048H
	DB	0ffH
	DB	048H
	DB	048H
	DB	048H
	DB	0ffH
	DB	048H
	DB	048H
	DB	048H
	DB	0ffH
	DB	048H
	DB	04cH
	DB	048H
	DB	0ffH
	DB	048H
	DB	04cH
	DB	048H
	DB	0ffH
	DB	050H
	DB	04cH
	DB	050H
	DB	0ffH
	DB	050H
	DB	050H
	DB	050H
	DB	0ffH
	DB	050H
	DB	054H
	DB	050H
	DB	0ffH
	DB	058H
	DB	058H
	DB	058H
	DB	0ffH
	DB	040H
	DB	03cH
	DB	040H
	DB	0ffH
	DB	038H
	DB	03cH
	DB	038H
	DB	0ffH
	DB	038H
	DB	03cH
	DB	040H
	DB	0ffH
	DB	038H
	DB	03cH
	DB	038H
	DB	0ffH
	DB	038H
	DB	038H
	DB	040H
	DB	0ffH
	DB	038H
	DB	038H
	DB	038H
	DB	0ffH
	DB	038H
	DB	03cH
	DB	038H
	DB	0ffH
	DB	038H
	DB	038H
	DB	038H
	DB	0ffH
	DB	028H
	DB	028H
	DB	028H
	DB	0ffH
	DB	028H
	DB	024H
	DB	020H
	DB	0ffH
	DB	020H
	DB	024H
	DB	028H
	DB	0ffH
	DB	028H
	DB	024H
	DB	020H
	DB	0ffH
	DB	040H
	DB	044H
	DB	040H
	DB	0ffH
	DB	048H
	DB	04cH
	DB	048H
	DB	0ffH
	DB	050H
	DB	04cH
	DB	048H
	DB	0ffH
	DB	048H
	DB	04cH
	DB	050H
	DB	0ffH
	DB	048H
	DB	04cH
	DB	050H
	DB	0ffH
	DB	050H
	DB	04cH
	DB	048H
	DB	0ffH
	DB	050H
	DB	04cH
	DB	050H
	DB	0ffH
	DB	048H
	DB	04cH
	DB	050H
	DB	0ffH
	DB	038H
	DB	03cH
	DB	038H
	DB	0ffH
	DB	038H
	DB	038H
	DB	038H
	DB	0ffH
	DB	038H
	DB	038H
	DB	038H
	DB	0ffH
	DB	040H
	DB	03cH
	DB	038H
	DB	0ffH
	DB	040H
	DB	03cH
	DB	040H
	DB	0ffH
	DB	038H
	DB	03cH
	DB	040H
	DB	0ffH
	DB	040H
	DB	040H
	DB	040H
	DB	0ffH
	DB	040H
	DB	040H
	DB	040H
	DB	0ffH
	DB	040H
	DB	044H
	DB	040H
	DB	0ffH
	DB	048H
	DB	044H
	DB	040H
	DB	0ffH
	DB	048H
	DB	044H
	DB	048H
	DB	0ffH
	DB	040H
	DB	048H
	DB	048H
	DB	0ffH
	DB	048H
	DB	048H
	DB	048H
	DB	0ffH
	DB	048H
	DB	048H
	DB	048H
	DB	0ffH
	DB	048H
	DB	04cH
	DB	048H
	DB	0ffH
	DB	050H
	DB	04cH
	DB	048H
	DB	0ffH
	DB	048H
	DB	04cH
	DB	050H
	DB	0ffH
	DB	050H
	DB	050H
	DB	050H
	DB	0ffH
	DB	050H
	DB	050H
	DB	050H
	DB	0ffH
	DB	058H
	DB	058H
	DB	058H
	DB	0ffH
	DB	040H
	DB	03cH
	DB	040H
	DB	0ffH
	DB	038H
	DB	03cH
	DB	038H
	DB	0ffH
	DB	040H
	DB	03cH
	DB	038H
	DB	0ffH
	DB	038H
	DB	038H
	DB	038H
	DB	0ffH
	DB	038H
	DB	03cH
	DB	038H
	DB	0ffH
	DB	038H
	DB	038H
	DB	038H
	DB	0ffH
	DB	038H
	DB	038H
	DB	038H
	DB	0ffH
	DB	038H
	DB	038H
	DB	038H
	DB	0ffH
	DB	028H
	DB	024H
	DB	028H
	DB	0ffH
	DB	028H
	DB	024H
	DB	028H
	DB	0ffH
	DB	028H
	DB	024H
	DB	028H
	DB	0ffH
	DB	028H
	DB	024H
	DB	028H
	DB	0ffH
	DB	040H
	DB	044H
	DB	040H
	DB	0ffH
	DB	048H
	DB	04cH
	DB	048H
	DB	0ffH
	DB	050H
	DB	04cH
	DB	050H
	DB	0ffH
	DB	050H
	DB	04cH
	DB	050H
	DB	0ffH
	DB	048H
	DB	04cH
	DB	048H
	DB	0ffH
	DB	048H
	DB	04cH
	DB	048H
	DB	0ffH
	DB	050H
	DB	04cH
	DB	050H
	DB	0ffH
	DB	048H
	DB	04cH
	DB	048H
	DB	0ffH
	DB	038H
	DB	038H
	DB	038H
	DB	0ffH
	DB	038H
	DB	038H
	DB	038H
	DB	0ffH
	DB	038H
	DB	03cH
	DB	038H
	DB	0ffH
	DB	038H
	DB	03cH
	DB	040H
	DB	0ffH
	DB	040H
	DB	03cH
	DB	040H
	DB	0ffH
	DB	040H
	DB	040H
	DB	040H
	DB	0ffH
	DB	040H
	DB	040H
	DB	040H
	DB	0ffH
	DB	040H
	DB	040H
	DB	040H
	DB	0ffH
	DB	040H
	DB	044H
	DB	040H
	DB	0ffH
	DB	040H
	DB	044H
	DB	040H
	DB	0ffH
	DB	048H
	DB	044H
	DB	048H
	DB	0ffH
	DB	048H
	DB	044H
	DB	048H
	DB	0ffH
	DB	048H
	DB	048H
	DB	048H
	DB	0ffH
	DB	048H
	DB	048H
	DB	048H
	DB	0ffH
	DB	048H
	DB	048H
	DB	048H
	DB	0ffH
	DB	050H
	DB	04cH
	DB	050H
	DB	0ffH
	DB	050H
	DB	04cH
	DB	050H
	DB	0ffH
	DB	050H
	DB	050H
	DB	050H
	DB	0ffH
	DB	050H
	DB	054H
	DB	050H
	DB	0ffH
	DB	058H
	DB	058H
	DB	058H
	DB	0ffH
	DB	040H
	DB	03cH
	DB	040H
	DB	0ffH
	DB	038H
	DB	03cH
	DB	038H
	DB	0ffH
	DB	040H
	DB	03cH
	DB	040H
	DB	0ffH
	DB	038H
	DB	038H
	DB	038H
	DB	0ffH
	DB	040H
	DB	03cH
	DB	038H
	DB	0ffH
	DB	038H
	DB	038H
	DB	038H
	DB	0ffH
	DB	038H
	DB	038H
	DB	038H
	DB	0ffH
	DB	038H
	DB	038H
	DB	038H
	DB	0ffH
	DB	028H
	DB	024H
	DB	028H
	DB	0ffH
	DB	020H
	DB	024H
	DB	028H
	DB	0ffH
	DB	028H
	DB	024H
	DB	028H
	DB	0ffH
	DB	028H
	DB	024H
	DB	028H
	DB	0ffH
	DB	040H
	DB	044H
	DB	040H
	DB	0ffH
	DB	048H
	DB	04cH
	DB	048H
	DB	0ffH
	DB	050H
	DB	04cH
	DB	050H
	DB	0ffH
	DB	050H
	DB	04cH
	DB	050H
	DB	0ffH
	DB	048H
	DB	04cH
	DB	048H
	DB	0ffH
	DB	050H
	DB	04cH
	DB	050H
	DB	0ffH
	DB	050H
	DB	04cH
	DB	048H
	DB	0ffH
	DB	050H
	DB	04cH
	DB	050H
	DB	0ffH
	DB	038H
	DB	038H
	DB	038H
	DB	0ffH
	DB	038H
	DB	038H
	DB	038H
	DB	0ffH
	DB	040H
	DB	03cH
	DB	038H
	DB	0ffH
	DB	038H
	DB	03cH
	DB	038H
	DB	0ffH
	DB	040H
	DB	03cH
	DB	040H
	DB	0ffH
	DB	040H
	DB	040H
	DB	040H
	DB	0ffH
	DB	040H
	DB	040H
	DB	040H
	DB	0ffH
	DB	040H
	DB	040H
	DB	040H
	DB	0ffH
	DB	040H
	DB	040H
	DB	040H
	DB	0ffH
	DB	040H
	DB	044H
	DB	048H
	DB	0ffH
	DB	048H
	DB	044H
	DB	040H
	DB	0ffH
	DB	048H
	DB	048H
	DB	048H
	DB	0ffH
	DB	048H
	DB	048H
	DB	048H
	DB	0ffH
	DB	048H
	DB	048H
	DB	048H
	DB	0ffH
	DB	048H
	DB	04cH
	DB	048H
	DB	0ffH
	DB	048H
	DB	04cH
	DB	048H
	DB	0ffH
	DB	050H
	DB	04cH
	DB	050H
	DB	0ffH
	DB	050H
	DB	050H
	DB	050H
	DB	0ffH
	DB	050H
	DB	054H
	DB	050H
	DB	0ffH
	DB	058H
	DB	058H
	DB	058H
	DB	0ffH
	DB	040H
	DB	03cH
	DB	040H
	DB	0ffH
	DB	038H
	DB	03cH
	DB	038H
	DB	0ffH
	DB	038H
	DB	03cH
	DB	040H
	DB	0ffH
	DB	038H
	DB	038H
	DB	038H
	DB	0ffH
	DB	038H
	DB	03cH
	DB	040H
	DB	0ffH
	DB	038H
	DB	038H
	DB	038H
	DB	0ffH
	DB	038H
	DB	038H
	DB	038H
	DB	0ffH
	DB	038H
	DB	038H
	DB	038H
	DB	0ffH
	DB	028H
	DB	028H
	DB	028H
	DB	0ffH
	DB	028H
	DB	024H
	DB	020H
	DB	0ffH
	DB	020H
	DB	024H
	DB	020H
	DB	0ffH
	DB	028H
	DB	024H
	DB	028H
	DB	0ffH
	DB	048H
	DB	044H
	DB	048H
	DB	0ffH
	DB	048H
	DB	04cH
	DB	048H
	DB	0ffH
	DB	048H
	DB	04cH
	DB	048H
	DB	0ffH
	DB	050H
	DB	04cH
	DB	050H
	DB	0ffH
	DB	048H
	DB	04cH
	DB	048H
	DB	0ffH
	DB	048H
	DB	04cH
	DB	050H
	DB	0ffH
	DB	050H
	DB	04cH
	DB	048H
	DB	0ffH
	DB	048H
	DB	04cH
	DB	050H
	DB	0ffH
	DB	038H
	DB	03cH
	DB	038H
	DB	0ffH
	DB	038H
	DB	038H
	DB	038H
	DB	0ffH
	DB	038H
	DB	03cH
	DB	038H
	DB	0ffH
	DB	038H
	DB	03cH
	DB	038H
	DB	0ffH
	DB	040H
	DB	03cH
	DB	040H
	DB	0ffH
	DB	040H
	DB	03cH
	DB	040H
	DB	0ffH
	DB	040H
	DB	040H
	DB	040H
	DB	0ffH
	DB	040H
	DB	040H
	DB	040H
	DB	0ffH
	DB	040H
	DB	040H
	DB	040H
	DB	0ffH
	DB	048H
	DB	044H
	DB	040H
	DB	0ffH
	DB	048H
	DB	044H
	DB	048H
	DB	0ffH
	DB	048H
	DB	048H
	DB	048H
	DB	0ffH
	DB	048H
	DB	048H
	DB	048H
	DB	0ffH
	DB	048H
	DB	048H
	DB	048H
	DB	0ffH
	DB	048H
	DB	04cH
	DB	048H
	DB	0ffH
	DB	050H
	DB	04cH
	DB	050H
	DB	0ffH
	DB	050H
	DB	04cH
	DB	048H
	DB	0ffH
	DB	050H
	DB	050H
	DB	050H
	DB	0ffH
	DB	050H
	DB	054H
	DB	050H
	DB	0ffH
	DB	058H
	DB	054H
	DB	058H
	DB	0ffH
	DB	040H
	DB	03cH
	DB	040H
	DB	0ffH
	DB	038H
	DB	03cH
	DB	038H
	DB	0ffH
	DB	040H
	DB	03cH
	DB	038H
	DB	0ffH
	DB	038H
	DB	038H
	DB	038H
	DB	0ffH
	DB	038H
	DB	03cH
	DB	038H
	DB	0ffH
	DB	038H
	DB	038H
	DB	038H
	DB	0ffH
	DB	038H
	DB	038H
	DB	038H
	DB	0ffH
	DB	038H
	DB	038H
	DB	038H
	DB	0ffH
	DB	028H
	DB	024H
	DB	028H
	DB	0ffH
	DB	028H
	DB	024H
	DB	028H
	DB	0ffH
	DB	028H
	DB	024H
	DB	028H
	DB	0ffH
	DB	020H
	DB	024H
	DB	020H
	DB	0ffH
	DB	040H
	DB	044H
	DB	048H
	DB	0ffH
	DB	048H
	DB	04cH
	DB	048H
	DB	0ffH
	DB	050H
	DB	04cH
	DB	050H
	DB	0ffH
	DB	050H
	DB	04cH
	DB	050H
	DB	0ffH
	DB	048H
	DB	04cH
	DB	048H
	DB	0ffH
	DB	050H
	DB	04cH
	DB	048H
	DB	0ffH
	DB	048H
	DB	04cH
	DB	050H
	DB	0ffH
	DB	050H
	DB	04cH
	DB	048H
	DB	0ffH
	DB	038H
	DB	038H
	DB	038H
	DB	0ffH
	DB	038H
	DB	038H
	DB	038H
	DB	0ffH
	DB	038H
	DB	038H
	DB	040H
	DB	0ffH
	DB	040H
	DB	03cH
	DB	038H
	DB	0ffH
	DB	040H
	DB	03cH
	DB	040H
	DB	0ffH
	DB	038H
	DB	03cH
	DB	040H
	DB	0ffH
	DB	040H
	DB	040H
	DB	040H
	DB	0ffH
	DB	040H
	DB	040H
	DB	040H
	DB	0ffH
	DB	040H
	DB	044H
	DB	040H
	DB	0ffH
	DB	040H
	DB	044H
	DB	040H
	DB	0ffH
	DB	048H
	DB	044H
	DB	048H
	DB	0ffH
	DB	048H
	DB	044H
	DB	048H
	DB	0ffH
	DB	048H
	DB	048H
	DB	048H
	DB	0ffH
	DB	048H
	DB	048H
	DB	048H
	DB	0ffH
	DB	048H
	DB	048H
	DB	048H
	DB	0ffH
	DB	048H
	DB	04cH
	DB	050H
	DB	0ffH
	DB	050H
	DB	04cH
	DB	050H
	DB	0ffH
	DB	050H
	DB	050H
	DB	050H
	DB	0ffH
	DB	050H
	DB	054H
	DB	050H
	DB	0ffH
	DB	058H
	DB	058H
	DB	058H
	DB	0ffH
	DB	040H
	DB	03cH
	DB	040H
	DB	0ffH
	DB	038H
	DB	03cH
	DB	038H
	DB	0ffH
	DB	040H
	DB	03cH
	DB	040H
	DB	0ffH
	DB	038H
	DB	038H
	DB	038H
	DB	0ffH
	DB	040H
	DB	03cH
	DB	038H
	DB	0ffH
	DB	038H
	DB	038H
	DB	038H
	DB	0ffH
	DB	038H
	DB	038H
	DB	038H
	DB	0ffH
	DB	038H
	DB	038H
	DB	038H
	DB	0ffH
	DB	028H
	DB	028H
	DB	028H
	DB	0ffH
	DB	020H
	DB	024H
	DB	028H
	DB	0ffH
	DB	028H
	DB	024H
	DB	028H
	DB	0ffH
	DB	028H
	DB	024H
	DB	020H
	DB	0ffH
	DB	040H
	DB	044H
	DB	040H
	DB	0ffH
	DB	048H
	DB	04cH
	DB	048H
	DB	0ffH
	DB	050H
	DB	04cH
	DB	050H
	DB	0ffH
	DB	050H
	DB	04cH
	DB	050H
	DB	0ffH
	DB	048H
	DB	04cH
	DB	048H
	DB	0ffH
	DB	050H
	DB	04cH
	DB	050H
	DB	0ffH
	DB	050H
	DB	04cH
	DB	050H
	DB	0ffH
	DB	048H
	DB	04cH
	DB	050H
	DB	0ffH
	DB	038H
	DB	038H
	DB	038H
	DB	0ffH
	DB	038H
	DB	038H
	DB	038H
	DB	0ffH
	DB	038H
	DB	03cH
	DB	038H
	DB	0ffH
	DB	038H
	DB	03cH
	DB	038H
	DB	0ffH
	DB	040H
	DB	03cH
	DB	040H
	DB	0ffH
	DB	040H
	DB	040H
	DB	040H
	DB	0ffH
	DB	040H
	DB	040H
	DB	040H
	DB	0ffH
	DB	040H
	DB	040H
	DB	040H
	DB	0ffH
	DB	040H
	DB	040H
	DB	040H
	DB	0ffH
	DB	040H
	DB	044H
	DB	040H
	DB	0ffH
	DB	048H
	DB	044H
	DB	048H
	DB	0ffH
	DB	048H
	DB	048H
	DB	048H
	DB	0ffH
	DB	048H
	DB	048H
	DB	048H
	DB	0ffH
	DB	048H
	DB	048H
	DB	048H
	DB	0ffH
	DB	048H
	DB	04cH
	DB	048H
	DB	0ffH
	DB	050H
	DB	04cH
	DB	048H
	DB	0ffH
	DB	050H
	DB	04cH
	DB	050H
	DB	0ffH
	DB	050H
	DB	050H
	DB	050H
	DB	0ffH
	DB	050H
	DB	054H
	DB	050H
	DB	0ffH
	DB	058H
	DB	058H
	DB	058H
	DB	0ffH
	DB	040H
	DB	03cH
	DB	040H
	DB	0ffH
	DB	038H
	DB	03cH
	DB	038H
	DB	0ffH
	DB	038H
	DB	03cH
	DB	040H
	DB	0ffH
	DB	038H
	DB	038H
	DB	038H
	DB	0ffH
	DB	038H
	DB	03cH
	DB	040H
	DB	0ffH
	DB	038H
	DB	038H
	DB	038H
	DB	0ffH
	DB	038H
	DB	038H
	DB	038H
	DB	0ffH
	DB	038H
	DB	038H
	DB	038H
	DB	0ffH
	DB	028H
	DB	024H
	DB	028H
	DB	0ffH
	DB	028H
	DB	024H
	DB	020H
	DB	0ffH
	DB	028H
	DB	024H
	DB	028H
	DB	0ffH
	DB	028H
	DB	024H
	DB	028H
	DB	0ffH
	DB	040H
	DB	044H
	DB	040H
	DB	0ffH
	DB	048H
	DB	04cH
	DB	048H
	DB	0ffH
	DB	050H
	DB	04cH
	DB	048H
	DB	0ffH
	DB	050H
	DB	04cH
	DB	050H
	DB	0ffH
	DB	048H
	DB	04cH
	DB	048H
	DB	0ffH
	DB	048H
	DB	04cH
	DB	048H
	DB	0ffH
	DB	050H
	DB	04cH
	DB	050H
	DB	0ffH
	DB	050H
	DB	04cH
	DB	048H
	DB	0ffH
	DB	038H
	DB	038H
	DB	038H
	DB	0ffH
	DB	038H
	DB	038H
	DB	038H
	DB	0ffH
	DB	038H
	DB	03cH
	DB	038H
	DB	0ffH
	DB	040H
	DB	03cH
	DB	040H
	DB	0ffH
	DB	040H
	DB	03cH
	DB	038H
	DB	0ffH
	DB	040H
	DB	03cH
	DB	040H
	DB	0ffH
	DB	040H
	DB	040H
	DB	040H
	DB	0ffH
	DB	040H
	DB	040H
	DB	040H
	DB	0ffH
	DB	040H
	DB	044H
	DB	040H
	DB	0ffH
	DB	040H
	DB	044H
	DB	040H
	DB	0ffH
	DB	048H
	DB	044H
	DB	048H
	DB	0ffH
	DB	048H
	DB	048H
	DB	048H
	DB	0ffH
	DB	048H
	DB	048H
	DB	048H
	DB	0ffH
	DB	048H
	DB	048H
	DB	048H
	DB	0ffH
	DB	048H
	DB	04cH
	DB	048H
	DB	0ffH
	DB	048H
	DB	04cH
	DB	050H
	DB	0ffH
	DB	050H
	DB	04cH
	DB	050H
	DB	0ffH
	DB	050H
	DB	050H
	DB	050H
	DB	0ffH
	DB	050H
	DB	054H
	DB	050H
	DB	0ffH
	DB	058H
	DB	054H
	DB	058H
	DB	0ffH
	DB	040H
	DB	03cH
	DB	040H
	DB	0ffH
	DB	038H
	DB	03cH
	DB	038H
	DB	0ffH
	DB	040H
	DB	03cH
	DB	038H
	DB	0ffH
	DB	038H
	DB	03cH
	DB	038H
	DB	0ffH
	DB	038H
	DB	038H
	DB	038H
	DB	0ffH
	DB	040H
	DB	038H
	DB	038H
	DB	0ffH
	DB	038H
	DB	03cH
	DB	038H
	DB	0ffH
	DB	038H
	DB	038H
	DB	038H
	DB	0ffH
	DB	028H
	DB	024H
	DB	028H
	DB	0ffH
	DB	020H
	DB	024H
	DB	028H
	DB	0ffH
	DB	020H
	DB	024H
	DB	028H
	DB	0ffH
	DB	028H
	DB	024H
	DB	028H
	DB	0ffH
	DB	048H
	DB	044H
	DB	048H
	DB	0ffH
	DB	048H
	DB	04cH
	DB	048H
	DB	0ffH
	DB	048H
	DB	04cH
	DB	050H
	DB	0ffH
	DB	050H
	DB	04cH
	DB	050H
	DB	0ffH
	DB	048H
	DB	04cH
	DB	048H
	DB	0ffH
	DB	048H
	DB	04cH
	DB	050H
	DB	0ffH
	DB	050H
	DB	04cH
	DB	048H
	DB	0ffH
	DB	048H
	DB	04cH
	DB	050H
	DB	0ffH
	DB	038H
	DB	03cH
	DB	038H
	DB	0ffH
	DB	038H
	DB	038H
	DB	038H
	DB	0ffH
	DB	038H
	DB	03cH
	DB	038H
	DB	0ffH
	DB	038H
	DB	03cH
	DB	040H
	DB	0ffH
	DB	040H
	DB	03cH
	DB	040H
	DB	0ffH
	DB	040H
	DB	040H
	DB	038H
	DB	0ffH
	DB	040H
	DB	040H
	DB	040H
	DB	0ffH
	DB	040H
	DB	040H
	DB	040H
	DB	0ffH
	DB	040H
	DB	040H
	DB	040H
	DB	0ffH
	DB	040H
	DB	044H
	DB	048H
	DB	0ffH
	DB	048H
	DB	044H
	DB	048H
	DB	0ffH
	DB	048H
	DB	044H
	DB	040H
	DB	0ffH
	DB	048H
	DB	048H
	DB	048H
	DB	0ffH
	DB	048H
	DB	048H
	DB	048H
	DB	0ffH
	DB	048H
	DB	04cH
	DB	048H
	DB	0ffH
	DB	048H
	DB	04cH
	DB	048H
	DB	0ffH
	DB	050H
	DB	04cH
	DB	050H
	DB	0ffH
	DB	050H
	DB	050H
	DB	050H
	DB	0ffH
	DB	050H
	DB	054H
	DB	050H
	DB	0ffH
	DB	058H
	DB	058H
	DB	058H
	DB	0ffH
	DB	040H
	DB	03cH
	DB	040H
	DB	0ffH
	DB	038H
	DB	03cH
	DB	038H
	DB	0ffH
	DB	040H
	DB	03cH
	DB	040H
	DB	0ffH
	DB	038H
	DB	038H
	DB	038H
	DB	0ffH
	DB	038H
	DB	03cH
	DB	038H
	DB	0ffH
	DB	038H
	DB	038H
	DB	038H
	DB	0ffH
	DB	038H
	DB	038H
	DB	038H
	DB	0ffH
	DB	038H
	DB	038H
	DB	038H
	DB	0ffH
	DB	028H
	DB	028H
	DB	028H
	DB	0ffH
	DB	028H
	DB	024H
	DB	028H
	DB	0ffH
	DB	028H
	DB	024H
	DB	020H
	DB	0ffH
	DB	020H
	DB	024H
	DB	020H
	DB	0ffH
	DB	048H
	DB	044H
	DB	048H
	DB	0ffH
	DB	048H
	DB	04cH
	DB	048H
	DB	0ffH
	DB	048H
	DB	04cH
	DB	048H
	DB	0ffH
	DB	050H
	DB	04cH
	DB	050H
	DB	0ffH
	DB	050H
	DB	04cH
	DB	050H
	DB	0ffH
	DB	050H
	DB	04cH
	DB	048H
	DB	0ffH
	DB	048H
	DB	04cH
	DB	050H
	DB	0ffH
	DB	050H
	DB	04cH
	DB	050H
	DB	0ffH
	DB	038H
	DB	038H
	DB	038H
	DB	0ffH
	DB	038H
	DB	038H
	DB	038H
	DB	0ffH
	DB	038H
	DB	038H
	DB	038H
	DB	0ffH
	DB	038H
	DB	03cH
	DB	038H
	DB	0ffH
	DB	040H
	DB	03cH
	DB	040H
	DB	0ffH
	DB	040H
	DB	03cH
	DB	040H
	DB	0ffH
	DB	040H
	DB	040H
	DB	040H
	DB	0ffH
	DB	040H
	DB	040H
	DB	040H
	DB	0ffH
	DB	040H
	DB	044H
	DB	040H
	DB	0ffH
	DB	040H
	DB	044H
	DB	040H
	DB	0ffH
	DB	048H
	DB	044H
	DB	048H
	DB	0ffH
	DB	048H
	DB	048H
	DB	048H
	DB	0ffH
	DB	048H
	DB	048H
	DB	048H
	DB	0ffH
	DB	048H
	DB	048H
	DB	048H
	DB	0ffH
	DB	048H
	DB	048H
	DB	048H
	DB	0ffH
	DB	050H
	DB	04cH
	DB	050H
	DB	0ffH
	DB	050H
	DB	04cH
	DB	048H
	DB	0ffH
	DB	050H
	DB	050H
	DB	050H
	DB	0ffH
	DB	050H
	DB	054H
	DB	050H
	DB	0ffH
	DB	058H
	DB	058H
	DB	058H
	DB	0ffH
	DB	040H
	DB	03cH
	DB	040H
	DB	0ffH
	DB	038H
	DB	03cH
	DB	038H
	DB	0ffH
	DB	038H
	DB	03cH
	DB	040H
	DB	0ffH
	DB	040H
	DB	038H
	DB	038H
	DB	0ffH
	DB	038H
	DB	03cH
	DB	040H
	DB	0ffH
	DB	038H
	DB	038H
	DB	038H
	DB	0ffH
	DB	038H
	DB	038H
	DB	038H
	DB	0ffH
	DB	038H
	DB	038H
	DB	038H
	DB	0ffH
	DB	028H
	DB	024H
	DB	028H
	DB	0ffH
	DB	020H
	DB	024H
	DB	020H
	DB	0ffH
	DB	028H
	DB	024H
	DB	028H
	DB	0ffH
	DB	020H
	DB	024H
	DB	028H
	DB	0ffH
	DB	040H
	DB	044H
	DB	040H
	DB	0ffH
	DB	048H
	DB	04cH
	DB	048H
	DB	0ffH
	DB	050H
	DB	04cH
	DB	050H
	DB	0ffH
	DB	050H
	DB	04cH
	DB	050H
	DB	0ffH
	DB	048H
	DB	04cH
	DB	048H
	DB	0ffH
	DB	048H
	DB	04cH
	DB	048H
	DB	0ffH
	DB	050H
	DB	04cH
	DB	048H
	DB	0ffH
	DB	050H
	DB	04cH
	DB	050H
	DB	0ffH
	DB	038H
	DB	038H
	DB	038H
	DB	0ffH
	DB	038H
	DB	038H
	DB	038H
	DB	0ffH
	DB	040H
	DB	03cH
	DB	038H
	DB	0ffH
	DB	038H
	DB	03cH
	DB	038H
	DB	0ffH
	DB	040H
	DB	03cH
	DB	040H
	DB	0ffH
	DB	040H
	DB	040H
	DB	040H
	DB	0ffH
	DB	040H
	DB	040H
	DB	040H
	DB	0ffH
	DB	040H
	DB	040H
	DB	040H
	DB	0ffH
	DB	040H
	DB	040H
	DB	040H
	DB	0ffH
	DB	048H
	DB	044H
	DB	040H
	DB	0ffH
	DB	048H
	DB	044H
	DB	048H
	DB	0ffH
	DB	040H
	DB	048H
	DB	048H
	DB	0ffH
	DB	048H
	DB	048H
	DB	048H
	DB	0ffH
	DB	048H
	DB	048H
	DB	048H
	DB	0ffH
	DB	048H
	DB	04cH
	DB	048H
	DB	0ffH
	DB	050H
	DB	04cH
	DB	050H
	DB	0ffH
	DB	048H
	DB	04cH
	DB	050H
	DB	0ffH
	DB	050H
	DB	050H
	DB	050H
	DB	0ffH
	DB	050H
	DB	050H
	DB	050H
	DB	0ffH
	DB	058H
	DB	058H
	DB	058H
	DB	0ffH
	DB	040H
	DB	03cH
	DB	040H
	DB	0ffH
	DB	038H
	DB	03cH
	DB	038H
	DB	0ffH
	DB	038H
	DB	03cH
	DB	038H
	DB	0ffH
	DB	038H
	DB	038H
	DB	038H
	DB	0ffH
	DB	040H
	DB	03cH
	DB	038H
	DB	0ffH
	DB	038H
	DB	038H
	DB	038H
	DB	0ffH
	DB	038H
	DB	038H
	DB	038H
	DB	0ffH
	DB	038H
	DB	038H
	DB	038H
	DB	0ffH
	DB	028H
	DB	024H
	DB	028H
	DB	0ffH
	DB	028H
	DB	024H
	DB	028H
	DB	0ffH
	DB	028H
	DB	024H
	DB	028H
	DB	0ffH
	DB	028H
	DB	024H
	DB	028H
	DB	0ffH
	DB	048H
	DB	044H
	DB	040H
	DB	0ffH
	DB	048H
	DB	04cH
	DB	048H
	DB	0ffH
	DB	050H
	DB	04cH
	DB	050H
	DB	0ffH
	DB	050H
	DB	04cH
	DB	050H
	DB	0ffH
	DB	048H
	DB	04cH
	DB	048H
	DB	0ffH
	DB	048H
	DB	04cH
	DB	050H
	DB	0ffH
	DB	050H
	DB	04cH
	DB	050H
	DB	0ffH
	DB	048H
	DB	04cH
	DB	048H
	DB	0ffH
	DB	038H
	DB	03cH
	DB	038H
	DB	0ffH
	DB	038H
	DB	038H
	DB	038H
	DB	0ffH
	DB	038H
	DB	03cH
	DB	040H
	DB	0ffH
	DB	038H
	DB	03cH
	DB	038H
	DB	0ffH
	DB	040H
	DB	03cH
	DB	040H
	DB	0ffH
	DB	040H
	DB	03cH
	DB	040H
	DB	0ffH
	DB	040H
	DB	040H
	DB	040H
	DB	0ffH
	DB	040H
	DB	040H
	DB	040H
	DB	0ffH
	DB	040H
	DB	044H
	DB	040H
	DB	0ffH
	DB	040H
	DB	044H
	DB	040H
	DB	0ffH
	DB	048H
	DB	044H
	DB	048H
	DB	0ffH
	DB	048H
	DB	044H
	DB	048H
	DB	0ffH
	DB	048H
	DB	048H
	DB	048H
	DB	0ffH
	DB	048H
	DB	048H
	DB	048H
	DB	0ffH
	DB	048H
	DB	04cH
	DB	048H
	DB	0ffH
	DB	048H
	DB	04cH
	DB	048H
	DB	0ffH
	DB	050H
	DB	04cH
	DB	050H
	DB	0ffH
	DB	050H
	DB	050H
	DB	050H
	DB	0ffH
	DB	050H
	DB	054H
	DB	050H
	DB	0ffH
	DB	058H
	DB	058H
	DB	058H
	DB	0ffH
	DB	040H
	DB	03cH
	DB	040H
	DB	0ffH
	DB	040H
	DB	03cH
	DB	038H
	DB	0ffH
	DB	038H
	DB	03cH
	DB	040H
	DB	0ffH
	DB	038H
	DB	038H
	DB	038H
	DB	0ffH
	DB	038H
	DB	03cH
	DB	038H
	DB	0ffH
	DB	038H
	DB	038H
	DB	038H
	DB	0ffH
	DB	038H
	DB	038H
	DB	038H
	DB	0ffH
	DB	038H
	DB	038H
	DB	038H
	DB	0ffH
	DB	028H
	DB	028H
	DB	028H
	DB	0ffH
	DB	020H
	DB	024H
	DB	028H
	DB	0ffH
	DB	020H
	DB	024H
	DB	020H
	DB	0ffH
	DB	028H
	DB	024H
	DB	028H
	DB	0ffH
	DB	040H
	DB	044H
	DB	040H
	DB	0ffH
	DB	048H
	DB	04cH
	DB	048H
	DB	0ffH
	DB	048H
	DB	04cH
	DB	048H
	DB	0ffH
	DB	050H
	DB	04cH
	DB	050H
	DB	0ffH
	DB	050H
	DB	04cH
	DB	048H
	DB	0ffH
	DB	048H
	DB	04cH
	DB	050H
	DB	0ffH
	DB	050H
	DB	04cH
	DB	048H
	DB	0ffH
	DB	050H
	DB	04cH
	DB	050H
	DB	0ffH
	DB	038H
	DB	038H
	DB	038H
	DB	0ffH
	DB	038H
	DB	038H
	DB	038H
	DB	0ffH
	DB	038H
	DB	038H
	DB	038H
	DB	0ffH
	DB	040H
	DB	03cH
	DB	038H
	DB	0ffH
	DB	038H
	DB	03cH
	DB	040H
	DB	0ffH
	DB	040H
	DB	040H
	DB	040H
	DB	0ffH
	DB	040H
	DB	040H
	DB	040H
	DB	0ffH
	DB	040H
	DB	040H
	DB	040H
	DB	0ffH
	DB	040H
	DB	040H
	DB	040H
	DB	0ffH
	DB	040H
	DB	044H
	DB	048H
	DB	0ffH
	DB	048H
	DB	044H
	DB	048H
	DB	0ffH
	DB	048H
	DB	048H
	DB	048H
	DB	0ffH
	DB	048H
	DB	048H
	DB	048H
	DB	0ffH
	DB	048H
	DB	048H
	DB	048H
	DB	0ffH
	DB	048H
	DB	04cH
	DB	048H
	DB	0ffH
	DB	050H
	DB	04cH
	DB	050H
	DB	0ffH
	DB	050H
	DB	04cH
	DB	050H
	DB	0ffH
	DB	050H
	DB	050H
	DB	050H
	DB	0ffH
	DB	050H
	DB	054H
	DB	050H
	DB	0ffH
	DB	058H
	DB	058H
	DB	058H
	DB	0ffH
	DB	040H
	DB	03cH
	DB	040H
	DB	0ffH
	DB	038H
	DB	03cH
	DB	038H
	DB	0ffH
	DB	040H
	DB	03cH
	DB	040H
	DB	0ffH
	DB	038H
	DB	038H
	DB	038H
	DB	0ffH
	DB	038H
	DB	03cH
	DB	040H
	DB	0ffH
	DB	038H
	DB	038H
	DB	038H
	DB	0ffH
	DB	038H
	DB	038H
	DB	038H
	DB	0ffH
	DB	038H
	DB	038H
	DB	038H
	DB	0ffH
	DB	028H
	DB	028H
	DB	028H
	DB	0ffH
	DB	028H
	DB	024H
	DB	020H
	DB	0ffH
	DB	028H
	DB	024H
	DB	028H
	DB	0ffH
	DB	028H
	DB	024H
	DB	028H
	DB	0ffH
	DB	040H
	DB	044H
	DB	048H
	DB	0ffH
	DB	048H
	DB	04cH
	DB	048H
	DB	0ffH
	DB	050H
	DB	04cH
	DB	050H
	DB	0ffH
	DB	050H
	DB	04cH
	DB	050H
	DB	0ffH
	DB	048H
	DB	04cH
	DB	048H
	DB	0ffH
	DB	048H
	DB	04cH
	DB	048H
	DB	0ffH
	DB	050H
	DB	04cH
	DB	050H
	DB	0ffH
	DB	048H
	DB	04cH
	DB	048H
	DB	0ffH
	DB	038H
	DB	038H
	DB	038H
	DB	0ffH
	DB	038H
	DB	038H
	DB	038H
	DB	0ffH
	DB	038H
	DB	03cH
	DB	038H
	DB	0ffH
	DB	040H
	DB	03cH
	DB	040H
	DB	0ffH
	DB	040H
	DB	03cH
	DB	040H
	DB	0ffH
	DB	038H
	DB	03cH
	DB	038H
	DB	0ffH
	DB	040H
	DB	040H
	DB	040H
	DB	0ffH
	DB	040H
	DB	040H
	DB	040H
	DB	0ffH
	DB	040H
	DB	044H
	DB	040H
	DB	0ffH
	DB	040H
	DB	044H
	DB	040H
	DB	0ffH
	DB	048H
	DB	044H
	DB	048H
	DB	0ffH
	DB	048H
	DB	048H
	DB	040H
	DB	0ffH
	DB	048H
	DB	048H
	DB	048H
	DB	0ffH
	DB	048H
	DB	048H
	DB	048H
	DB	0ffH
	DB	048H
	DB	048H
	DB	048H
	DB	0ffH
	DB	050H
	DB	04cH
	DB	050H
	DB	0ffH
	DB	050H
	DB	04cH
	DB	048H
	DB	0ffH
	DB	050H
	DB	050H
	DB	050H
	DB	0ffH
	DB	050H
	DB	054H
	DB	050H
	DB	0ffH
	DB	058H
	DB	054H
	DB	058H
	DB	0ffH
	DB	038H
	DB	03cH
	DB	040H
	DB	0ffH
	DB	038H
	DB	03cH
	DB	038H
	DB	0ffH
	DB	040H
	DB	03cH
	DB	038H
	DB	0ffH
	DB	038H
	DB	038H
	DB	038H
	DB	0ffH
	DB	040H
	DB	03cH
	DB	038H
	DB	0ffH
	DB	038H
	DB	038H
	DB	038H
	DB	0ffH
	DB	038H
	DB	038H
	DB	038H
	DB	0ffH
	DB	038H
	DB	038H
	DB	038H
	DB	0ffH
	DB	028H
	DB	024H
	DB	028H
	DB	0ffH
	DB	028H
	DB	024H
	DB	028H
	DB	0ffH
	DB	028H
	DB	024H
	DB	020H
	DB	0ffH
	DB	028H
	DB	024H
	DB	028H
	DB	0ffH
	DB	040H
	DB	044H
	DB	040H
	DB	0ffH
	DB	048H
	DB	04cH
	DB	048H
	DB	0ffH
	DB	050H
	DB	04cH
	DB	050H
	DB	0ffH
	DB	050H
	DB	04cH
	DB	050H
	DB	0ffH
	DB	048H
	DB	04cH
	DB	048H
	DB	0ffH
	DB	050H
	DB	04cH
	DB	050H
	DB	0ffH
	DB	048H
	DB	04cH
	DB	050H
	DB	0ffH
	DB	050H
	DB	04cH
	DB	048H
	DB	0ffH
	DB	038H
	DB	038H
	DB	038H
	DB	0ffH
	DB	038H
	DB	038H
	DB	038H
	DB	0ffH
	DB	038H
	DB	03cH
	DB	038H
	DB	0ffH
	DB	038H
	DB	03cH
	DB	040H
	DB	0ffH
	DB	040H
	DB	03cH
	DB	038H
	DB	0ffH
	DB	040H
	DB	040H
	DB	040H
	DB	0ffH
	DB	040H
	DB	040H
	DB	040H
	DB	0ffH
	DB	040H
	DB	040H
	DB	040H
	DB	0ffH
	DB	040H
	DB	040H
	DB	040H
	DB	0ffH
	DB	040H
	DB	044H
	DB	040H
	DB	0ffH
	DB	048H
	DB	044H
	DB	048H
	DB	0ffH
	DB	048H
	DB	044H
	DB	048H
	DB	0ffH
	DB	048H
	DB	048H
	DB	048H
	DB	0ffH
	DB	048H
	DB	048H
	DB	048H
	DB	0ffH
	DB	048H
	DB	04cH
	DB	048H
	DB	0ffH
	DB	048H
	DB	04cH
	DB	048H
	DB	0ffH
	DB	050H
	DB	04cH
	DB	050H
	DB	0ffH
	DB	050H
	DB	050H
	DB	050H
	DB	0ffH
	DB	050H
	DB	054H
	DB	050H
	DB	0ffH
	DB	058H
	DB	058H
	DB	058H
	DB	0ffH
	DB	040H
	DB	03cH
	DB	040H
	DB	0ffH
	DB	040H
	DB	03cH
	DB	038H
	DB	0ffH
	DB	038H
	DB	03cH
	DB	040H
	DB	0ffH
	DB	038H
	DB	03cH
	DB	038H
	DB	0ffH
	DB	038H
	DB	038H
	DB	038H
	DB	0ffH
	DB	038H
	DB	038H
	DB	038H
	DB	0ffH
	DB	038H
	DB	03cH
	DB	038H
	DB	0ffH
	DB	038H
	DB	038H
	DB	038H
	DB	0ffH
	DB	028H
