; Listing generated by Microsoft (R) Optimizing Compiler Version 19.11.25507.1 

	TITLE	C:\Users\Hjalm\Documents\Embedded\TouchGFX_Projects\GrowHouseController\generated\fonts\src\Kerning_segoeui_17_8bpp.cpp
	.686P
	.XMM
	include listing.inc
	.model	flat

INCLUDELIB MSVCRTD
INCLUDELIB OLDNAMES

PUBLIC	?kerning_segoeui_17_8bpp@@3QBUKerningNode@touchgfx@@B ; kerning_segoeui_17_8bpp
CONST	SEGMENT
?kerning_segoeui_17_8bpp@@3QBUKerningNode@touchgfx@@B DW 065H ; kerning_segoeui_17_8bpp
	DB	0ffH
	ORG $+1
	DW	06eH
	DB	0ffH
	ORG $+1
	DW	06fH
	DB	0ffH
	ORG $+1
	DW	065H
	DB	0ffH
	ORG $+1
	DW	06eH
	DB	0ffH
	ORG $+1
	DW	06fH
	DB	0ffH
	ORG $+1
	DW	066H
	DB	01H
	ORG $+1
	DW	041H
	DB	0ffH
	ORG $+1
	DW	04cH
	DB	0ffH
	ORG $+1
	DW	044H
	DB	0ffH
	ORG $+1
	DW	046H
	DB	0ffH
	ORG $+1
	DW	04aH
	DB	0ffH
	ORG $+1
	DW	04fH
	DB	0ffH
	ORG $+1
	DW	050H
	DB	0feH
	ORG $+1
	DW	051H
	DB	0ffH
	ORG $+1
	DW	054H
	DB	0ffH
	ORG $+1
	DW	056H
	DB	0ffH
	ORG $+1
	DW	057H
	DB	0ffH
	ORG $+1
	DW	059H
	DB	0ffH
	ORG $+1
	DW	066H
	DB	0ffH
	ORG $+1
	DW	072H
	DB	0ffH
	ORG $+1
	DW	076H
	DB	0ffH
	ORG $+1
	DW	077H
	DB	0ffH
	ORG $+1
	DW	079H
	DB	0ffH
	ORG $+1
	DW	0d0H
	DB	0ffH
	ORG $+1
	DW	0ddH
	DB	0ffH
	ORG $+1
	DW	0deH
	DB	0feH
	ORG $+1
	DW	0fdH
	DB	0ffH
	ORG $+1
	DW	066H
	DB	0ffH
	ORG $+1
	DW	06bH
	DB	0ffH
	ORG $+1
	DW	072H
	DB	0ffH
	ORG $+1
	DW	074H
	DB	0ffH
	ORG $+1
	DW	044H
	DB	0ffH
	ORG $+1
	DW	046H
	DB	0ffH
	ORG $+1
	DW	04aH
	DB	0ffH
	ORG $+1
	DW	04fH
	DB	0ffH
	ORG $+1
	DW	050H
	DB	0feH
	ORG $+1
	DW	051H
	DB	0ffH
	ORG $+1
	DW	054H
	DB	0ffH
	ORG $+1
	DW	056H
	DB	0ffH
	ORG $+1
	DW	057H
	DB	0ffH
	ORG $+1
	DW	059H
	DB	0ffH
	ORG $+1
	DW	066H
	DB	0ffH
	ORG $+1
	DW	072H
	DB	0ffH
	ORG $+1
	DW	076H
	DB	0ffH
	ORG $+1
	DW	077H
	DB	0ffH
	ORG $+1
	DW	079H
	DB	0ffH
	ORG $+1
	DW	0d0H
	DB	0ffH
	ORG $+1
	DW	0ddH
	DB	0ffH
	ORG $+1
	DW	0deH
	DB	0feH
	ORG $+1
	DW	0fdH
	DB	0ffH
	ORG $+1
	DW	04cH
	DB	0ffH
	ORG $+1
	DW	02aH
	DB	0ffH
	ORG $+1
	DW	046H
	DB	0ffH
	ORG $+1
	DW	050H
	DB	0ffH
	ORG $+1
	DW	054H
	DB	0ffH
	ORG $+1
	DW	056H
	DB	0ffH
	ORG $+1
	DW	059H
	DB	0ffH
	ORG $+1
	DW	0ddH
	DB	0ffH
	ORG $+1
	DW	0deH
	DB	0ffH
	ORG $+1
	DW	04bH
	DB	0ffH
	ORG $+1
	DW	054H
	DB	0ffH
	ORG $+1
	DW	04bH
	DB	0ffH
	ORG $+1
	DW	054H
	DB	0ffH
	ORG $+1
	DW	02aH
	DB	0ffH
	ORG $+1
	DW	041H
	DB	01H
	ORG $+1
	DW	04bH
	DB	01H
	ORG $+1
	DW	04cH
	DB	01H
	ORG $+1
	DW	050H
	DB	0ffH
	ORG $+1
	DW	054H
	DB	0ffH
	ORG $+1
	DW	058H
	DB	01H
	ORG $+1
	DW	0c0H
	DB	01H
	ORG $+1
	DW	0c1H
	DB	01H
	ORG $+1
	DW	0c2H
	DB	01H
	ORG $+1
	DW	0c3H
	DB	01H
	ORG $+1
	DW	0c4H
	DB	01H
	ORG $+1
	DW	0c5H
	DB	01H
	ORG $+1
	DW	0deH
	DB	0ffH
	ORG $+1
	DW	04bH
	DB	0ffH
	ORG $+1
	DW	054H
	DB	0ffH
	ORG $+1
	DW	04bH
	DB	0ffH
	ORG $+1
	DW	054H
	DB	0ffH
	ORG $+1
	DW	041H
	DB	0ffH
	ORG $+1
	DW	042H
	DB	0ffH
	ORG $+1
	DW	044H
	DB	0ffH
	ORG $+1
	DW	04cH
	DB	0ffH
	ORG $+1
	DW	04fH
	DB	0ffH
	ORG $+1
	DW	051H
	DB	0ffH
	ORG $+1
	DW	063H
	DB	0ffH
	ORG $+1
	DW	0c0H
	DB	0ffH
	ORG $+1
	DW	0c1H
	DB	0ffH
	ORG $+1
	DW	0c2H
	DB	0ffH
	ORG $+1
	DW	0c3H
	DB	0ffH
	ORG $+1
	DW	0c4H
	DB	0ffH
	ORG $+1
	DW	0c5H
	DB	0ffH
	ORG $+1
	DW	0d0H
	DB	0ffH
	ORG $+1
	DW	0d2H
	DB	0ffH
	ORG $+1
	DW	0d3H
	DB	0ffH
	ORG $+1
	DW	0d4H
	DB	0ffH
	ORG $+1
	DW	0d5H
	DB	0ffH
	ORG $+1
	DW	0d6H
	DB	0ffH
	ORG $+1
	DW	0d8H
	DB	0ffH
	ORG $+1
	DW	041H
	DB	0ffH
	ORG $+1
	DW	04cH
	DB	0ffH
	ORG $+1
	DW	0c0H
	DB	0ffH
	ORG $+1
	DW	0c1H
	DB	0ffH
	ORG $+1
	DW	0c2H
	DB	0ffH
	ORG $+1
	DW	0c3H
	DB	0ffH
	ORG $+1
	DW	0c4H
	DB	0ffH
	ORG $+1
	DW	0c5H
	DB	0ffH
	ORG $+1
	DW	041H
	DB	0ffH
	ORG $+1
	DW	04cH
	DB	0ffH
	ORG $+1
	DW	0bbH
	DB	0ffH
	ORG $+1
	DW	0bfH
	DB	0ffH
	ORG $+1
	DW	0c0H
	DB	0ffH
	ORG $+1
	DW	0c1H
	DB	0ffH
	ORG $+1
	DW	0c2H
	DB	0ffH
	ORG $+1
	DW	0c3H
	DB	0ffH
	ORG $+1
	DW	0c4H
	DB	0ffH
	ORG $+1
	DW	0c5H
	DB	0ffH
	ORG $+1
	DW	066H
	DB	01H
	ORG $+1
	DW	054H
	DB	0ffH
	ORG $+1
	DW	056H
	DB	0ffH
	ORG $+1
	DW	059H
	DB	0ffH
	ORG $+1
	DW	0ddH
	DB	0ffH
	ORG $+1
	DW	02aH
	DB	0ffH
	ORG $+1
	DW	054H
	DB	0ffH
	ORG $+1
	DW	056H
	DB	0ffH
	ORG $+1
	DW	059H
	DB	0ffH
	ORG $+1
	DW	0ddH
	DB	0ffH
	ORG $+1
	DW	02aH
	DB	0ffH
	ORG $+1
	DW	054H
	DB	0ffH
	ORG $+1
	DW	056H
	DB	0ffH
	ORG $+1
	DW	059H
	DB	0ffH
	ORG $+1
	DW	0ddH
	DB	0ffH
	ORG $+1
	DW	02aH
	DB	0ffH
	ORG $+1
	DW	054H
	DB	0ffH
	ORG $+1
	DW	056H
	DB	0ffH
	ORG $+1
	DW	059H
	DB	0ffH
	ORG $+1
	DW	0ddH
	DB	0ffH
	ORG $+1
	DW	054H
	DB	0ffH
	ORG $+1
	DW	02aH
	DB	0ffH
	ORG $+1
	DW	054H
	DB	0ffH
	ORG $+1
	DW	056H
	DB	0ffH
	ORG $+1
	DW	059H
	DB	0ffH
	ORG $+1
	DW	0ddH
	DB	0ffH
	ORG $+1
	DW	028H
	DB	01H
	ORG $+1
	DW	05bH
	DB	01H
	ORG $+1
	DW	071H
	DB	01H
	ORG $+1
	DW	07bH
	DB	01H
	ORG $+1
	DW	0a1H
	DB	01H
	ORG $+1
	DW	0bfH
	DB	01H
	ORG $+1
	DW	054H
	DB	0ffH
	ORG $+1
	DW	059H
	DB	0ffH
	ORG $+1
	DW	0ddH
	DB	0ffH
	ORG $+1
	DW	054H
	DB	0ffH
	ORG $+1
	DW	059H
	DB	0ffH
	ORG $+1
	DW	0ddH
	DB	0ffH
	ORG $+1
	DW	02aH
	DB	0ffH
	ORG $+1
	DW	054H
	DB	0ffH
	ORG $+1
	DW	056H
	DB	0ffH
	ORG $+1
	DW	059H
	DB	0ffH
	ORG $+1
	DW	0ddH
	DB	0ffH
	ORG $+1
	DW	054H
	DB	0ffH
	ORG $+1
	DW	059H
	DB	0ffH
	ORG $+1
	DW	0ddH
	DB	0ffH
	ORG $+1
	DW	02aH
	DB	0ffH
	ORG $+1
	DW	054H
	DB	0ffH
	ORG $+1
	DW	056H
	DB	0ffH
	ORG $+1
	DW	059H
	DB	0ffH
	ORG $+1
	DW	0ddH
	DB	0ffH
	ORG $+1
	DW	054H
	DB	0ffH
	ORG $+1
	DW	059H
	DB	0ffH
	ORG $+1
	DW	0ddH
	DB	0ffH
	ORG $+1
	DW	054H
	DB	0ffH
	ORG $+1
	DW	059H
	DB	0ffH
	ORG $+1
	DW	0ddH
	DB	0ffH
	ORG $+1
	DW	054H
	DB	0ffH
	ORG $+1
	DW	059H
	DB	0ffH
	ORG $+1
	DW	0ddH
	DB	0ffH
	ORG $+1
	DW	04cH
	DB	0ffH
	ORG $+1
	DW	054H
	DB	0ffH
	ORG $+1
	DW	054H
	DB	0ffH
	ORG $+1
	DW	054H
	DB	0ffH
	ORG $+1
	DW	04bH
	DB	0ffH
	ORG $+1
	DW	054H
	DB	0ffH
	ORG $+1
	DW	054H
	DB	0ffH
	ORG $+1
	DW	054H
	DB	0ffH
	ORG $+1
	DW	056H
	DB	0ffH
	ORG $+1
	DW	057H
	DB	0ffH
	ORG $+1
	DW	059H
	DB	0ffH
	ORG $+1
	DW	0ddH
	DB	0ffH
	ORG $+1
	DW	046H
	DB	0ffH
	ORG $+1
	DW	050H
	DB	0ffH
	ORG $+1
	DW	054H
	DB	0ffH
	ORG $+1
	DW	056H
	DB	0ffH
	ORG $+1
	DW	059H
	DB	0ffH
	ORG $+1
	DW	0ddH
	DB	0ffH
	ORG $+1
	DW	0deH
	DB	0ffH
	ORG $+1
	DW	046H
	DB	0ffH
	ORG $+1
	DW	050H
	DB	0ffH
	ORG $+1
	DW	054H
	DB	0ffH
	ORG $+1
	DW	056H
	DB	0ffH
	ORG $+1
	DW	059H
	DB	0ffH
	ORG $+1
	DW	0ddH
	DB	0ffH
	ORG $+1
	DW	0deH
	DB	0ffH
	ORG $+1
	DW	046H
	DB	0ffH
	ORG $+1
	DW	050H
	DB	0ffH
	ORG $+1
	DW	054H
	DB	0ffH
	ORG $+1
	DW	056H
	DB	0ffH
	ORG $+1
	DW	059H
	DB	0ffH
	ORG $+1
	DW	0ddH
	DB	0ffH
	ORG $+1
	DW	0deH
	DB	0ffH
	ORG $+1
	DW	046H
	DB	0ffH
	ORG $+1
	DW	050H
	DB	0ffH
	ORG $+1
	DW	054H
	DB	0ffH
	ORG $+1
	DW	056H
	DB	0ffH
	ORG $+1
	DW	059H
	DB	0ffH
	ORG $+1
	DW	0ddH
	DB	0ffH
	ORG $+1
	DW	0deH
	DB	0ffH
	ORG $+1
	DW	046H
	DB	0ffH
	ORG $+1
	DW	050H
	DB	0ffH
	ORG $+1
	DW	054H
	DB	0ffH
	ORG $+1
	DW	056H
	DB	0ffH
	ORG $+1
	DW	059H
	DB	0ffH
	ORG $+1
	DW	0ddH
	DB	0ffH
	ORG $+1
	DW	0deH
	DB	0ffH
	ORG $+1
	DW	046H
	DB	0ffH
	ORG $+1
	DW	050H
	DB	0ffH
	ORG $+1
	DW	054H
	DB	0ffH
	ORG $+1
	DW	056H
	DB	0ffH
	ORG $+1
	DW	059H
	DB	0ffH
	ORG $+1
	DW	0ddH
	DB	0ffH
	ORG $+1
	DW	0deH
	DB	0ffH
	ORG $+1
	DW	046H
	DB	0ffH
	ORG $+1
	DW	04aH
	DB	0ffH
	ORG $+1
	DW	050H
	DB	0feH
	ORG $+1
	DW	054H
	DB	0ffH
	ORG $+1
	DW	055H
	DB	0ffH
	ORG $+1
	DW	056H
	DB	0ffH
	ORG $+1
	DW	057H
	DB	0ffH
	ORG $+1
	DW	059H
	DB	0ffH
	ORG $+1
	DW	0ddH
	DB	0ffH
	ORG $+1
	DW	0deH
	DB	0feH
	ORG $+1
	DW	04bH
	DB	0ffH
	ORG $+1
	DW	054H
	DB	0ffH
	ORG $+1
	DW	04bH
	DB	0ffH
	ORG $+1
	DW	054H
	DB	0ffH
	ORG $+1
	DW	04bH
	DB	0ffH
	ORG $+1
	DW	054H
	DB	0ffH
	ORG $+1
	DW	04bH
	DB	0ffH
	ORG $+1
	DW	054H
	DB	0ffH
	ORG $+1
	DW	04bH
	DB	0ffH
	ORG $+1
	DW	054H
	DB	0ffH
	ORG $+1
	DW	04bH
	DB	0ffH
	ORG $+1
	DW	054H
	DB	0ffH
	ORG $+1
CONST	ENDS
END
