; Listing generated by Microsoft (R) Optimizing Compiler Version 19.11.25507.1 

	TITLE	C:\Users\Hjalm\Documents\Embedded\TouchGFX_Projects\GrowHouseController\generated\texts\src\LanguageGb.cpp
	.686P
	.XMM
	include listing.inc
	.model	flat

INCLUDELIB MSVCRTD
INCLUDELIB OLDNAMES

PUBLIC	?textsGb@@3QBQBGB				; textsGb
CONST	SEGMENT
?T_currTmpText_Gb@@3QBGB DW 033H			; T_currTmpText_Gb
	DW	032H
	DW	0b0H
	DW	043H
	DW	00H
	ORG $+2
?T_currHumiTxt_Gb@@3QBGB DW 036H			; T_currHumiTxt_Gb
	DW	033H
	DW	025H
	DW	00H
?T_TextId4_Gb@@3QBGB DW 043H				; T_TextId4_Gb
	DW	075H
	DW	072H
	DW	072H
	DW	065H
	DW	06eH
	DW	074H
	DW	020H
	DW	054H
	DW	065H
	DW	06dH
	DW	070H
	DW	065H
	DW	072H
	DW	061H
	DW	074H
	DW	075H
	DW	072H
	DW	065H
	DW	00H
?T_TextId7_Gb@@3QBGB DW 043H				; T_TextId7_Gb
	DW	075H
	DW	072H
	DW	072H
	DW	065H
	DW	06eH
	DW	074H
	DW	020H
	DW	048H
	DW	075H
	DW	06dH
	DW	069H
	DW	064H
	DW	069H
	DW	074H
	DW	079H
	DW	0aH
	DW	00H
?T_dateTxt_Gb@@3QBGB DW 032H				; T_dateTxt_Gb
	DW	030H
	DW	031H
	DW	037H
	DW	02dH
	DW	030H
	DW	038H
	DW	02dH
	DW	032H
	DW	034H
	DW	020H
	DW	020H
	DW	032H
	DW	031H
	DW	03aH
	DW	031H
	DW	038H
	DW	00H
?T_TextId8_Gb@@3QBGB DW 053H				; T_TextId8_Gb
	DW	065H
	DW	074H
	DW	020H
	DW	054H
	DW	065H
	DW	06dH
	DW	070H
	DW	065H
	DW	072H
	DW	061H
	DW	074H
	DW	075H
	DW	072H
	DW	065H
	DW	020H
	DW	026H
	DW	020H
	DW	048H
	DW	075H
	DW	06dH
	DW	069H
	DW	064H
	DW	069H
	DW	074H
	DW	079H
	DW	00H
	ORG $+2
?T_TextId9_Gb@@3QBGB DW 04eH				; T_TextId9_Gb
	DW	065H
	DW	077H
	DW	020H
	DW	054H
	DW	065H
	DW	078H
	DW	074H
	DW	00H
	ORG $+2
?T_TextId13_Gb@@3QBGB DW 053H				; T_TextId13_Gb
	DW	065H
	DW	074H
	DW	020H
	DW	04fH
	DW	075H
	DW	074H
	DW	070H
	DW	075H
	DW	074H
	DW	020H
	DW	043H
	DW	06fH
	DW	06eH
	DW	066H
	DW	069H
	DW	067H
	DW	075H
	DW	072H
	DW	061H
	DW	074H
	DW	069H
	DW	06fH
	DW	06eH
	DW	00H
	ORG $+2
?T_TextId14_Gb@@3QBGB DW 053H				; T_TextId14_Gb
	DW	065H
	DW	074H
	DW	020H
	DW	044H
	DW	061H
	DW	074H
	DW	065H
	DW	020H
	DW	026H
	DW	020H
	DW	054H
	DW	069H
	DW	06dH
	DW	065H
	DW	00H
?T_TextId15_Gb@@3QBGB DW 053H				; T_TextId15_Gb
	DW	065H
	DW	074H
	DW	020H
	DW	044H
	DW	061H
	DW	079H
	DW	02fH
	DW	04eH
	DW	069H
	DW	067H
	DW	068H
	DW	074H
	DW	020H
	DW	074H
	DW	069H
	DW	06dH
	DW	065H
	DW	073H
	DW	00H
?T_nightTempTxt_Gb@@3QBGB DW 031H			; T_nightTempTxt_Gb
	DW	035H
	DW	0b0H
	DW	043H
	DW	00H
	ORG $+2
?T_TextId30_Gb@@3QBGB DW 031H				; T_TextId30_Gb
	DW	030H
	DW	025H
	DW	00H
?T_TextId31_Gb@@3QBGB DW 04dH				; T_TextId31_Gb
	DW	061H
	DW	06eH
	DW	075H
	DW	061H
	DW	06cH
	DW	020H
	DW	04fH
	DW	076H
	DW	065H
	DW	072H
	DW	072H
	DW	069H
	DW	064H
	DW	065H
	DW	0aH
	DW	00H
	ORG $+2
?T_TextId32_Gb@@3QBGB DW 048H				; T_TextId32_Gb
	DW	075H
	DW	06dH
	DW	069H
	DW	064H
	DW	069H
	DW	066H
	DW	069H
	DW	065H
	DW	072H
	DW	0aH
	DW	00H
?T_TextId33_Gb@@3QBGB DW 04cH				; T_TextId33_Gb
	DW	069H
	DW	067H
	DW	068H
	DW	074H
	DW	0aH
	DW	00H
	ORG $+2
?T_TextId42_Gb@@3QBGB DW 04eH				; T_TextId42_Gb
	DW	069H
	DW	067H
	DW	068H
	DW	074H
	DW	00H
?T_TextId48_Gb@@3QBGB DW 02bH				; T_TextId48_Gb
	DW	00H
?T_TextId52_Gb@@3QBGB DW 04dH				; T_TextId52_Gb
	DW	069H
	DW	06eH
	DW	075H
	DW	074H
	DW	065H
	DW	073H
	DW	00H
?T_TextId53_Gb@@3QBGB DW 059H				; T_TextId53_Gb
	DW	065H
	DW	061H
	DW	072H
	DW	00H
	ORG $+2
?T_TextId54_Gb@@3QBGB DW 04dH				; T_TextId54_Gb
	DW	06fH
	DW	06eH
	DW	074H
	DW	068H
	DW	00H
?T_TextId55_Gb@@3QBGB DW 044H				; T_TextId55_Gb
	DW	061H
	DW	079H
	DW	00H
?T_TextId57_Gb@@3QBGB DW 048H				; T_TextId57_Gb
	DW	065H
	DW	061H
	DW	074H
	DW	065H
	DW	072H
	DW	00H
	ORG $+2
?T_TextId58_Gb@@3QBGB DW 04fH				; T_TextId58_Gb
	DW	075H
	DW	074H
	DW	070H
	DW	075H
	DW	074H
	DW	020H
	DW	033H
	DW	00H
	ORG $+2
?T_TextId59_Gb@@3QBGB DW 04fH				; T_TextId59_Gb
	DW	075H
	DW	074H
	DW	070H
	DW	075H
	DW	074H
	DW	020H
	DW	032H
	DW	00H
	ORG $+2
?T_TextId60_Gb@@3QBGB DW 04fH				; T_TextId60_Gb
	DW	075H
	DW	074H
	DW	070H
	DW	075H
	DW	074H
	DW	020H
	DW	031H
	DW	00H
	ORG $+2
?T_TextId61_Gb@@3QBGB DW 04cH				; T_TextId61_Gb
	DW	069H
	DW	067H
	DW	068H
	DW	074H
	DW	00H
?T_TextId62_Gb@@3QBGB DW 048H				; T_TextId62_Gb
	DW	075H
	DW	06dH
	DW	069H
	DW	064H
	DW	069H
	DW	066H
	DW	069H
	DW	065H
	DW	072H
	DW	00H
	ORG $+2
?T_TextId63_Gb@@3QBGB DW 044H				; T_TextId63_Gb
	DW	061H
	DW	079H
	DW	020H
	DW	042H
	DW	065H
	DW	067H
	DW	069H
	DW	06eH
	DW	073H
	DW	00H
	ORG $+2
?T_TextId67_Gb@@3QBGB DW 044H				; T_TextId67_Gb
	DW	061H
	DW	079H
	DW	020H
	DW	045H
	DW	06eH
	DW	064H
	DW	073H
	DW	00H
	ORG $+2
?T_dayEndsTxt_Gb@@3QBGB DW 030H				; T_dayEndsTxt_Gb
	DW	038H
	DW	03aH
	DW	030H
	DW	030H
	DW	00H
?T_TextId69_Gb@@3QBGB DW 048H				; T_TextId69_Gb
	DW	06fH
	DW	075H
	DW	072H
	DW	073H
	DW	00H
?T_TextId70_Gb@@3QBGB DW 04dH				; T_TextId70_Gb
	DW	069H
	DW	06eH
	DW	075H
	DW	074H
	DW	065H
	DW	073H
	DW	0aH
	DW	00H
	ORG $+2
?T_currHumiTxtId_Gb@@3QBGB DW 02H			; T_currHumiTxtId_Gb
	DW	025H
	DW	00H
	ORG $+2
?T_currTempTxtId_Gb@@3QBGB DW 02H			; T_currTempTxtId_Gb
	DW	0b0H
	DW	043H
	DW	00H
?T_TextId77_Gb@@3QBGB DW 02H				; T_TextId77_Gb
	DW	03aH
	DW	00H
	ORG $+2
?T_TextId92_Gb@@3QBGB DW 032H				; T_TextId92_Gb
	DW	030H
	DW	031H
	DW	037H
	DW	00H
	ORG $+2
?T_TextId97_Gb@@3QBGB DW 02dH				; T_TextId97_Gb
	DW	00H
?T_TextId99_Gb@@3QBGB DW 02H				; T_TextId99_Gb
	DW	00H
?textsGb@@3QBQBGB DD FLAT:?T_currTmpText_Gb@@3QBGB	; textsGb
	DD	FLAT:?T_TextId4_Gb@@3QBGB
	DD	FLAT:?T_currHumiTxt_Gb@@3QBGB
	DD	FLAT:?T_TextId7_Gb@@3QBGB
	DD	FLAT:?T_TextId4_Gb@@3QBGB
	DD	FLAT:?T_currTmpText_Gb@@3QBGB
	DD	FLAT:?T_currHumiTxt_Gb@@3QBGB
	DD	FLAT:?T_TextId7_Gb@@3QBGB
	DD	FLAT:?T_dateTxt_Gb@@3QBGB
	DD	FLAT:?T_TextId8_Gb@@3QBGB
	DD	FLAT:?T_TextId9_Gb@@3QBGB
	DD	FLAT:?T_TextId9_Gb@@3QBGB
	DD	FLAT:?T_TextId9_Gb@@3QBGB
	DD	FLAT:?T_TextId9_Gb@@3QBGB
	DD	FLAT:?T_TextId13_Gb@@3QBGB
	DD	FLAT:?T_TextId14_Gb@@3QBGB
	DD	FLAT:?T_TextId15_Gb@@3QBGB
	DD	FLAT:?T_dateTxt_Gb@@3QBGB
	DD	FLAT:?T_TextId9_Gb@@3QBGB
	DD	FLAT:?T_dateTxt_Gb@@3QBGB
	DD	FLAT:?T_dateTxt_Gb@@3QBGB
	DD	FLAT:?T_dateTxt_Gb@@3QBGB
	DD	FLAT:?T_dateTxt_Gb@@3QBGB
	DD	FLAT:?T_TextId4_Gb@@3QBGB+16
	DD	FLAT:?T_TextId8_Gb@@3QBGB+36
	DD	FLAT:?T_TextId55_Gb@@3QBGB
	DD	FLAT:?T_TextId55_Gb@@3QBGB
	DD	FLAT:?T_TextId42_Gb@@3QBGB
	DD	FLAT:?T_TextId42_Gb@@3QBGB
	DD	FLAT:?T_nightTempTxt_Gb@@3QBGB
	DD	FLAT:?T_TextId30_Gb@@3QBGB
	DD	FLAT:?T_TextId30_Gb@@3QBGB
	DD	FLAT:?T_nightTempTxt_Gb@@3QBGB
	DD	FLAT:?T_TextId31_Gb@@3QBGB
	DD	FLAT:?T_TextId32_Gb@@3QBGB
	DD	FLAT:?T_TextId33_Gb@@3QBGB
	DD	FLAT:?T_TextId57_Gb@@3QBGB
	DD	FLAT:?T_TextId4_Gb@@3QBGB+16
	DD	FLAT:?T_TextId8_Gb@@3QBGB+36
	DD	FLAT:?T_TextId55_Gb@@3QBGB
	DD	FLAT:?T_TextId42_Gb@@3QBGB
	DD	FLAT:?T_nightTempTxt_Gb@@3QBGB
	DD	FLAT:?T_nightTempTxt_Gb@@3QBGB
	DD	FLAT:?T_TextId55_Gb@@3QBGB
	DD	FLAT:?T_TextId42_Gb@@3QBGB
	DD	FLAT:?T_TextId92_Gb@@3QBGB
	DD	FLAT:?T_TextId92_Gb@@3QBGB
	DD	FLAT:?T_TextId92_Gb@@3QBGB
	DD	FLAT:?T_TextId92_Gb@@3QBGB
	DD	FLAT:?T_TextId92_Gb@@3QBGB
	DD	FLAT:?T_TextId48_Gb@@3QBGB
	DD	FLAT:?T_TextId97_Gb@@3QBGB
	DD	FLAT:?T_TextId9_Gb@@3QBGB
	DD	FLAT:?T_TextId69_Gb@@3QBGB
	DD	FLAT:?T_TextId52_Gb@@3QBGB
	DD	FLAT:?T_TextId53_Gb@@3QBGB
	DD	FLAT:?T_TextId54_Gb@@3QBGB
	DD	FLAT:?T_TextId55_Gb@@3QBGB
	DD	FLAT:?T_TextId57_Gb@@3QBGB
	DD	FLAT:?T_TextId57_Gb@@3QBGB
	DD	FLAT:?T_TextId58_Gb@@3QBGB
	DD	FLAT:?T_TextId59_Gb@@3QBGB
	DD	FLAT:?T_TextId60_Gb@@3QBGB
	DD	FLAT:?T_TextId61_Gb@@3QBGB
	DD	FLAT:?T_TextId62_Gb@@3QBGB
	DD	FLAT:?T_TextId63_Gb@@3QBGB
	DD	FLAT:?T_dayEndsTxt_Gb@@3QBGB
	DD	FLAT:?T_TextId69_Gb@@3QBGB
	DD	FLAT:?T_TextId70_Gb@@3QBGB
	DD	FLAT:?T_TextId67_Gb@@3QBGB
	DD	FLAT:?T_dayEndsTxt_Gb@@3QBGB
	DD	FLAT:?T_TextId69_Gb@@3QBGB
	DD	FLAT:?T_TextId70_Gb@@3QBGB
	DD	FLAT:?T_TextId9_Gb@@3QBGB
	DD	FLAT:?T_currHumiTxtId_Gb@@3QBGB
	DD	FLAT:?T_currTempTxtId_Gb@@3QBGB
	DD	FLAT:?T_currTempTxtId_Gb@@3QBGB
	DD	FLAT:?T_currHumiTxtId_Gb@@3QBGB
	DD	FLAT:?T_currHumiTxtId_Gb@@3QBGB
	DD	FLAT:?T_currTempTxtId_Gb@@3QBGB
	DD	FLAT:?T_TextId99_Gb@@3QBGB
	DD	FLAT:?T_TextId77_Gb@@3QBGB
	DD	FLAT:?T_TextId99_Gb@@3QBGB
	DD	FLAT:?T_TextId99_Gb@@3QBGB
	DD	FLAT:?T_TextId99_Gb@@3QBGB
	DD	FLAT:?T_TextId99_Gb@@3QBGB
	DD	FLAT:?T_TextId99_Gb@@3QBGB
	DD	FLAT:?T_TextId77_Gb@@3QBGB+2
	DD	FLAT:?T_TextId99_Gb@@3QBGB
	DD	FLAT:?T_TextId99_Gb@@3QBGB
	DD	FLAT:?T_TextId99_Gb@@3QBGB
	DD	FLAT:?T_TextId77_Gb@@3QBGB+2
	DD	FLAT:?T_TextId99_Gb@@3QBGB
	DD	FLAT:?T_TextId99_Gb@@3QBGB
	DD	FLAT:?T_TextId77_Gb@@3QBGB+2
	DD	FLAT:?T_TextId99_Gb@@3QBGB
	DD	FLAT:?T_TextId92_Gb@@3QBGB
	DD	FLAT:?T_TextId99_Gb@@3QBGB
	DD	FLAT:?T_TextId97_Gb@@3QBGB
	DD	FLAT:?T_TextId99_Gb@@3QBGB
	DD	FLAT:?T_TextId97_Gb@@3QBGB
	DD	FLAT:?T_TextId97_Gb@@3QBGB
	DD	FLAT:?T_TextId77_Gb@@3QBGB+2
	DD	FLAT:?T_TextId99_Gb@@3QBGB
	DD	FLAT:?T_TextId99_Gb@@3QBGB
	DD	FLAT:?T_TextId99_Gb@@3QBGB
	DD	FLAT:?T_TextId99_Gb@@3QBGB
CONST	ENDS
END
