; Listing generated by Microsoft (R) Optimizing Compiler Version 19.11.25507.1 

	TITLE	C:\Users\Hjalm\Documents\Embedded\TouchGFX_Projects\GrowHouseController\generated\fonts\src\Table_segoeui_17_8bpp.cpp
	.686P
	.XMM
	include listing.inc
	.model	flat

INCLUDELIB MSVCRTD
INCLUDELIB OLDNAMES

PUBLIC	?glyphs_segoeui_17_8bpp@@3QBUGlyphNode@touchgfx@@B ; glyphs_segoeui_17_8bpp
CONST	SEGMENT
?glyphs_segoeui_17_8bpp@@3QBUGlyphNode@touchgfx@@B DD 00H ; glyphs_segoeui_17_8bpp
	DW	020H
	DB	00H
	DB	00H
	DB	00H
	DB	00H
	DB	05H
	DB	0ffH
	DB	00H
	DB	01H
	DD	00H
	DW	021H
	DB	03H
	DB	0cH
	DB	0cH
	DB	01H
	DB	05H
	DB	0ffH
	DB	00H
	DB	01H
	DD	024H
	DW	022H
	DB	05H
	DB	04H
	DB	0cH
	DB	01H
	DB	07H
	DB	00H
	DB	03H
	DB	01H
	DD	038H
	DW	023H
	DB	0aH
	DB	0bH
	DB	0cH
	DB	00H
	DB	0aH
	DB	0ffH
	DB	00H
	DB	01H
	DD	0a6H
	DW	024H
	DB	08H
	DB	010H
	DB	0eH
	DB	01H
	DB	09H
	DB	0ffH
	DB	00H
	DB	01H
	DD	0126H
	DW	025H
	DB	0eH
	DB	0cH
	DB	0cH
	DB	00H
	DB	0eH
	DB	0ffH
	DB	00H
	DB	01H
	DD	01ceH
	DW	026H
	DB	0eH
	DB	0cH
	DB	0cH
	DB	00H
	DB	0eH
	DB	0ffH
	DB	00H
	DB	01H
	DD	0276H
	DW	027H
	DB	02H
	DB	04H
	DB	0cH
	DB	01H
	DB	04H
	DB	03H
	DB	03H
	DB	01H
	DD	027eH
	DW	028H
	DB	04H
	DB	010H
	DB	0cH
	DB	01H
	DB	05H
	DB	0ffH
	DB	00H
	DB	01H
	DD	02beH
	DW	029H
	DB	04H
	DB	010H
	DB	0cH
	DB	00H
	DB	05H
	DB	06H
	DB	01H
	DB	01H
	DD	02feH
	DW	02aH
	DB	07H
	DB	07H
	DB	0cH
	DB	00H
	DB	07H
	DB	07H
	DB	02H
	DB	01H
	DD	032fH
	DW	02bH
	DB	09H
	DB	09H
	DB	09H
	DB	01H
	DB	0cH
	DB	0ffH
	DB	00H
	DB	01H
	DD	0380H
	DW	02cH
	DB	03H
	DB	04H
	DB	02H
	DB	00H
	DB	04H
	DB	09H
	DB	013H
	DB	01H
	DD	038cH
	DW	02dH
	DB	05H
	DB	02H
	DB	05H
	DB	01H
	DB	07H
	DB	01cH
	DB	04H
	DB	01H
	DD	0396H
	DW	02eH
	DB	03H
	DB	02H
	DB	02H
	DB	00H
	DB	04H
	DB	020H
	DB	013H
	DB	01H
	DD	039cH
	DW	02fH
	DB	08H
	DB	0fH
	DB	0cH
	DB	0ffH
	DB	07H
	DB	0ffH
	DB	00H
	DB	01H
	DD	0414H
	DW	030H
	DB	09H
	DB	0cH
	DB	0cH
	DB	00H
	DB	09H
	DB	0ffH
	DB	00H
	DB	01H
	DD	0480H
	DW	031H
	DB	06H
	DB	0cH
	DB	0cH
	DB	01H
	DB	09H
	DB	0ffH
	DB	00H
	DB	01H
	DD	04c8H
	DW	032H
	DB	09H
	DB	0cH
	DB	0cH
	DB	00H
	DB	09H
	DB	0ffH
	DB	00H
	DB	01H
	DD	0534H
	DW	033H
	DB	07H
	DB	0cH
	DB	0cH
	DB	01H
	DB	09H
	DB	0ffH
	DB	00H
	DB	01H
	DD	0588H
	DW	034H
	DB	09H
	DB	0cH
	DB	0cH
	DB	00H
	DB	09H
	DB	0ffH
	DB	00H
	DB	01H
	DD	05f4H
	DW	035H
	DB	08H
	DB	0cH
	DB	0cH
	DB	01H
	DB	09H
	DB	0ffH
	DB	00H
	DB	01H
	DD	0654H
	DW	036H
	DB	09H
	DB	0cH
	DB	0cH
	DB	00H
	DB	09H
	DB	0ffH
	DB	00H
	DB	01H
	DD	06c0H
	DW	037H
	DB	09H
	DB	0cH
	DB	0cH
	DB	00H
	DB	09H
	DB	0ffH
	DB	00H
	DB	01H
	DD	072cH
	DW	038H
	DB	09H
	DB	0cH
	DB	0cH
	DB	00H
	DB	09H
	DB	0ffH
	DB	00H
	DB	01H
	DD	0798H
	DW	039H
	DB	09H
	DB	0cH
	DB	0cH
	DB	00H
	DB	09H
	DB	0ffH
	DB	00H
	DB	01H
	DD	0804H
	DW	03aH
	DB	03H
	DB	09H
	DB	09H
	DB	00H
	DB	04H
	DB	0ffH
	DB	00H
	DB	01H
	DD	081fH
	DW	03bH
	DB	03H
	DB	0cH
	DB	09H
	DB	00H
	DB	04H
	DB	0ffH
	DB	00H
	DB	01H
	DD	0843H
	DW	03cH
	DB	08H
	DB	09H
	DB	0aH
	DB	02H
	DB	0cH
	DB	0ffH
	DB	00H
	DB	01H
	DD	088bH
	DW	03dH
	DB	09H
	DB	06H
	DB	08H
	DB	01H
	DB	0cH
	DB	0ffH
	DB	00H
	DB	01H
	DD	08c1H
	DW	03eH
	DB	08H
	DB	09H
	DB	0aH
	DB	02H
	DB	0cH
	DB	0ffH
	DB	00H
	DB	01H
	DD	0909H
	DW	03fH
	DB	06H
	DB	0cH
	DB	0cH
	DB	01H
	DB	08H
	DB	033H
	DB	01H
	DB	01H
	DD	0951H
	DW	040H
	DB	0eH
	DB	0eH
	DB	0cH
	DB	01H
	DB	010H
	DB	0ffH
	DB	00H
	DB	01H
	DD	0a15H
	DW	041H
	DB	0bH
	DB	0cH
	DB	0cH
	DB	00H
	DB	0bH
	DB	034H
	DB	08H
	DB	01H
	DD	0a99H
	DW	042H
	DB	08H
	DB	0cH
	DB	0cH
	DB	01H
	DB	0aH
	DB	0ffH
	DB	00H
	DB	01H
	DD	0af9H
	DW	043H
	DB	0aH
	DB	0cH
	DB	0cH
	DB	00H
	DB	0bH
	DB	03cH
	DB	02H
	DB	01H
	DD	0b71H
	DW	044H
	DB	0bH
	DB	0cH
	DB	0cH
	DB	01H
	DB	0cH
	DB	0ffH
	DB	00H
	DB	01H
	DD	0bf5H
	DW	045H
	DB	07H
	DB	0cH
	DB	0cH
	DB	01H
	DB	09H
	DB	0ffH
	DB	00H
	DB	01H
	DD	0c49H
	DW	046H
	DB	07H
	DB	0cH
	DB	0cH
	DB	01H
	DB	08H
	DB	0ffH
	DB	00H
	DB	01H
	DD	0c9dH
	DW	047H
	DB	0bH
	DB	0cH
	DB	0cH
	DB	00H
	DB	0cH
	DB	03eH
	DB	02H
	DB	01H
	DD	0d21H
	DW	048H
	DB	0aH
	DB	0cH
	DB	0cH
	DB	01H
	DB	0cH
	DB	0ffH
	DB	00H
	DB	01H
	DD	0d99H
	DW	049H
	DB	02H
	DB	0cH
	DB	0cH
	DB	01H
	DB	05H
	DB	0ffH
	DB	00H
	DB	01H
	DD	0db1H
	DW	04aH
	DB	05H
	DB	0cH
	DB	0cH
	DB	00H
	DB	06H
	DB	040H
	DB	0eH
	DB	01H
	DD	0dedH
	DW	04bH
	DB	09H
	DB	0cH
	DB	0cH
	DB	01H
	DB	0aH
	DB	0ffH
	DB	00H
	DB	01H
	DD	0e59H
	DW	04cH
	DB	07H
	DB	0cH
	DB	0cH
	DB	01H
	DB	08H
	DB	0ffH
	DB	00H
	DB	01H
	DD	0eadH
	DW	04dH
	DB	0dH
	DB	0cH
	DB	0cH
	DB	01H
	DB	0fH
	DB	0ffH
	DB	00H
	DB	01H
	DD	0f49H
	DW	04eH
	DB	0bH
	DB	0cH
	DB	0cH
	DB	01H
	DB	0dH
	DB	0ffH
	DB	00H
	DB	01H
	DD	0fcdH
	DW	04fH
	DB	0dH
	DB	0cH
	DB	0cH
	DB	00H
	DB	0dH
	DB	04eH
	DB	02H
	DB	01H
	DD	01069H
	DW	050H
	DB	08H
	DB	0cH
	DB	0cH
	DB	01H
	DB	0aH
	DB	0ffH
	DB	00H
	DB	01H
	DD	010c9H
	DW	051H
	DB	0eH
	DB	0eH
	DB	0cH
	DB	00H
	DB	0dH
	DB	050H
	DB	02H
	DB	01H
	DD	0118dH
	DW	052H
	DB	0aH
	DB	0cH
	DB	0cH
	DB	01H
	DB	0aH
	DB	0ffH
	DB	00H
	DB	01H
	DD	01205H
	DW	053H
	DB	08H
	DB	0cH
	DB	0cH
	DB	01H
	DB	09H
	DB	0ffH
	DB	00H
	DB	01H
	DD	01265H
	DW	054H
	DB	09H
	DB	0cH
	DB	0cH
	DB	00H
	DB	09H
	DB	052H
	DB	014H
	DB	01H
	DD	012d1H
	DW	055H
	DB	0aH
	DB	0cH
	DB	0cH
	DB	01H
	DB	0cH
	DB	0ffH
	DB	00H
	DB	01H
	DD	01349H
	DW	056H
	DB	0bH
	DB	0cH
	DB	0cH
	DB	00H
	DB	0bH
	DB	066H
	DB	08H
	DB	01H
	DD	013cdH
	DW	057H
	DB	010H
	DB	0cH
	DB	0cH
	DB	00H
	DB	010H
	DB	0ffH
	DB	00H
	DB	01H
	DD	0148dH
	DW	058H
	DB	0aH
	DB	0cH
	DB	0cH
	DB	00H
	DB	0aH
	DB	0ffH
	DB	00H
	DB	01H
	DD	01505H
	DW	059H
	DB	0aH
	DB	0cH
	DB	0cH
	DB	00H
	DB	09H
	DB	06eH
	DB	0aH
	DB	01H
	DD	0157dH
	DW	05aH
	DB	0aH
	DB	0cH
	DB	0cH
	DB	00H
	DB	0aH
	DB	0ffH
	DB	00H
	DB	01H
	DD	015f5H
	DW	05bH
	DB	04H
	DB	010H
	DB	0cH
	DB	01H
	DB	05H
	DB	0ffH
	DB	00H
	DB	01H
	DD	01635H
	DW	05cH
	DB	08H
	DB	0fH
	DB	0cH
	DB	0ffH
	DB	06H
	DB	0ffH
	DB	00H
	DB	01H
	DD	016adH
	DW	05dH
	DB	04H
	DB	010H
	DB	0cH
	DB	00H
	DB	05H
	DB	078H
	DB	01H
	DB	01H
	DD	016edH
	DW	05eH
	DB	09H
	DB	07H
	DB	0cH
	DB	01H
	DB	0cH
	DB	0ffH
	DB	00H
	DB	01H
	DD	0172cH
	DW	05fH
	DB	08H
	DB	02H
	DB	0ffH
	DB	00H
	DB	07H
	DB	0ffH
	DB	00H
	DB	061H
	DD	0173cH
	DW	060H
	DB	04H
	DB	03H
	DB	0dH
	DB	00H
	DB	05H
	DB	0ffH
	DB	00H
	DB	01H
	DD	01748H
	DW	061H
	DB	08H
	DB	09H
	DB	09H
	DB	00H
	DB	09H
	DB	079H
	DB	04H
	DB	01H
	DD	01790H
	DW	062H
	DB	09H
	DB	0dH
	DB	0dH
	DB	01H
	DB	0aH
	DB	0ffH
	DB	00H
	DB	01H
	DD	01805H
	DW	063H
	DB	08H
	DB	09H
	DB	09H
	DB	00H
	DB	08H
	DB	07dH
	DB	05H
	DB	01H
	DD	0184dH
	DW	064H
	DB	09H
	DB	0dH
	DB	0dH
	DB	00H
	DB	0aH
	DB	082H
	DB	05H
	DB	01H
	DD	018c2H
	DW	065H
	DB	09H
	DB	09H
	DB	09H
	DB	00H
	DB	09H
	DB	087H
	DB	05H
	DB	01H
	DD	01913H
	DW	066H
	DB	06H
	DB	0dH
	DB	0dH
	DB	00H
	DB	05H
	DB	08cH
	DB	01H
	DB	01H
	DD	01961H
	DW	067H
	DB	09H
	DB	0dH
	DB	09H
	DB	00H
	DB	0aH
	DB	08dH
	DB	05H
	DB	01H
	DD	019d6H
	DW	068H
	DB	08H
	DB	0dH
	DB	0dH
	DB	01H
	DB	0aH
	DB	0ffH
	DB	00H
	DB	01H
	DD	01a3eH
	DW	069H
	DB	02H
	DB	0dH
	DB	0dH
	DB	01H
	DB	04H
	DB	0ffH
	DB	00H
	DB	01H
	DD	01a58H
	DW	06aH
	DB	05H
	DB	011H
	DB	0dH
	DB	0feH
	DB	04H
	DB	092H
	DB	06H
	DB	01H
	DD	01aadH
	DW	06bH
	DB	08H
	DB	0dH
	DB	0dH
	DB	01H
	DB	08H
	DB	0ffH
	DB	00H
	DB	01H
	DD	01b15H
	DW	06cH
	DB	02H
	DB	0dH
	DB	0dH
	DB	01H
	DB	04H
	DB	0ffH
	DB	00H
	DB	01H
	DD	01b2fH
	DW	06dH
	DB	0dH
	DB	09H
	DB	09H
	DB	01H
	DB	0fH
	DB	098H
	DB	03H
	DB	01H
	DD	01ba4H
	DW	06eH
	DB	08H
	DB	09H
	DB	09H
	DB	01H
	DB	0aH
	DB	09bH
	DB	03H
	DB	01H
	DD	01becH
	DW	06fH
	DB	0aH
	DB	09H
	DB	09H
	DB	00H
	DB	0aH
	DB	09eH
	DB	05H
	DB	01H
	DD	01c46H
	DW	070H
	DB	09H
	DB	0dH
	DB	09H
	DB	01H
	DB	0aH
	DB	0a3H
	DB	03H
	DB	01H
	DD	01cbbH
	DW	071H
	DB	09H
	DB	0dH
	DB	09H
	DB	00H
	DB	0aH
	DB	0a6H
	DB	05H
	DB	01H
	DD	01d30H
	DW	072H
	DB	05H
	DB	0aH
	DB	0aH
	DB	01H
	DB	06H
	DB	0abH
	DB	03H
	DB	01H
	DD	01d62H
	DW	073H
	DB	07H
	DB	09H
	DB	09H
	DB	00H
	DB	07H
	DB	0aeH
	DB	03H
	DB	01H
	DD	01da1H
	DW	074H
	DB	06H
	DB	0cH
	DB	0cH
	DB	00H
	DB	06H
	DB	0ffH
	DB	00H
	DB	01H
	DD	01de9H
	DW	075H
	DB	08H
	DB	09H
	DB	09H
	DB	01H
	DB	0aH
	DB	0b1H
	DB	03H
	DB	01H
	DD	01e31H
	DW	076H
	DB	09H
	DB	09H
	DB	09H
	DB	00H
	DB	08H
	DB	0b4H
	DB	02H
	DB	01H
	DD	01e82H
	DW	077H
	DB	0dH
	DB	09H
	DB	09H
	DB	00H
	DB	0cH
	DB	0b6H
	DB	01H
	DB	01H
	DD	01ef7H
	DW	078H
	DB	08H
	DB	09H
	DB	09H
	DB	00H
	DB	08H
	DB	0b7H
	DB	01H
	DB	01H
	DD	01f3fH
	DW	079H
	DB	09H
	DB	0dH
	DB	09H
	DB	00H
	DB	08H
	DB	0b8H
	DB	02H
	DB	01H
	DD	01fb4H
	DW	07aH
	DB	08H
	DB	09H
	DB	09H
	DB	00H
	DB	08H
	DB	0baH
	DB	01H
	DB	01H
	DD	01ffcH
	DW	07bH
	DB	05H
	DB	010H
	DB	0cH
	DB	00H
	DB	05H
	DB	0ffH
	DB	00H
	DB	01H
	DD	0204cH
	DW	07cH
	DB	02H
	DB	012H
	DB	0eH
	DB	01H
	DB	04H
	DB	0ffH
	DB	00H
	DB	01H
	DD	02070H
	DW	07dH
	DB	05H
	DB	010H
	DB	0cH
	DB	00H
	DB	05H
	DB	0ffH
	DB	00H
	DB	01H
	DD	020c0H
	DW	07eH
	DB	09H
	DB	04H
	DB	07H
	DB	01H
	DB	0cH
	DB	0ffH
	DB	00H
	DB	01H
	DD	020e4H
	DW	0a0H
	DB	00H
	DB	00H
	DB	00H
	DB	00H
	DB	05H
	DB	0ffH
	DB	00H
	DB	01H
	DD	020e4H
	DW	0a1H
	DB	03H
	DB	0dH
	DB	09H
	DB	01H
	DB	05H
	DB	0ffH
	DB	00H
	DB	01H
	DD	0210bH
	DW	0a2H
	DB	07H
	DB	0cH
	DB	0cH
	DB	01H
	DB	09H
	DB	0ffH
	DB	00H
	DB	01H
	DD	0215fH
	DW	0a3H
	DB	09H
	DB	0cH
	DB	0cH
	DB	00H
	DB	09H
	DB	0ffH
	DB	00H
	DB	01H
	DD	021cbH
	DW	0a4H
	DB	09H
	DB	09H
	DB	0bH
	DB	00H
	DB	09H
	DB	0ffH
	DB	00H
	DB	01H
	DD	0221cH
	DW	0a5H
	DB	09H
	DB	0cH
	DB	0cH
	DB	00H
	DB	09H
	DB	0ffH
	DB	00H
	DB	01H
	DD	02288H
	DW	0a6H
	DB	02H
	DB	012H
	DB	0eH
	DB	01H
	DB	04H
	DB	0ffH
	DB	00H
	DB	01H
	DD	022acH
	DW	0a7H
	DB	06H
	DB	0dH
	DB	0dH
	DB	01H
	DB	08H
	DB	0ffH
	DB	00H
	DB	01H
	DD	022faH
	DW	0a8H
	DB	05H
	DB	02H
	DB	0cH
	DB	01H
	DB	07H
	DB	0ffH
	DB	00H
	DB	01H
	DD	02304H
	DW	0a9H
	DB	0dH
	DB	0cH
	DB	0cH
	DB	01H
	DB	0fH
	DB	0ffH
	DB	00H
	DB	01H
	DD	023a0H
	DW	0aaH
	DB	06H
	DB	06H
	DB	0cH
	DB	00H
	DB	07H
	DB	0ffH
	DB	00H
	DB	01H
	DD	023c4H
	DW	0abH
	DB	08H
	DB	06H
	DB	08H
	DB	00H
	DB	09H
	DB	0bbH
	DB	01H
	DB	01H
	DD	023f4H
	DW	0acH
	DB	09H
	DB	05H
	DB	07H
	DB	01H
	DB	0cH
	DB	0ffH
	DB	00H
	DB	01H
	DD	02421H
	DW	0adH
	DB	05H
	DB	02H
	DB	05H
	DB	01H
	DB	07H
	DB	0ffH
	DB	00H
	DB	01H
	DD	0242bH
	DW	0aeH
	DB	0bH
	DB	0aH
	DB	0cH
	DB	02H
	DB	0fH
	DB	0ffH
	DB	00H
	DB	01H
	DD	02499H
	DW	0afH
	DB	08H
	DB	02H
	DB	0dH
	DB	00H
	DB	07H
	DB	0ffH
	DB	00H
	DB	01H
	DD	024a9H
	DW	0b0H
	DB	06H
	DB	04H
	DB	0cH
	DB	00H
	DB	06H
	DB	0ffH
	DB	00H
	DB	01H
	DD	024c1H
	DW	0b1H
	DB	09H
	DB	0bH
	DB	0bH
	DB	01H
	DB	0cH
	DB	0ffH
	DB	00H
	DB	01H
	DD	02524H
	DW	0b2H
	DB	06H
	DB	08H
	DB	0fH
	DB	00H
	DB	06H
	DB	0ffH
	DB	00H
	DB	01H
	DD	02554H
	DW	0b3H
	DB	05H
	DB	09H
	DB	010H
	DB	01H
	DB	06H
	DB	0ffH
	DB	00H
	DB	01H
	DD	02581H
	DW	0b4H
	DB	04H
	DB	03H
	DB	0dH
	DB	01H
	DB	05H
	DB	0ffH
	DB	00H
	DB	01H
	DD	0258dH
	DW	0b5H
	DB	08H
	DB	0dH
	DB	09H
	DB	01H
	DB	0aH
	DB	0ffH
	DB	00H
	DB	01H
	DD	025f5H
	DW	0b6H
	DB	07H
	DB	0cH
	DB	0cH
	DB	00H
	DB	08H
	DB	0ffH
	DB	00H
	DB	01H
	DD	02649H
	DW	0b7H
	DB	03H
	DB	02H
	DB	06H
	DB	00H
	DB	04H
	DB	0ffH
	DB	00H
	DB	01H
	DD	0264fH
	DW	0b8H
	DB	04H
	DB	04H
	DB	00H
	DB	00H
	DB	03H
	DB	0ffH
	DB	00H
	DB	01H
	DD	0265fH
	DW	0b9H
	DB	04H
	DB	08H
	DB	010H
	DB	00H
	DB	06H
	DB	0ffH
	DB	00H
	DB	01H
	DD	0267fH
	DW	0baH
	DB	07H
	DB	07H
	DB	0cH
	DB	00H
	DB	07H
	DB	0ffH
	DB	00H
	DB	01H
	DD	026b0H
	DW	0bbH
	DB	08H
	DB	06H
	DB	08H
	DB	00H
	DB	09H
	DB	0ffH
	DB	00H
	DB	01H
	DD	026e0H
	DW	0bcH
	DB	0fH
	DB	0cH
	DB	0cH
	DB	00H
	DB	0fH
	DB	0ffH
	DB	00H
	DB	01H
	DD	02794H
	DW	0bdH
	DB	0fH
	DB	0cH
	DB	0cH
	DB	00H
	DB	010H
	DB	0ffH
	DB	00H
	DB	01H
	DD	02848H
	DW	0beH
	DB	0eH
	DB	0cH
	DB	0cH
	DB	01H
	DB	010H
	DB	0ffH
	DB	00H
	DB	01H
	DD	028f0H
	DW	0bfH
	DB	06H
	DB	0dH
	DB	09H
	DB	01H
	DB	08H
	DB	0bcH
	DB	04H
	DB	01H
	DD	0293eH
	DW	0c0H
	DB	0bH
	DB	011H
	DB	011H
	DB	00H
	DB	0bH
	DB	0c0H
	DB	07H
	DB	01H
	DD	029f9H
	DW	0c1H
	DB	0bH
	DB	011H
	DB	011H
	DB	00H
	DB	0bH
	DB	0c7H
	DB	07H
	DB	01H
	DD	02ab4H
	DW	0c2H
	DB	0bH
	DB	011H
	DB	011H
	DB	00H
	DB	0bH
	DB	0ceH
	DB	07H
	DB	01H
	DD	02b6fH
	DW	0c3H
	DB	0bH
	DB	0fH
	DB	0fH
	DB	00H
	DB	0bH
	DB	0d5H
	DB	07H
	DB	01H
	DD	02c14H
	DW	0c4H
	DB	0bH
	DB	0fH
	DB	0fH
	DB	00H
	DB	0bH
	DB	0dcH
	DB	07H
	DB	01H
	DD	02cb9H
	DW	0c5H
	DB	0bH
	DB	0fH
	DB	0fH
	DB	00H
	DB	0bH
	DB	0e3H
	DB	07H
	DB	01H
	DD	02d5eH
	DW	0c6H
	DB	0eH
	DB	0cH
	DB	0cH
	DB	00H
	DB	0fH
	DB	0eaH
	DB	0aH
	DB	01H
	DD	02e06H
	DW	0c7H
	DB	0aH
	DB	010H
	DB	0cH
	DB	00H
	DB	0bH
	DB	0f4H
	DB	02H
	DB	01H
	DD	02ea6H
	DW	0c8H
	DB	07H
	DB	011H
	DB	011H
	DB	01H
	DB	09H
	DB	0ffH
	DB	00H
	DB	01H
	DD	02f1dH
	DW	0c9H
	DB	07H
	DB	011H
	DB	011H
	DB	01H
	DB	09H
	DB	0ffH
	DB	00H
	DB	01H
	DD	02f94H
	DW	0caH
	DB	07H
	DB	011H
	DB	011H
	DB	01H
	DB	09H
	DB	0ffH
	DB	00H
	DB	01H
	DD	0300bH
	DW	0cbH
	DB	07H
	DB	0fH
	DB	0fH
	DB	01H
	DB	09H
	DB	0ffH
	DB	00H
	DB	01H
	DD	03074H
	DW	0ccH
	DB	04H
	DB	011H
	DB	011H
	DB	00H
	DB	05H
	DB	0ffH
	DB	00H
	DB	01H
	DD	030b8H
	DW	0cdH
	DB	04H
	DB	011H
	DB	011H
	DB	01H
	DB	05H
	DB	0ffH
	DB	00H
	DB	01H
	DD	030fcH
	DW	0ceH
	DB	06H
	DB	011H
	DB	011H
	DB	0ffH
	DB	05H
	DB	0ffH
	DB	00H
	DB	01H
	DD	03162H
	DW	0cfH
	DB	06H
	DB	0fH
	DB	0fH
	DB	0ffH
	DB	05H
	DB	0ffH
	DB	00H
	DB	01H
	DD	031bcH
	DW	0d0H
	DB	0cH
	DB	0cH
	DB	0cH
	DB	00H
	DB	0cH
	DB	0ffH
	DB	00H
	DB	01H
	DD	0324cH
	DW	0d1H
	DB	0bH
	DB	0fH
	DB	0fH
	DB	01H
	DB	0dH
	DB	0ffH
	DB	00H
	DB	01H
	DD	032f1H
	DW	0d2H
	DB	0dH
	DB	011H
	DB	011H
	DB	00H
	DB	0dH
	DB	0f6H
	DB	02H
	DB	01H
	DD	033ceH
	DW	0d3H
	DB	0dH
	DB	011H
	DB	011H
	DB	00H
	DB	0dH
	DB	0f8H
	DB	02H
	DB	01H
	DD	034abH
	DW	0d4H
	DB	0dH
	DB	011H
	DB	011H
	DB	00H
	DB	0dH
	DB	0faH
	DB	02H
	DB	01H
	DD	03588H
	DW	0d5H
	DB	0dH
	DB	010H
	DB	010H
	DB	00H
	DB	0dH
	DB	0fcH
	DB	02H
	DB	01H
	DD	03658H
	DW	0d6H
	DB	0dH
	DB	0fH
	DB	0fH
	DB	00H
	DB	0dH
	DB	0feH
	DB	02H
	DB	01H
	DD	0371bH
	DW	0d7H
	DB	08H
	DB	08H
	DB	09H
	DB	02H
	DB	0cH
	DB	0ffH
	DB	00H
	DB	01H
	DD	0375bH
	DW	0d8H
	DB	0dH
	DB	0eH
	DB	0dH
	DB	00H
	DB	0dH
	DB	0ffH
	DB	00H
	DB	01H
	DD	03811H
	DW	0d9H
	DB	0aH
	DB	011H
	DB	011H
	DB	01H
	DB	0cH
	DB	0ffH
	DB	00H
	DB	01H
	DD	038bbH
	DW	0daH
	DB	0aH
	DB	011H
	DB	011H
	DB	01H
	DB	0cH
	DB	0ffH
	DB	00H
	DB	01H
	DD	03965H
	DW	0dbH
	DB	0aH
	DB	011H
	DB	011H
	DB	01H
	DB	0cH
	DB	0ffH
	DB	00H
	DB	01H
	DD	03a0fH
	DW	0dcH
	DB	0aH
	DB	0fH
	DB	0fH
	DB	01H
	DB	0cH
	DB	0ffH
	DB	00H
	DB	01H
	DD	03aa5H
	DW	0ddH
	DB	0aH
	DB	011H
	DB	011H
	DB	00H
	DB	09H
	DB	0ffH
	DB	00H
	DB	01H
	DD	03b4fH
	DW	0deH
	DB	08H
	DB	0cH
	DB	0cH
	DB	01H
	DB	0aH
	DB	0ffH
	DB	00H
	DB	01H
	DD	03bafH
	DW	0dfH
	DB	08H
	DB	0dH
	DB	0dH
	DB	01H
	DB	09H
	DB	0ffH
	DB	00H
	DB	01H
	DD	03c17H
	DW	0e0H
	DB	08H
	DB	0dH
	DB	0dH
	DB	00H
	DB	09H
	DB	0ffH
	DB	00H
	DB	01H
	DD	03c7fH
	DW	0e1H
	DB	08H
	DB	0dH
	DB	0dH
	DB	00H
	DB	09H
	DB	0ffH
	DB	00H
	DB	01H
	DD	03ce7H
	DW	0e2H
	DB	08H
	DB	0dH
	DB	0dH
	DB	00H
	DB	09H
	DB	0ffH
	DB	00H
	DB	01H
	DD	03d4fH
	DW	0e3H
	DB	08H
	DB	0cH
	DB	0cH
	DB	00H
	DB	09H
	DB	0ffH
	DB	00H
	DB	01H
	DD	03dafH
	DW	0e4H
	DB	08H
	DB	0cH
	DB	0cH
	DB	00H
	DB	09H
	DB	0ffH
	DB	00H
	DB	01H
	DD	03e0fH
	DW	0e5H
	DB	08H
	DB	0eH
	DB	0eH
	DB	00H
	DB	09H
	DB	0ffH
	DB	00H
	DB	01H
	DD	03e7fH
	DW	0e6H
	DB	0eH
	DB	09H
	DB	09H
	DB	00H
	DB	0eH
	DB	0ffH
	DB	00H
	DB	01H
	DD	03efdH
	DW	0e7H
	DB	08H
	DB	0dH
	DB	09H
	DB	00H
	DB	08H
	DB	0ffH
	DB	00H
	DB	01H
	DD	03f65H
	DW	0e8H
	DB	09H
	DB	0dH
	DB	0dH
	DB	00H
	DB	09H
	DB	0ffH
	DB	00H
	DB	01H
	DD	03fdaH
	DW	0e9H
	DB	09H
	DB	0dH
	DB	0dH
	DB	00H
	DB	09H
	DB	0ffH
	DB	00H
	DB	01H
	DD	0404fH
	DW	0eaH
	DB	09H
	DB	0dH
	DB	0dH
	DB	00H
	DB	09H
	DB	0ffH
	DB	00H
	DB	01H
	DD	040c4H
	DW	0ebH
	DB	09H
	DB	0cH
	DB	0cH
	DB	00H
	DB	09H
	DB	0ffH
	DB	00H
	DB	01H
	DD	04130H
	DW	0ecH
	DB	05H
	DB	0dH
	DB	0dH
	DB	0ffH
	DB	04H
	DB	0ffH
	DB	00H
	DB	01H
	DD	04171H
	DW	0edH
	DB	04H
	DB	0dH
	DB	0dH
	DB	00H
	DB	04H
	DB	0ffH
	DB	00H
	DB	01H
	DD	041a5H
	DW	0eeH
	DB	06H
	DB	0dH
	DB	0dH
	DB	0ffH
	DB	04H
	DB	0ffH
	DB	00H
	DB	01H
	DD	041f3H
	DW	0efH
	DB	06H
	DB	0cH
	DB	0cH
	DB	0ffH
	DB	04H
	DB	0ffH
	DB	00H
	DB	01H
	DD	0423bH
	DW	0f0H
	DB	09H
	DB	0eH
	DB	0eH
	DB	00H
	DB	0aH
	DB	0ffH
	DB	00H
	DB	01H
	DD	042b9H
	DW	0f1H
	DB	08H
	DB	0cH
	DB	0cH
	DB	01H
	DB	0aH
	DB	0ffH
	DB	00H
	DB	01H
	DD	04319H
	DW	0f2H
	DB	0aH
	DB	0dH
	DB	0dH
	DB	00H
	DB	0aH
	DB	0ffH
	DB	00H
	DB	01H
	DD	0439bH
	DW	0f3H
	DB	0aH
	DB	0dH
	DB	0dH
	DB	00H
	DB	0aH
	DB	0ffH
	DB	00H
	DB	01H
	DD	0441dH
	DW	0f4H
	DB	0aH
	DB	0dH
	DB	0dH
	DB	00H
	DB	0aH
	DB	0ffH
	DB	00H
	DB	01H
	DD	0449fH
	DW	0f5H
	DB	0aH
	DB	0cH
	DB	0cH
	DB	00H
	DB	0aH
	DB	0ffH
	DB	00H
	DB	01H
	DD	04517H
	DW	0f6H
	DB	0aH
	DB	0cH
	DB	0cH
	DB	00H
	DB	0aH
	DB	0ffH
	DB	00H
	DB	01H
	DD	0458fH
	DW	0f7H
	DB	09H
	DB	08H
	DB	09H
	DB	01H
	DB	0cH
	DB	0ffH
	DB	00H
	DB	01H
	DD	045d7H
	DW	0f8H
	DB	0aH
	DB	0bH
	DB	0aH
	DB	00H
	DB	0aH
	DB	0ffH
	DB	00H
	DB	01H
	DD	04645H
	DW	0f9H
	DB	08H
	DB	0dH
	DB	0dH
	DB	01H
	DB	0aH
	DB	0ffH
	DB	00H
	DB	01H
	DD	046adH
	DW	0faH
	DB	08H
	DB	0dH
	DB	0dH
	DB	01H
	DB	0aH
	DB	0ffH
	DB	00H
	DB	01H
	DD	04715H
	DW	0fbH
	DB	08H
	DB	0dH
	DB	0dH
	DB	01H
	DB	0aH
	DB	0ffH
	DB	00H
	DB	01H
	DD	0477dH
	DW	0fcH
	DB	08H
	DB	0cH
	DB	0cH
	DB	01H
	DB	0aH
	DB	0ffH
	DB	00H
	DB	01H
	DD	047ddH
	DW	0fdH
	DB	09H
	DB	011H
	DB	0dH
	DB	00H
	DB	08H
	DB	0ffH
	DB	00H
	DB	01H
	DD	04876H
	DW	0feH
	DB	09H
	DB	011H
	DB	0dH
	DB	01H
	DB	0aH
	DB	0ffH
	DB	00H
	DB	01H
CONST	ENDS
END
