; Listing generated by Microsoft (R) Optimizing Compiler Version 19.11.25507.1 

	TITLE	C:\Users\Hjalm\Documents\Embedded\TouchGFX_Projects\GrowHouseController\generated\texts\src\TypedTextDatabase.cpp
	.686P
	.XMM
	include listing.inc
	.model	flat

INCLUDELIB MSVCRTD
INCLUDELIB OLDNAMES

CONST	SEGMENT
?typedTextDatabaseArray@@3QBQBUTypedTextData@TypedText@touchgfx@@B DD FLAT:?typedText_database_DEFAULT@@3QBUTypedTextData@TypedText@touchgfx@@B ; typedTextDatabaseArray
CONST	ENDS
PUBLIC	?getInstance@TypedTextDatabase@@YAPBUTypedTextData@TypedText@touchgfx@@G@Z ; TypedTextDatabase::getInstance
PUBLIC	?getFonts@TypedTextDatabase@@YAPBQBVFont@touchgfx@@XZ ; TypedTextDatabase::getFonts
PUBLIC	?getInstanceSize@TypedTextDatabase@@YAGXZ	; TypedTextDatabase::getInstanceSize
EXTRN	?getFont_verdana_17_8bpp@@YAAAVInternalFlashFont@touchgfx@@XZ:PROC ; getFont_verdana_17_8bpp
EXTRN	?getFont_segoeui_67_4bpp@@YAAAVInternalFlashFont@touchgfx@@XZ:PROC ; getFont_segoeui_67_4bpp
EXTRN	?getFont_verdana_12_4bpp@@YAAAVInternalFlashFont@touchgfx@@XZ:PROC ; getFont_verdana_12_4bpp
EXTRN	?getFont_verdana_34_4bpp@@YAAAVInternalFlashFont@touchgfx@@XZ:PROC ; getFont_verdana_34_4bpp
EXTRN	?getFont_verdana_46_4bpp@@YAAAVInternalFlashFont@touchgfx@@XZ:PROC ; getFont_verdana_46_4bpp
EXTRN	?getFont_segoeui_40_8bpp@@YAAAVInternalFlashFont@touchgfx@@XZ:PROC ; getFont_segoeui_40_8bpp
EXTRN	?getFont_segoeui_18_8bpp@@YAAAVInternalFlashFont@touchgfx@@XZ:PROC ; getFont_segoeui_18_8bpp
EXTRN	?getFont_segoeui_28_8bpp@@YAAAVInternalFlashFont@touchgfx@@XZ:PROC ; getFont_segoeui_28_8bpp
EXTRN	?getFont_segoeui_17_8bpp@@YAAAVInternalFlashFont@touchgfx@@XZ:PROC ; getFont_segoeui_17_8bpp
EXTRN	__RTC_CheckEsp:PROC
EXTRN	__RTC_InitBase:PROC
EXTRN	__RTC_Shutdown:PROC
_BSS	SEGMENT
?_fonts@@3QBQBVFont@touchgfx@@B DD 09H DUP (?)		; _fonts
?typedText_database_DEFAULT@@3QBUTypedTextData@TypedText@touchgfx@@B DW 06bH DUP (?) ; typedText_database_DEFAULT
_BSS	ENDS
CRT$XCU	SEGMENT
?_fonts$initializer$@@3P6AXXZA DD FLAT:??__E_fonts@@YAXXZ ; _fonts$initializer$
CRT$XCU	ENDS
;	COMDAT rtc$TMZ
rtc$TMZ	SEGMENT
__RTC_Shutdown.rtc$TMZ DD FLAT:__RTC_Shutdown
rtc$TMZ	ENDS
;	COMDAT rtc$IMZ
rtc$IMZ	SEGMENT
__RTC_InitBase.rtc$IMZ DD FLAT:__RTC_InitBase
rtc$IMZ	ENDS
CRT$XCU	SEGMENT
?typedText_database_DEFAULT$initializer$@@3P6AXXZA DD FLAT:??__EtypedText_database_DEFAULT@@YAXXZ ; typedText_database_DEFAULT$initializer$
CRT$XCU	ENDS
; Function compile flags: /Odtp /RTCsu /ZI
;	COMDAT ??__EtypedText_database_DEFAULT@@YAXXZ
text$di	SEGMENT
??__EtypedText_database_DEFAULT@@YAXXZ PROC		; `dynamic initializer for 'typedText_database_DEFAULT'', COMDAT
; File c:\users\hjalm\documents\embedded\touchgfx_projects\growhousecontroller\generated\texts\src\typedtextdatabase.cpp
; Line 143
	push	ebp
	mov	ebp, esp
	sub	esp, 192				; 000000c0H
	push	ebx
	push	esi
	push	edi
	lea	edi, DWORD PTR [ebp-192]
	mov	ecx, 48					; 00000030H
	mov	eax, -858993460				; ccccccccH
	rep stosd
; Line 36
	mov	BYTE PTR ?typedText_database_DEFAULT@@3QBUTypedTextData@TypedText@touchgfx@@B, 1
	mov	BYTE PTR ?typedText_database_DEFAULT@@3QBUTypedTextData@TypedText@touchgfx@@B+1, 1
; Line 37
	mov	BYTE PTR ?typedText_database_DEFAULT@@3QBUTypedTextData@TypedText@touchgfx@@B+2, 2
	mov	BYTE PTR ?typedText_database_DEFAULT@@3QBUTypedTextData@TypedText@touchgfx@@B+3, 1
; Line 38
	mov	BYTE PTR ?typedText_database_DEFAULT@@3QBUTypedTextData@TypedText@touchgfx@@B+4, 1
	mov	BYTE PTR ?typedText_database_DEFAULT@@3QBUTypedTextData@TypedText@touchgfx@@B+5, 1
; Line 39
	mov	BYTE PTR ?typedText_database_DEFAULT@@3QBUTypedTextData@TypedText@touchgfx@@B+6, 2
	mov	BYTE PTR ?typedText_database_DEFAULT@@3QBUTypedTextData@TypedText@touchgfx@@B+7, 1
; Line 40
	mov	BYTE PTR ?typedText_database_DEFAULT@@3QBUTypedTextData@TypedText@touchgfx@@B+8, 2
	mov	BYTE PTR ?typedText_database_DEFAULT@@3QBUTypedTextData@TypedText@touchgfx@@B+9, 1
; Line 41
	mov	BYTE PTR ?typedText_database_DEFAULT@@3QBUTypedTextData@TypedText@touchgfx@@B+10, 1
	mov	BYTE PTR ?typedText_database_DEFAULT@@3QBUTypedTextData@TypedText@touchgfx@@B+11, 1
; Line 42
	mov	BYTE PTR ?typedText_database_DEFAULT@@3QBUTypedTextData@TypedText@touchgfx@@B+12, 1
	mov	BYTE PTR ?typedText_database_DEFAULT@@3QBUTypedTextData@TypedText@touchgfx@@B+13, 1
; Line 43
	mov	BYTE PTR ?typedText_database_DEFAULT@@3QBUTypedTextData@TypedText@touchgfx@@B+14, 2
	mov	BYTE PTR ?typedText_database_DEFAULT@@3QBUTypedTextData@TypedText@touchgfx@@B+15, 1
; Line 44
	mov	BYTE PTR ?typedText_database_DEFAULT@@3QBUTypedTextData@TypedText@touchgfx@@B+16, 0
	mov	BYTE PTR ?typedText_database_DEFAULT@@3QBUTypedTextData@TypedText@touchgfx@@B+17, 2
; Line 45
	mov	BYTE PTR ?typedText_database_DEFAULT@@3QBUTypedTextData@TypedText@touchgfx@@B+18, 0
	mov	BYTE PTR ?typedText_database_DEFAULT@@3QBUTypedTextData@TypedText@touchgfx@@B+19, 1
; Line 46
	mov	BYTE PTR ?typedText_database_DEFAULT@@3QBUTypedTextData@TypedText@touchgfx@@B+20, 0
	mov	BYTE PTR ?typedText_database_DEFAULT@@3QBUTypedTextData@TypedText@touchgfx@@B+21, 1
; Line 47
	mov	BYTE PTR ?typedText_database_DEFAULT@@3QBUTypedTextData@TypedText@touchgfx@@B+22, 0
	mov	BYTE PTR ?typedText_database_DEFAULT@@3QBUTypedTextData@TypedText@touchgfx@@B+23, 1
; Line 48
	mov	BYTE PTR ?typedText_database_DEFAULT@@3QBUTypedTextData@TypedText@touchgfx@@B+24, 0
	mov	BYTE PTR ?typedText_database_DEFAULT@@3QBUTypedTextData@TypedText@touchgfx@@B+25, 1
; Line 49
	mov	BYTE PTR ?typedText_database_DEFAULT@@3QBUTypedTextData@TypedText@touchgfx@@B+26, 0
	mov	BYTE PTR ?typedText_database_DEFAULT@@3QBUTypedTextData@TypedText@touchgfx@@B+27, 1
; Line 50
	mov	BYTE PTR ?typedText_database_DEFAULT@@3QBUTypedTextData@TypedText@touchgfx@@B+28, 0
	mov	BYTE PTR ?typedText_database_DEFAULT@@3QBUTypedTextData@TypedText@touchgfx@@B+29, 1
; Line 51
	mov	BYTE PTR ?typedText_database_DEFAULT@@3QBUTypedTextData@TypedText@touchgfx@@B+30, 0
	mov	BYTE PTR ?typedText_database_DEFAULT@@3QBUTypedTextData@TypedText@touchgfx@@B+31, 1
; Line 52
	mov	BYTE PTR ?typedText_database_DEFAULT@@3QBUTypedTextData@TypedText@touchgfx@@B+32, 0
	mov	BYTE PTR ?typedText_database_DEFAULT@@3QBUTypedTextData@TypedText@touchgfx@@B+33, 1
; Line 53
	mov	BYTE PTR ?typedText_database_DEFAULT@@3QBUTypedTextData@TypedText@touchgfx@@B+34, 0
	mov	BYTE PTR ?typedText_database_DEFAULT@@3QBUTypedTextData@TypedText@touchgfx@@B+35, 2
; Line 54
	mov	BYTE PTR ?typedText_database_DEFAULT@@3QBUTypedTextData@TypedText@touchgfx@@B+36, 0
	mov	BYTE PTR ?typedText_database_DEFAULT@@3QBUTypedTextData@TypedText@touchgfx@@B+37, 1
; Line 55
	mov	BYTE PTR ?typedText_database_DEFAULT@@3QBUTypedTextData@TypedText@touchgfx@@B+38, 0
	mov	BYTE PTR ?typedText_database_DEFAULT@@3QBUTypedTextData@TypedText@touchgfx@@B+39, 2
; Line 56
	mov	BYTE PTR ?typedText_database_DEFAULT@@3QBUTypedTextData@TypedText@touchgfx@@B+40, 0
	mov	BYTE PTR ?typedText_database_DEFAULT@@3QBUTypedTextData@TypedText@touchgfx@@B+41, 2
; Line 57
	mov	BYTE PTR ?typedText_database_DEFAULT@@3QBUTypedTextData@TypedText@touchgfx@@B+42, 0
	mov	BYTE PTR ?typedText_database_DEFAULT@@3QBUTypedTextData@TypedText@touchgfx@@B+43, 2
; Line 58
	mov	BYTE PTR ?typedText_database_DEFAULT@@3QBUTypedTextData@TypedText@touchgfx@@B+44, 0
	mov	BYTE PTR ?typedText_database_DEFAULT@@3QBUTypedTextData@TypedText@touchgfx@@B+45, 2
; Line 59
	mov	BYTE PTR ?typedText_database_DEFAULT@@3QBUTypedTextData@TypedText@touchgfx@@B+46, 2
	mov	BYTE PTR ?typedText_database_DEFAULT@@3QBUTypedTextData@TypedText@touchgfx@@B+47, 1
; Line 60
	mov	BYTE PTR ?typedText_database_DEFAULT@@3QBUTypedTextData@TypedText@touchgfx@@B+48, 2
	mov	BYTE PTR ?typedText_database_DEFAULT@@3QBUTypedTextData@TypedText@touchgfx@@B+49, 0
; Line 61
	mov	BYTE PTR ?typedText_database_DEFAULT@@3QBUTypedTextData@TypedText@touchgfx@@B+50, 2
	mov	BYTE PTR ?typedText_database_DEFAULT@@3QBUTypedTextData@TypedText@touchgfx@@B+51, 1
; Line 62
	mov	BYTE PTR ?typedText_database_DEFAULT@@3QBUTypedTextData@TypedText@touchgfx@@B+52, 2
	mov	BYTE PTR ?typedText_database_DEFAULT@@3QBUTypedTextData@TypedText@touchgfx@@B+53, 1
; Line 63
	mov	BYTE PTR ?typedText_database_DEFAULT@@3QBUTypedTextData@TypedText@touchgfx@@B+54, 2
	mov	BYTE PTR ?typedText_database_DEFAULT@@3QBUTypedTextData@TypedText@touchgfx@@B+55, 1
; Line 64
	mov	BYTE PTR ?typedText_database_DEFAULT@@3QBUTypedTextData@TypedText@touchgfx@@B+56, 2
	mov	BYTE PTR ?typedText_database_DEFAULT@@3QBUTypedTextData@TypedText@touchgfx@@B+57, 1
; Line 65
	mov	BYTE PTR ?typedText_database_DEFAULT@@3QBUTypedTextData@TypedText@touchgfx@@B+58, 0
	mov	BYTE PTR ?typedText_database_DEFAULT@@3QBUTypedTextData@TypedText@touchgfx@@B+59, 1
; Line 66
	mov	BYTE PTR ?typedText_database_DEFAULT@@3QBUTypedTextData@TypedText@touchgfx@@B+60, 0
	mov	BYTE PTR ?typedText_database_DEFAULT@@3QBUTypedTextData@TypedText@touchgfx@@B+61, 1
; Line 67
	mov	BYTE PTR ?typedText_database_DEFAULT@@3QBUTypedTextData@TypedText@touchgfx@@B+62, 0
	mov	BYTE PTR ?typedText_database_DEFAULT@@3QBUTypedTextData@TypedText@touchgfx@@B+63, 1
; Line 68
	mov	BYTE PTR ?typedText_database_DEFAULT@@3QBUTypedTextData@TypedText@touchgfx@@B+64, 0
	mov	BYTE PTR ?typedText_database_DEFAULT@@3QBUTypedTextData@TypedText@touchgfx@@B+65, 1
; Line 69
	mov	BYTE PTR ?typedText_database_DEFAULT@@3QBUTypedTextData@TypedText@touchgfx@@B+66, 2
	mov	BYTE PTR ?typedText_database_DEFAULT@@3QBUTypedTextData@TypedText@touchgfx@@B+67, 1
; Line 70
	mov	BYTE PTR ?typedText_database_DEFAULT@@3QBUTypedTextData@TypedText@touchgfx@@B+68, 2
	mov	BYTE PTR ?typedText_database_DEFAULT@@3QBUTypedTextData@TypedText@touchgfx@@B+69, 1
; Line 71
	mov	BYTE PTR ?typedText_database_DEFAULT@@3QBUTypedTextData@TypedText@touchgfx@@B+70, 2
	mov	BYTE PTR ?typedText_database_DEFAULT@@3QBUTypedTextData@TypedText@touchgfx@@B+71, 1
; Line 72
	mov	BYTE PTR ?typedText_database_DEFAULT@@3QBUTypedTextData@TypedText@touchgfx@@B+72, 2
	mov	BYTE PTR ?typedText_database_DEFAULT@@3QBUTypedTextData@TypedText@touchgfx@@B+73, 1
; Line 73
	mov	BYTE PTR ?typedText_database_DEFAULT@@3QBUTypedTextData@TypedText@touchgfx@@B+74, 2
	mov	BYTE PTR ?typedText_database_DEFAULT@@3QBUTypedTextData@TypedText@touchgfx@@B+75, 1
; Line 74
	mov	BYTE PTR ?typedText_database_DEFAULT@@3QBUTypedTextData@TypedText@touchgfx@@B+76, 2
	mov	BYTE PTR ?typedText_database_DEFAULT@@3QBUTypedTextData@TypedText@touchgfx@@B+77, 0
; Line 75
	mov	BYTE PTR ?typedText_database_DEFAULT@@3QBUTypedTextData@TypedText@touchgfx@@B+78, 2
	mov	BYTE PTR ?typedText_database_DEFAULT@@3QBUTypedTextData@TypedText@touchgfx@@B+79, 1
; Line 76
	mov	BYTE PTR ?typedText_database_DEFAULT@@3QBUTypedTextData@TypedText@touchgfx@@B+80, 2
	mov	BYTE PTR ?typedText_database_DEFAULT@@3QBUTypedTextData@TypedText@touchgfx@@B+81, 1
; Line 77
	mov	BYTE PTR ?typedText_database_DEFAULT@@3QBUTypedTextData@TypedText@touchgfx@@B+82, 0
	mov	BYTE PTR ?typedText_database_DEFAULT@@3QBUTypedTextData@TypedText@touchgfx@@B+83, 1
; Line 78
	mov	BYTE PTR ?typedText_database_DEFAULT@@3QBUTypedTextData@TypedText@touchgfx@@B+84, 0
	mov	BYTE PTR ?typedText_database_DEFAULT@@3QBUTypedTextData@TypedText@touchgfx@@B+85, 1
; Line 79
	mov	BYTE PTR ?typedText_database_DEFAULT@@3QBUTypedTextData@TypedText@touchgfx@@B+86, 2
	mov	BYTE PTR ?typedText_database_DEFAULT@@3QBUTypedTextData@TypedText@touchgfx@@B+87, 1
; Line 80
	mov	BYTE PTR ?typedText_database_DEFAULT@@3QBUTypedTextData@TypedText@touchgfx@@B+88, 2
	mov	BYTE PTR ?typedText_database_DEFAULT@@3QBUTypedTextData@TypedText@touchgfx@@B+89, 1
; Line 81
	mov	BYTE PTR ?typedText_database_DEFAULT@@3QBUTypedTextData@TypedText@touchgfx@@B+90, 0
	mov	BYTE PTR ?typedText_database_DEFAULT@@3QBUTypedTextData@TypedText@touchgfx@@B+91, 0
; Line 82
	mov	BYTE PTR ?typedText_database_DEFAULT@@3QBUTypedTextData@TypedText@touchgfx@@B+92, 0
	mov	BYTE PTR ?typedText_database_DEFAULT@@3QBUTypedTextData@TypedText@touchgfx@@B+93, 0
; Line 83
	mov	BYTE PTR ?typedText_database_DEFAULT@@3QBUTypedTextData@TypedText@touchgfx@@B+94, 0
	mov	BYTE PTR ?typedText_database_DEFAULT@@3QBUTypedTextData@TypedText@touchgfx@@B+95, 0
; Line 84
	mov	BYTE PTR ?typedText_database_DEFAULT@@3QBUTypedTextData@TypedText@touchgfx@@B+96, 0
	mov	BYTE PTR ?typedText_database_DEFAULT@@3QBUTypedTextData@TypedText@touchgfx@@B+97, 0
; Line 85
	mov	BYTE PTR ?typedText_database_DEFAULT@@3QBUTypedTextData@TypedText@touchgfx@@B+98, 0
	mov	BYTE PTR ?typedText_database_DEFAULT@@3QBUTypedTextData@TypedText@touchgfx@@B+99, 0
; Line 86
	mov	BYTE PTR ?typedText_database_DEFAULT@@3QBUTypedTextData@TypedText@touchgfx@@B+100, 0
	mov	BYTE PTR ?typedText_database_DEFAULT@@3QBUTypedTextData@TypedText@touchgfx@@B+101, 1
; Line 87
	mov	BYTE PTR ?typedText_database_DEFAULT@@3QBUTypedTextData@TypedText@touchgfx@@B+102, 0
	mov	BYTE PTR ?typedText_database_DEFAULT@@3QBUTypedTextData@TypedText@touchgfx@@B+103, 1
; Line 88
	mov	BYTE PTR ?typedText_database_DEFAULT@@3QBUTypedTextData@TypedText@touchgfx@@B+104, 0
	mov	BYTE PTR ?typedText_database_DEFAULT@@3QBUTypedTextData@TypedText@touchgfx@@B+105, 1
; Line 89
	mov	BYTE PTR ?typedText_database_DEFAULT@@3QBUTypedTextData@TypedText@touchgfx@@B+106, 2
	mov	BYTE PTR ?typedText_database_DEFAULT@@3QBUTypedTextData@TypedText@touchgfx@@B+107, 1
; Line 90
	mov	BYTE PTR ?typedText_database_DEFAULT@@3QBUTypedTextData@TypedText@touchgfx@@B+108, 2
	mov	BYTE PTR ?typedText_database_DEFAULT@@3QBUTypedTextData@TypedText@touchgfx@@B+109, 1
; Line 91
	mov	BYTE PTR ?typedText_database_DEFAULT@@3QBUTypedTextData@TypedText@touchgfx@@B+110, 2
	mov	BYTE PTR ?typedText_database_DEFAULT@@3QBUTypedTextData@TypedText@touchgfx@@B+111, 1
; Line 92
	mov	BYTE PTR ?typedText_database_DEFAULT@@3QBUTypedTextData@TypedText@touchgfx@@B+112, 2
	mov	BYTE PTR ?typedText_database_DEFAULT@@3QBUTypedTextData@TypedText@touchgfx@@B+113, 1
; Line 93
	mov	BYTE PTR ?typedText_database_DEFAULT@@3QBUTypedTextData@TypedText@touchgfx@@B+114, 2
	mov	BYTE PTR ?typedText_database_DEFAULT@@3QBUTypedTextData@TypedText@touchgfx@@B+115, 1
; Line 94
	mov	BYTE PTR ?typedText_database_DEFAULT@@3QBUTypedTextData@TypedText@touchgfx@@B+116, 0
	mov	BYTE PTR ?typedText_database_DEFAULT@@3QBUTypedTextData@TypedText@touchgfx@@B+117, 1
; Line 95
	mov	BYTE PTR ?typedText_database_DEFAULT@@3QBUTypedTextData@TypedText@touchgfx@@B+118, 0
	mov	BYTE PTR ?typedText_database_DEFAULT@@3QBUTypedTextData@TypedText@touchgfx@@B+119, 1
; Line 96
	mov	BYTE PTR ?typedText_database_DEFAULT@@3QBUTypedTextData@TypedText@touchgfx@@B+120, 0
	mov	BYTE PTR ?typedText_database_DEFAULT@@3QBUTypedTextData@TypedText@touchgfx@@B+121, 1
; Line 97
	mov	BYTE PTR ?typedText_database_DEFAULT@@3QBUTypedTextData@TypedText@touchgfx@@B+122, 0
	mov	BYTE PTR ?typedText_database_DEFAULT@@3QBUTypedTextData@TypedText@touchgfx@@B+123, 1
; Line 98
	mov	BYTE PTR ?typedText_database_DEFAULT@@3QBUTypedTextData@TypedText@touchgfx@@B+124, 0
	mov	BYTE PTR ?typedText_database_DEFAULT@@3QBUTypedTextData@TypedText@touchgfx@@B+125, 1
; Line 99
	mov	BYTE PTR ?typedText_database_DEFAULT@@3QBUTypedTextData@TypedText@touchgfx@@B+126, 0
	mov	BYTE PTR ?typedText_database_DEFAULT@@3QBUTypedTextData@TypedText@touchgfx@@B+127, 1
; Line 100
	mov	BYTE PTR ?typedText_database_DEFAULT@@3QBUTypedTextData@TypedText@touchgfx@@B+128, 0
	mov	BYTE PTR ?typedText_database_DEFAULT@@3QBUTypedTextData@TypedText@touchgfx@@B+129, 1
; Line 101
	mov	BYTE PTR ?typedText_database_DEFAULT@@3QBUTypedTextData@TypedText@touchgfx@@B+130, 2
	mov	BYTE PTR ?typedText_database_DEFAULT@@3QBUTypedTextData@TypedText@touchgfx@@B+131, 1
; Line 102
	mov	BYTE PTR ?typedText_database_DEFAULT@@3QBUTypedTextData@TypedText@touchgfx@@B+132, 4
	mov	BYTE PTR ?typedText_database_DEFAULT@@3QBUTypedTextData@TypedText@touchgfx@@B+133, 1
; Line 103
	mov	BYTE PTR ?typedText_database_DEFAULT@@3QBUTypedTextData@TypedText@touchgfx@@B+134, 2
	mov	BYTE PTR ?typedText_database_DEFAULT@@3QBUTypedTextData@TypedText@touchgfx@@B+135, 1
; Line 104
	mov	BYTE PTR ?typedText_database_DEFAULT@@3QBUTypedTextData@TypedText@touchgfx@@B+136, 2
	mov	BYTE PTR ?typedText_database_DEFAULT@@3QBUTypedTextData@TypedText@touchgfx@@B+137, 1
; Line 105
	mov	BYTE PTR ?typedText_database_DEFAULT@@3QBUTypedTextData@TypedText@touchgfx@@B+138, 2
	mov	BYTE PTR ?typedText_database_DEFAULT@@3QBUTypedTextData@TypedText@touchgfx@@B+139, 1
; Line 106
	mov	BYTE PTR ?typedText_database_DEFAULT@@3QBUTypedTextData@TypedText@touchgfx@@B+140, 4
	mov	BYTE PTR ?typedText_database_DEFAULT@@3QBUTypedTextData@TypedText@touchgfx@@B+141, 1
; Line 107
	mov	BYTE PTR ?typedText_database_DEFAULT@@3QBUTypedTextData@TypedText@touchgfx@@B+142, 2
	mov	BYTE PTR ?typedText_database_DEFAULT@@3QBUTypedTextData@TypedText@touchgfx@@B+143, 1
; Line 108
	mov	BYTE PTR ?typedText_database_DEFAULT@@3QBUTypedTextData@TypedText@touchgfx@@B+144, 2
	mov	BYTE PTR ?typedText_database_DEFAULT@@3QBUTypedTextData@TypedText@touchgfx@@B+145, 1
; Line 109
	mov	BYTE PTR ?typedText_database_DEFAULT@@3QBUTypedTextData@TypedText@touchgfx@@B+146, 0
	mov	BYTE PTR ?typedText_database_DEFAULT@@3QBUTypedTextData@TypedText@touchgfx@@B+147, 0
; Line 110
	mov	BYTE PTR ?typedText_database_DEFAULT@@3QBUTypedTextData@TypedText@touchgfx@@B+148, 5
	mov	BYTE PTR ?typedText_database_DEFAULT@@3QBUTypedTextData@TypedText@touchgfx@@B+149, 1
; Line 111
	mov	BYTE PTR ?typedText_database_DEFAULT@@3QBUTypedTextData@TypedText@touchgfx@@B+150, 5
	mov	BYTE PTR ?typedText_database_DEFAULT@@3QBUTypedTextData@TypedText@touchgfx@@B+151, 1
; Line 112
	mov	BYTE PTR ?typedText_database_DEFAULT@@3QBUTypedTextData@TypedText@touchgfx@@B+152, 6
	mov	BYTE PTR ?typedText_database_DEFAULT@@3QBUTypedTextData@TypedText@touchgfx@@B+153, 1
; Line 113
	mov	BYTE PTR ?typedText_database_DEFAULT@@3QBUTypedTextData@TypedText@touchgfx@@B+154, 6
	mov	BYTE PTR ?typedText_database_DEFAULT@@3QBUTypedTextData@TypedText@touchgfx@@B+155, 1
; Line 114
	mov	BYTE PTR ?typedText_database_DEFAULT@@3QBUTypedTextData@TypedText@touchgfx@@B+156, 6
	mov	BYTE PTR ?typedText_database_DEFAULT@@3QBUTypedTextData@TypedText@touchgfx@@B+157, 1
; Line 115
	mov	BYTE PTR ?typedText_database_DEFAULT@@3QBUTypedTextData@TypedText@touchgfx@@B+158, 6
	mov	BYTE PTR ?typedText_database_DEFAULT@@3QBUTypedTextData@TypedText@touchgfx@@B+159, 1
; Line 116
	mov	BYTE PTR ?typedText_database_DEFAULT@@3QBUTypedTextData@TypedText@touchgfx@@B+160, 0
	mov	BYTE PTR ?typedText_database_DEFAULT@@3QBUTypedTextData@TypedText@touchgfx@@B+161, 0
; Line 117
	mov	BYTE PTR ?typedText_database_DEFAULT@@3QBUTypedTextData@TypedText@touchgfx@@B+162, 5
	mov	BYTE PTR ?typedText_database_DEFAULT@@3QBUTypedTextData@TypedText@touchgfx@@B+163, 2
; Line 118
	mov	BYTE PTR ?typedText_database_DEFAULT@@3QBUTypedTextData@TypedText@touchgfx@@B+164, 5
	mov	BYTE PTR ?typedText_database_DEFAULT@@3QBUTypedTextData@TypedText@touchgfx@@B+165, 1
; Line 119
	mov	BYTE PTR ?typedText_database_DEFAULT@@3QBUTypedTextData@TypedText@touchgfx@@B+166, 5
	mov	BYTE PTR ?typedText_database_DEFAULT@@3QBUTypedTextData@TypedText@touchgfx@@B+167, 1
; Line 120
	mov	BYTE PTR ?typedText_database_DEFAULT@@3QBUTypedTextData@TypedText@touchgfx@@B+168, 5
	mov	BYTE PTR ?typedText_database_DEFAULT@@3QBUTypedTextData@TypedText@touchgfx@@B+169, 1
; Line 121
	mov	BYTE PTR ?typedText_database_DEFAULT@@3QBUTypedTextData@TypedText@touchgfx@@B+170, 5
	mov	BYTE PTR ?typedText_database_DEFAULT@@3QBUTypedTextData@TypedText@touchgfx@@B+171, 0
; Line 122
	mov	BYTE PTR ?typedText_database_DEFAULT@@3QBUTypedTextData@TypedText@touchgfx@@B+172, 5
	mov	BYTE PTR ?typedText_database_DEFAULT@@3QBUTypedTextData@TypedText@touchgfx@@B+173, 2
; Line 123
	mov	BYTE PTR ?typedText_database_DEFAULT@@3QBUTypedTextData@TypedText@touchgfx@@B+174, 5
	mov	BYTE PTR ?typedText_database_DEFAULT@@3QBUTypedTextData@TypedText@touchgfx@@B+175, 1
; Line 124
	mov	BYTE PTR ?typedText_database_DEFAULT@@3QBUTypedTextData@TypedText@touchgfx@@B+176, 5
	mov	BYTE PTR ?typedText_database_DEFAULT@@3QBUTypedTextData@TypedText@touchgfx@@B+177, 2
; Line 125
	mov	BYTE PTR ?typedText_database_DEFAULT@@3QBUTypedTextData@TypedText@touchgfx@@B+178, 5
	mov	BYTE PTR ?typedText_database_DEFAULT@@3QBUTypedTextData@TypedText@touchgfx@@B+179, 0
; Line 126
	mov	BYTE PTR ?typedText_database_DEFAULT@@3QBUTypedTextData@TypedText@touchgfx@@B+180, 5
	mov	BYTE PTR ?typedText_database_DEFAULT@@3QBUTypedTextData@TypedText@touchgfx@@B+181, 2
; Line 127
	mov	BYTE PTR ?typedText_database_DEFAULT@@3QBUTypedTextData@TypedText@touchgfx@@B+182, 5
	mov	BYTE PTR ?typedText_database_DEFAULT@@3QBUTypedTextData@TypedText@touchgfx@@B+183, 1
; Line 128
	mov	BYTE PTR ?typedText_database_DEFAULT@@3QBUTypedTextData@TypedText@touchgfx@@B+184, 5
	mov	BYTE PTR ?typedText_database_DEFAULT@@3QBUTypedTextData@TypedText@touchgfx@@B+185, 0
; Line 129
	mov	BYTE PTR ?typedText_database_DEFAULT@@3QBUTypedTextData@TypedText@touchgfx@@B+186, 5
	mov	BYTE PTR ?typedText_database_DEFAULT@@3QBUTypedTextData@TypedText@touchgfx@@B+187, 2
; Line 130
	mov	BYTE PTR ?typedText_database_DEFAULT@@3QBUTypedTextData@TypedText@touchgfx@@B+188, 5
	mov	BYTE PTR ?typedText_database_DEFAULT@@3QBUTypedTextData@TypedText@touchgfx@@B+189, 1
; Line 131
	mov	BYTE PTR ?typedText_database_DEFAULT@@3QBUTypedTextData@TypedText@touchgfx@@B+190, 5
	mov	BYTE PTR ?typedText_database_DEFAULT@@3QBUTypedTextData@TypedText@touchgfx@@B+191, 0
; Line 132
	mov	BYTE PTR ?typedText_database_DEFAULT@@3QBUTypedTextData@TypedText@touchgfx@@B+192, 7
	mov	BYTE PTR ?typedText_database_DEFAULT@@3QBUTypedTextData@TypedText@touchgfx@@B+193, 1
; Line 133
	mov	BYTE PTR ?typedText_database_DEFAULT@@3QBUTypedTextData@TypedText@touchgfx@@B+194, 7
	mov	BYTE PTR ?typedText_database_DEFAULT@@3QBUTypedTextData@TypedText@touchgfx@@B+195, 1
; Line 134
	mov	BYTE PTR ?typedText_database_DEFAULT@@3QBUTypedTextData@TypedText@touchgfx@@B+196, 7
	mov	BYTE PTR ?typedText_database_DEFAULT@@3QBUTypedTextData@TypedText@touchgfx@@B+197, 1
; Line 135
	mov	BYTE PTR ?typedText_database_DEFAULT@@3QBUTypedTextData@TypedText@touchgfx@@B+198, 7
	mov	BYTE PTR ?typedText_database_DEFAULT@@3QBUTypedTextData@TypedText@touchgfx@@B+199, 1
; Line 136
	mov	BYTE PTR ?typedText_database_DEFAULT@@3QBUTypedTextData@TypedText@touchgfx@@B+200, 7
	mov	BYTE PTR ?typedText_database_DEFAULT@@3QBUTypedTextData@TypedText@touchgfx@@B+201, 1
; Line 137
	mov	BYTE PTR ?typedText_database_DEFAULT@@3QBUTypedTextData@TypedText@touchgfx@@B+202, 7
	mov	BYTE PTR ?typedText_database_DEFAULT@@3QBUTypedTextData@TypedText@touchgfx@@B+203, 1
; Line 138
	mov	BYTE PTR ?typedText_database_DEFAULT@@3QBUTypedTextData@TypedText@touchgfx@@B+204, 7
	mov	BYTE PTR ?typedText_database_DEFAULT@@3QBUTypedTextData@TypedText@touchgfx@@B+205, 1
; Line 139
	mov	BYTE PTR ?typedText_database_DEFAULT@@3QBUTypedTextData@TypedText@touchgfx@@B+206, 7
	mov	BYTE PTR ?typedText_database_DEFAULT@@3QBUTypedTextData@TypedText@touchgfx@@B+207, 1
; Line 140
	mov	BYTE PTR ?typedText_database_DEFAULT@@3QBUTypedTextData@TypedText@touchgfx@@B+208, 7
	mov	BYTE PTR ?typedText_database_DEFAULT@@3QBUTypedTextData@TypedText@touchgfx@@B+209, 1
; Line 141
	mov	BYTE PTR ?typedText_database_DEFAULT@@3QBUTypedTextData@TypedText@touchgfx@@B+210, 7
	mov	BYTE PTR ?typedText_database_DEFAULT@@3QBUTypedTextData@TypedText@touchgfx@@B+211, 1
; Line 142
	mov	BYTE PTR ?typedText_database_DEFAULT@@3QBUTypedTextData@TypedText@touchgfx@@B+212, 8
	mov	BYTE PTR ?typedText_database_DEFAULT@@3QBUTypedTextData@TypedText@touchgfx@@B+213, 2
	pop	edi
	pop	esi
	pop	ebx
	mov	esp, ebp
	pop	ebp
	ret	0
??__EtypedText_database_DEFAULT@@YAXXZ ENDP		; `dynamic initializer for 'typedText_database_DEFAULT''
text$di	ENDS
; Function compile flags: /Odtp /RTCsu /ZI
;	COMDAT ??__E_fonts@@YAXXZ
text$di	SEGMENT
??__E_fonts@@YAXXZ PROC					; `dynamic initializer for '_fonts'', COMDAT
; File c:\users\hjalm\documents\embedded\touchgfx_projects\growhousecontroller\generated\texts\src\typedtextdatabase.cpp
; Line 32
	push	ebp
	mov	ebp, esp
	sub	esp, 192				; 000000c0H
	push	ebx
	push	esi
	push	edi
	lea	edi, DWORD PTR [ebp-192]
	mov	ecx, 48					; 00000030H
	mov	eax, -858993460				; ccccccccH
	rep stosd
; Line 23
	call	?getFont_verdana_17_8bpp@@YAAAVInternalFlashFont@touchgfx@@XZ ; getFont_verdana_17_8bpp
	mov	DWORD PTR ?_fonts@@3QBQBVFont@touchgfx@@B, eax
; Line 24
	call	?getFont_segoeui_67_4bpp@@YAAAVInternalFlashFont@touchgfx@@XZ ; getFont_segoeui_67_4bpp
	mov	DWORD PTR ?_fonts@@3QBQBVFont@touchgfx@@B+4, eax
; Line 25
	call	?getFont_verdana_12_4bpp@@YAAAVInternalFlashFont@touchgfx@@XZ ; getFont_verdana_12_4bpp
	mov	DWORD PTR ?_fonts@@3QBQBVFont@touchgfx@@B+8, eax
; Line 26
	call	?getFont_verdana_34_4bpp@@YAAAVInternalFlashFont@touchgfx@@XZ ; getFont_verdana_34_4bpp
	mov	DWORD PTR ?_fonts@@3QBQBVFont@touchgfx@@B+12, eax
; Line 27
	call	?getFont_verdana_46_4bpp@@YAAAVInternalFlashFont@touchgfx@@XZ ; getFont_verdana_46_4bpp
	mov	DWORD PTR ?_fonts@@3QBQBVFont@touchgfx@@B+16, eax
; Line 28
	call	?getFont_segoeui_40_8bpp@@YAAAVInternalFlashFont@touchgfx@@XZ ; getFont_segoeui_40_8bpp
	mov	DWORD PTR ?_fonts@@3QBQBVFont@touchgfx@@B+20, eax
; Line 29
	call	?getFont_segoeui_18_8bpp@@YAAAVInternalFlashFont@touchgfx@@XZ ; getFont_segoeui_18_8bpp
	mov	DWORD PTR ?_fonts@@3QBQBVFont@touchgfx@@B+24, eax
; Line 30
	call	?getFont_segoeui_28_8bpp@@YAAAVInternalFlashFont@touchgfx@@XZ ; getFont_segoeui_28_8bpp
	mov	DWORD PTR ?_fonts@@3QBQBVFont@touchgfx@@B+28, eax
; Line 31
	call	?getFont_segoeui_17_8bpp@@YAAAVInternalFlashFont@touchgfx@@XZ ; getFont_segoeui_17_8bpp
	mov	DWORD PTR ?_fonts@@3QBQBVFont@touchgfx@@B+32, eax
	pop	edi
	pop	esi
	pop	ebx
	add	esp, 192				; 000000c0H
	cmp	ebp, esp
	call	__RTC_CheckEsp
	mov	esp, ebp
	pop	ebp
	ret	0
??__E_fonts@@YAXXZ ENDP					; `dynamic initializer for '_fonts''
text$di	ENDS
; Function compile flags: /Odtp /RTCsu /ZI
;	COMDAT ?getInstanceSize@TypedTextDatabase@@YAGXZ
_TEXT	SEGMENT
?getInstanceSize@TypedTextDatabase@@YAGXZ PROC		; TypedTextDatabase::getInstanceSize, COMDAT
; File c:\users\hjalm\documents\embedded\touchgfx_projects\growhousecontroller\generated\texts\src\typedtextdatabase.cpp
; Line 160
	push	ebp
	mov	ebp, esp
	sub	esp, 192				; 000000c0H
	push	ebx
	push	esi
	push	edi
	lea	edi, DWORD PTR [ebp-192]
	mov	ecx, 48					; 00000030H
	mov	eax, -858993460				; ccccccccH
	rep stosd
; Line 161
	mov	eax, 107				; 0000006bH
; Line 162
	pop	edi
	pop	esi
	pop	ebx
	mov	esp, ebp
	pop	ebp
	ret	0
?getInstanceSize@TypedTextDatabase@@YAGXZ ENDP		; TypedTextDatabase::getInstanceSize
_TEXT	ENDS
; Function compile flags: /Odtp /RTCsu /ZI
;	COMDAT ?getFonts@TypedTextDatabase@@YAPBQBVFont@touchgfx@@XZ
_TEXT	SEGMENT
?getFonts@TypedTextDatabase@@YAPBQBVFont@touchgfx@@XZ PROC ; TypedTextDatabase::getFonts, COMDAT
; File c:\users\hjalm\documents\embedded\touchgfx_projects\growhousecontroller\generated\texts\src\typedtextdatabase.cpp
; Line 164
	push	ebp
	mov	ebp, esp
	sub	esp, 192				; 000000c0H
	push	ebx
	push	esi
	push	edi
	lea	edi, DWORD PTR [ebp-192]
	mov	ecx, 48					; 00000030H
	mov	eax, -858993460				; ccccccccH
	rep stosd
; Line 165
	mov	eax, OFFSET ?_fonts@@3QBQBVFont@touchgfx@@B
; Line 166
	pop	edi
	pop	esi
	pop	ebx
	mov	esp, ebp
	pop	ebp
	ret	0
?getFonts@TypedTextDatabase@@YAPBQBVFont@touchgfx@@XZ ENDP ; TypedTextDatabase::getFonts
_TEXT	ENDS
; Function compile flags: /Odtp /RTCsu /ZI
;	COMDAT ?getInstance@TypedTextDatabase@@YAPBUTypedTextData@TypedText@touchgfx@@G@Z
_TEXT	SEGMENT
_id$ = 8						; size = 2
?getInstance@TypedTextDatabase@@YAPBUTypedTextData@TypedText@touchgfx@@G@Z PROC ; TypedTextDatabase::getInstance, COMDAT
; File c:\users\hjalm\documents\embedded\touchgfx_projects\growhousecontroller\generated\texts\src\typedtextdatabase.cpp
; Line 155
	push	ebp
	mov	ebp, esp
	sub	esp, 192				; 000000c0H
	push	ebx
	push	esi
	push	edi
	lea	edi, DWORD PTR [ebp-192]
	mov	ecx, 48					; 00000030H
	mov	eax, -858993460				; ccccccccH
	rep stosd
; Line 156
	movzx	eax, WORD PTR _id$[ebp]
	mov	eax, DWORD PTR ?typedTextDatabaseArray@@3QBQBUTypedTextData@TypedText@touchgfx@@B[eax*4]
; Line 157
	pop	edi
	pop	esi
	pop	ebx
	mov	esp, ebp
	pop	ebp
	ret	0
?getInstance@TypedTextDatabase@@YAPBUTypedTextData@TypedText@touchgfx@@G@Z ENDP ; TypedTextDatabase::getInstance
_TEXT	ENDS
END
